; ModuleID = 'build/seq/main.hpvm.ll'
source_filename = "src//main.cpp"
target datalayout = "e-m:e-i64:64-f80:128-n8:16:32:64-S128"
target triple = "x86_64-unknown-linux-gnu"

%"class.std::ios_base::Init" = type { i8 }
%"class.std::basic_ostream" = type { i32 (...)**, %"class.std::basic_ios" }
%"class.std::basic_ios" = type { %"class.std::ios_base", %"class.std::basic_ostream"*, i8, i8, %"class.std::basic_streambuf"*, %"class.std::ctype"*, %"class.std::num_put"*, %"class.std::num_get"* }
%"class.std::ios_base" = type { i32 (...)**, i64, i64, i32, i32, i32, %"struct.std::ios_base::_Callback_list"*, %"struct.std::ios_base::_Words", [8 x %"struct.std::ios_base::_Words"], i32, %"struct.std::ios_base::_Words"*, %"class.std::locale" }
%"struct.std::ios_base::_Callback_list" = type { %"struct.std::ios_base::_Callback_list"*, void (i32, %"class.std::ios_base"*, i32)*, i32, i32 }
%"struct.std::ios_base::_Words" = type { i8*, i64 }
%"class.std::locale" = type { %"class.std::locale::_Impl"* }
%"class.std::locale::_Impl" = type { i32, %"class.std::locale::facet"**, i64, %"class.std::locale::facet"**, i8** }
%"class.std::locale::facet" = type <{ i32 (...)**, i32, [4 x i8] }>
%"class.std::basic_streambuf" = type { i32 (...)**, i8*, i8*, i8*, i8*, i8*, i8*, %"class.std::locale" }
%"class.std::ctype" = type <{ %"class.std::locale::facet.base", [4 x i8], %struct.__locale_struct*, i8, [7 x i8], i32*, i32*, i16*, i8, [256 x i8], [256 x i8], i8, [6 x i8] }>
%"class.std::locale::facet.base" = type <{ i32 (...)**, i32 }>
%struct.__locale_struct = type { [13 x %struct.__locale_data*], i16*, i32*, i32*, [13 x i8*] }
%struct.__locale_data = type opaque
%"class.std::num_put" = type { %"class.std::locale::facet.base", [4 x i8] }
%"class.std::num_get" = type { %"class.std::locale::facet.base", [4 x i8] }
%class.MIT_HRTF = type { %class.HRTF }
%class.HRTF = type { i32 (...)**, i32, i32 }
%class.CAmbisonicSource = type { %class.CAmbisonicBase.base, %"class.std::vector.0", %"class.std::vector.0", %struct.PolarPoint, float }
%class.CAmbisonicBase.base = type <{ i32 (...)**, i32, i8, [3 x i8], i32, i8 }>
%"class.std::vector.0" = type { %"struct.std::_Vector_base.1" }
%"struct.std::_Vector_base.1" = type { %"struct.std::_Vector_base<float, std::allocator<float> >::_Vector_impl" }
%"struct.std::_Vector_base<float, std::allocator<float> >::_Vector_impl" = type { %"struct.std::_Vector_base<float, std::allocator<float> >::_Vector_impl_data" }
%"struct.std::_Vector_base<float, std::allocator<float> >::_Vector_impl_data" = type { float*, float*, float* }
%struct.PolarPoint = type { float, float, float }
%class.CBFormat = type { %class.CAmbisonicBase.base, i32, i32, %"class.std::vector.0", %"class.std::unique_ptr" }
%"class.std::unique_ptr" = type { %"class.std::__uniq_ptr_impl" }
%"class.std::__uniq_ptr_impl" = type { %"class.std::tuple" }
%"class.std::tuple" = type { %"struct.std::_Tuple_impl" }
%"struct.std::_Tuple_impl" = type { %"struct.std::_Head_base.6" }
%"struct.std::_Head_base.6" = type { float** }
%class.CAmbisonicEncoder = type { %class.CAmbisonicSource }
%class.CAmbisonicEncoderDist = type { %class.CAmbisonicEncoder, i32, float, i32, i32, float*, i32, i32, i32, float, float, float }
%class.CAmbisonicProcessor = type { %class.CAmbisonicBase.base, %class.Orientation, float*, %struct.kiss_fftr_state*, %struct.kiss_fftr_state*, float*, float**, i32, i32, i32, i32, i32, float, %struct.kiss_fft_cpx**, %struct.kiss_fft_cpx*, float, float, float, float, float, float, float, float, float, float, float, float, float, float, float, float, float, float }
%class.Orientation = type { float, float, float, float, float, float }
%struct.kiss_fftr_state = type opaque
%struct.kiss_fft_cpx = type { float, float }
%class.CAmbisonicSpeaker = type { %class.CAmbisonicSource }
%class.CAmbisonicDecoder = type { %class.CAmbisonicBase.base, i32, i32, %class.CAmbisonicSpeaker* }
%class.CAmbisonicZoomer = type { %class.CAmbisonicBase.base, %class.CAmbisonicDecoder, %"class.std::unique_ptr.12", %"class.std::unique_ptr.12", %"class.std::unique_ptr.12", float, float, float, float }
%"class.std::unique_ptr.12" = type { %"class.std::__uniq_ptr_impl.13" }
%"class.std::__uniq_ptr_impl.13" = type { %"class.std::tuple.14" }
%"class.std::tuple.14" = type { %"struct.std::_Tuple_impl.15" }
%"struct.std::_Tuple_impl.15" = type { %"struct.std::_Head_base.20" }
%"struct.std::_Head_base.20" = type { float* }
%class.CAmbisonicBinauralizer = type { %class.CAmbisonicBase.base, %class.CAmbisonicDecoder, i32, i32, i32, i32, float, i32, %"class.std::unique_ptr.21", %"class.std::unique_ptr.21", [2 x %"class.std::vector.28"], %"class.std::unique_ptr.33", %"class.std::vector.0", %"class.std::vector.0", %"class.std::vector.0", [2 x %"class.std::vector.0"] }
%"class.std::unique_ptr.21" = type { %"class.std::__uniq_ptr_impl.22" }
%"class.std::__uniq_ptr_impl.22" = type { %"class.std::tuple.23" }
%"class.std::tuple.23" = type { %"struct.std::_Tuple_impl.24" }
%"struct.std::_Tuple_impl.24" = type { %"struct.std::_Tuple_impl.25", %"struct.std::_Head_base.27" }
%"struct.std::_Tuple_impl.25" = type { %"struct.std::_Head_base.26" }
%"struct.std::_Head_base.26" = type { void (i8*)* }
%"struct.std::_Head_base.27" = type { %struct.kiss_fftr_state* }
%"class.std::vector.28" = type { %"struct.std::_Vector_base.29" }
%"struct.std::_Vector_base.29" = type { %"struct.std::_Vector_base<std::unique_ptr<kiss_fft_cpx [], std::default_delete<kiss_fft_cpx []> >, std::allocator<std::unique_ptr<kiss_fft_cpx [], std::default_delete<kiss_fft_cpx []> > > >::_Vector_impl" }
%"struct.std::_Vector_base<std::unique_ptr<kiss_fft_cpx [], std::default_delete<kiss_fft_cpx []> >, std::allocator<std::unique_ptr<kiss_fft_cpx [], std::default_delete<kiss_fft_cpx []> > > >::_Vector_impl" = type { %"struct.std::_Vector_base<std::unique_ptr<kiss_fft_cpx [], std::default_delete<kiss_fft_cpx []> >, std::allocator<std::unique_ptr<kiss_fft_cpx [], std::default_delete<kiss_fft_cpx []> > > >::_Vector_impl_data" }
%"struct.std::_Vector_base<std::unique_ptr<kiss_fft_cpx [], std::default_delete<kiss_fft_cpx []> >, std::allocator<std::unique_ptr<kiss_fft_cpx [], std::default_delete<kiss_fft_cpx []> > > >::_Vector_impl_data" = type { %"class.std::unique_ptr.33"*, %"class.std::unique_ptr.33"*, %"class.std::unique_ptr.33"* }
%"class.std::unique_ptr.33" = type { %"class.std::__uniq_ptr_impl.34" }
%"class.std::__uniq_ptr_impl.34" = type { %"class.std::tuple.35" }
%"class.std::tuple.35" = type { %"struct.std::_Tuple_impl.36" }
%"struct.std::_Tuple_impl.36" = type { %"struct.std::_Head_base.41" }
%"struct.std::_Head_base.41" = type { %struct.kiss_fft_cpx* }
%"class.ILLIXR_AUDIO::Sound" = type { %"class.std::basic_fstream"*, [1024 x float], %class.CBFormat*, %class.CAmbisonicEncoderDist*, %struct.PolarPoint, float }
%"class.std::basic_fstream" = type { %"class.std::basic_iostream.base", %"class.std::basic_filebuf", %"class.std::basic_ios" }
%"class.std::basic_iostream.base" = type { %"class.std::basic_istream.base", %"class.std::basic_ostream.base" }
%"class.std::basic_istream.base" = type { i32 (...)**, i64 }
%"class.std::basic_ostream.base" = type { i32 (...)** }
%"class.std::basic_filebuf" = type { %"class.std::basic_streambuf", %union.pthread_mutex_t, %"class.std::__basic_file", i32, %struct.__mbstate_t, %struct.__mbstate_t, %struct.__mbstate_t, i8*, i64, i8, i8, i8, i8, i8*, i8*, i8, %"class.std::codecvt"*, i8*, i64, i8*, i8* }
%union.pthread_mutex_t = type { %struct.__pthread_mutex_s }
%struct.__pthread_mutex_s = type { i32, i32, i32, i32, i32, i16, i16, %struct.__pthread_internal_list }
%struct.__pthread_internal_list = type { %struct.__pthread_internal_list*, %struct.__pthread_internal_list* }
%"class.std::__basic_file" = type <{ %struct._IO_FILE*, i8, [7 x i8] }>
%struct._IO_FILE = type { i32, i8*, i8*, i8*, i8*, i8*, i8*, i8*, i8*, i8*, i8*, i8*, %struct._IO_marker*, %struct._IO_FILE*, i32, i32, i64, i16, i8, [1 x i8], i8*, i64, %struct._IO_codecvt*, %struct._IO_wide_data*, %struct._IO_FILE*, i8*, i64, i32, [20 x i8] }
%struct._IO_marker = type opaque
%struct._IO_codecvt = type opaque
%struct._IO_wide_data = type opaque
%struct.__mbstate_t = type { i32, %union.anon.45 }
%union.anon.45 = type { i32 }
%"class.std::codecvt" = type { %"class.std::__codecvt_abstract_base.base", %struct.__locale_struct* }
%"class.std::__codecvt_abstract_base.base" = type { %"class.std::locale::facet.base" }
%"class.std::__cxx11::basic_string" = type { %"struct.std::__cxx11::basic_string<char, std::char_traits<char>, std::allocator<char> >::_Alloc_hider", i64, %union.anon }
%"struct.std::__cxx11::basic_string<char, std::char_traits<char>, std::allocator<char> >::_Alloc_hider" = type { i8* }
%union.anon = type { i64, [8 x i8] }
%"class.ILLIXR_AUDIO::ABAudio" = type { i32, %"class.std::vector.46"*, %"class.std::basic_ofstream"*, %class.CAmbisonicBinauralizer*, %class.CAmbisonicBinauralizer*, %class.CAmbisonicProcessor*, %class.CAmbisonicZoomer* }
%"class.std::vector.46" = type { %"struct.std::_Vector_base.47" }
%"struct.std::_Vector_base.47" = type { %"struct.std::_Vector_base<ILLIXR_AUDIO::Sound *, std::allocator<ILLIXR_AUDIO::Sound *> >::_Vector_impl" }
%"struct.std::_Vector_base<ILLIXR_AUDIO::Sound *, std::allocator<ILLIXR_AUDIO::Sound *> >::_Vector_impl" = type { %"struct.std::_Vector_base<ILLIXR_AUDIO::Sound *, std::allocator<ILLIXR_AUDIO::Sound *> >::_Vector_impl_data" }
%"struct.std::_Vector_base<ILLIXR_AUDIO::Sound *, std::allocator<ILLIXR_AUDIO::Sound *> >::_Vector_impl_data" = type { %"class.ILLIXR_AUDIO::Sound"**, %"class.ILLIXR_AUDIO::Sound"**, %"class.ILLIXR_AUDIO::Sound"** }
%"class.std::basic_ofstream" = type { %"class.std::basic_ostream.base", %"class.std::basic_filebuf", %"class.std::basic_ios" }
%class.CAmbisonicBase = type <{ i32 (...)**, i32, i8, [3 x i8], i32, i8, [3 x i8] }>
%"class.std::vector.7" = type { %"struct.std::_Vector_base.8" }
%"struct.std::_Vector_base.8" = type { %"struct.std::_Vector_base<std::unique_ptr<float [], std::default_delete<float []> >, std::allocator<std::unique_ptr<float [], std::default_delete<float []> > > >::_Vector_impl" }
%"struct.std::_Vector_base<std::unique_ptr<float [], std::default_delete<float []> >, std::allocator<std::unique_ptr<float [], std::default_delete<float []> > > >::_Vector_impl" = type { %"struct.std::_Vector_base<std::unique_ptr<float [], std::default_delete<float []> >, std::allocator<std::unique_ptr<float [], std::default_delete<float []> > > >::_Vector_impl_data" }
%"struct.std::_Vector_base<std::unique_ptr<float [], std::default_delete<float []> >, std::allocator<std::unique_ptr<float [], std::default_delete<float []> > > >::_Vector_impl_data" = type { %"class.std::unique_ptr.12"*, %"class.std::unique_ptr.12"*, %"class.std::unique_ptr.12"* }
%"class.std::basic_istream" = type { i32 (...)**, i64, %"class.std::basic_ios" }
%"struct.ILLIXR_AUDIO::WAVHeader_t" = type { i32, i32, i32, i32, i32, i16, i16, i32, i32, i16, i16, i32, i32 }
%struct.out.rotatorSet_fxp = type <{ i64 }>
%struct.out.wrapperRotatorSet_fxp = type <{ i64 }>
%struct.out.zoomSet_fxp = type <{ i64 }>
%struct.out.wrapperZoomSet_fxp = type <{ i64 }>
%struct.out.psychoFilter_fxp = type <{ i64, i64, i64, i64, i64, i64, i64 }>
%struct.out.wrapperPsychoFilter_fxp = type <{ i64, i64, i64, i64, i64, i64, i64 }>
%struct.out.rotateOrder1_fxp = type <{ i64 }>
%struct.out.wrapperRotateOrder1_fxp = type <{ i64 }>
%struct.out.rotateOrder2_fxp = type <{ i64 }>
%struct.out.wrapperRotateOrder2_fxp = type <{ i64 }>
%struct.out.rotateOrder3_fxp = type <{ i64 }>
%struct.out.wrapperRotateOrder3_fxp = type <{ i64 }>
%struct.out.zoomProcess_fxp = type <{ i64, i64 }>
%struct.out.wrapperZoomProcess_fxp = type <{ i64, i64 }>
%struct.out.setAndFFT_left_fxp = type <{ i64 }>
%struct.out.wrapperSetAndFFT_left_fxp = type <{ i64 }>
%struct.out.setAndFFT_right_fxp = type <{ i64 }>
%struct.out.wrapperSetAndFFT_right_fxp = type <{ i64 }>
%struct.out.FIR_left_fxp = type <{ i64 }>
%struct.out.wrapperFIR_left_fxp = type <{ i64 }>
%struct.out.FIR_right_fxp = type <{ i64 }>
%struct.out.wrapperFIR_right_fxp = type <{ i64 }>
%struct.out.IFFT_left_fxp = type <{ i64 }>
%struct.out.wrapperIFFT_left_fxp = type <{ i64 }>
%struct.out.IFFT_right_fxp = type <{ i64 }>
%struct.out.wrapperIFFT_right_fxp = type <{ i64 }>
%struct.out.overlap_right_fxp = type <{ i64 }>
%struct.out.wrapperOverlap_right_fxp = type <{ i64 }>
%struct.out.overlap_left_fxp = type <{ i64 }>
%struct.out.wrapperOverlap_left_fxp = type <{ i64 }>
%struct.thread.wrapperRotatorSet_fxp_cloned = type <{ i8*, i8*, i8*, i8* }>
%struct.thread.wrapperZoomSet_fxp_cloned = type <{ i8*, i8*, i8*, i8* }>
%struct.thread.wrapperPsychoFilter_fxp_cloned = type <{ i8*, i8*, i8*, i8*, i8*, i8*, i8*, i8*, i8*, i8*, i8*, i8*, i8*, i8*, i8*, i8*, i8*, i8*, i8* }>
%struct.thread.wrapperRotateOrder1_fxp_cloned = type <{ i8*, i8*, i8*, i8*, i8*, i8*, i8* }>
%struct.thread.wrapperRotateOrder2_fxp_cloned = type <{ i8*, i8*, i8*, i8*, i8*, i8*, i8* }>
%struct.thread.wrapperRotateOrder3_fxp_cloned = type <{ i8*, i8*, i8*, i8*, i8*, i8*, i8* }>
%struct.thread.wrapperZoomProcess_fxp_cloned = type <{ i8*, i8*, i8*, i8*, i8*, i8*, i8*, i8*, i8*, i8*, i8*, i8*, i8*, i8* }>
%struct.thread.wrapperSetAndFFT_left_fxp_cloned = type <{ i8*, i8*, i8*, i8*, i8*, i8* }>
%struct.thread.wrapperSetAndFFT_right_fxp_cloned = type <{ i8*, i8*, i8*, i8*, i8*, i8* }>
%struct.thread.wrapperFIR_left_fxp_cloned = type <{ i8*, i8*, i8*, i8*, i8*, i8* }>
%struct.thread.wrapperFIR_right_fxp_cloned = type <{ i8*, i8*, i8*, i8*, i8*, i8* }>
%struct.thread.wrapperIFFT_left_fxp_cloned = type <{ i8*, i8*, i8*, i8* }>
%struct.thread.wrapperIFFT_right_fxp_cloned = type <{ i8*, i8*, i8*, i8* }>
%struct.thread.wrapperOverlap_right_fxp_cloned = type <{ i8*, i8*, i8*, i8*, i8*, i8* }>
%struct.thread.wrapperOverlap_left_fxp_cloned = type <{ i8*, i8*, i8*, i8*, i8*, i8* }>
%struct.out.audioDecoding = type <{ i64, i64 }>

$_ZN8CBFormatD2Ev = comdat any

$_ZN8MIT_HRTFD0Ev = comdat any

$_ZN14CAmbisonicBaseD2Ev = comdat any

$_ZN14CAmbisonicBaseD0Ev = comdat any

$_ZN16CAmbisonicSourceD2Ev = comdat any

$_ZN16CAmbisonicSourceD0Ev = comdat any

$_ZN8CBFormatD0Ev = comdat any

$_ZN16CAmbisonicZoomerD2Ev = comdat any

$_ZN16CAmbisonicZoomerD0Ev = comdat any

$_ZN22CAmbisonicBinauralizerD2Ev = comdat any

$_ZN22CAmbisonicBinauralizerD0Ev = comdat any

$_ZN4HRTFD2Ev = comdat any

$_ZNSt6vectorIfSaIfEE14_M_fill_insertEN9__gnu_cxx17__normal_iteratorIPfS1_EEmRKf = comdat any

$_ZNSt6vectorIfSaIfEE17_M_default_appendEm = comdat any

$_ZNSt6vectorISt10unique_ptrIA_fSt14default_deleteIS1_EESaIS4_EE17_M_realloc_insertIJPfEEEvN9__gnu_cxx17__normal_iteratorIPS4_S6_EEDpOT_ = comdat any

$_ZNSt6vectorISt10unique_ptrIA_12kiss_fft_cpxSt14default_deleteIS2_EESaIS5_EE17_M_default_appendEm = comdat any

$_ZTS4HRTF = comdat any

$_ZTI4HRTF = comdat any

@_ZStL8__ioinit = internal global %"class.std::ios_base::Init" zeroinitializer, align 1
@__dso_handle = external hidden global i8
@_ZTV8MIT_HRTF = unnamed_addr constant { [5 x i8*] } { [5 x i8*] [i8* null, i8* bitcast ({ i8*, i8*, i8* }* @_ZTI8MIT_HRTF to i8*), i8* bitcast (void (%class.HRTF*)* @_ZN4HRTFD2Ev to i8*), i8* bitcast (void (%class.MIT_HRTF*)* @_ZN8MIT_HRTFD0Ev to i8*), i8* bitcast (i1 (%class.MIT_HRTF*, float, float, float**)* @_ZN8MIT_HRTF3getEffPPf to i8*)] }, align 8
@_ZTV14CAmbisonicBase = unnamed_addr constant { [7 x i8*] } { [7 x i8*] [i8* null, i8* bitcast ({ i8*, i8* }* @_ZTI14CAmbisonicBase to i8*), i8* bitcast (void (%class.CAmbisonicBase*)* @_ZN14CAmbisonicBaseD2Ev to i8*), i8* bitcast (void (%class.CAmbisonicBase*)* @_ZN14CAmbisonicBaseD0Ev to i8*), i8* bitcast (i1 (%class.CAmbisonicBase*, i32, i1, i32)* @_ZN14CAmbisonicBase9ConfigureEjbj to i8*), i8* bitcast (void ()* @__cxa_pure_virtual to i8*), i8* bitcast (void ()* @__cxa_pure_virtual to i8*)] }, align 8
@_ZTV16CAmbisonicSource = unnamed_addr constant { [16 x i8*] } { [16 x i8*] [i8* null, i8* bitcast ({ i8*, i8*, i8* }* @_ZTI16CAmbisonicSource to i8*), i8* bitcast (void (%class.CAmbisonicSource*)* @_ZN16CAmbisonicSourceD2Ev to i8*), i8* bitcast (void (%class.CAmbisonicSource*)* @_ZN16CAmbisonicSourceD0Ev to i8*), i8* bitcast (i1 (%class.CAmbisonicSource*, i32, i1, i32)* @_ZN16CAmbisonicSource9ConfigureEjbj to i8*), i8* bitcast (void (%class.CAmbisonicSource*)* @_ZN16CAmbisonicSource5ResetEv to i8*), i8* bitcast (void (%class.CAmbisonicSource*)* @_ZN16CAmbisonicSource7RefreshEv to i8*), i8* bitcast (void (%class.CAmbisonicSource*, <2 x float>, float)* @_ZN16CAmbisonicSource11SetPositionE10PolarPoint to i8*), i8* bitcast ({ <2 x float>, float } (%class.CAmbisonicSource*)* @_ZN16CAmbisonicSource11GetPositionEv to i8*), i8* bitcast (void (%class.CAmbisonicSource*, i32, float)* @_ZN16CAmbisonicSource14SetOrderWeightEjf to i8*), i8* bitcast (void (%class.CAmbisonicSource*, float)* @_ZN16CAmbisonicSource17SetOrderWeightAllEf to i8*), i8* bitcast (void (%class.CAmbisonicSource*, i32, float)* @_ZN16CAmbisonicSource14SetCoefficientEjf to i8*), i8* bitcast (float (%class.CAmbisonicSource*, i32)* @_ZN16CAmbisonicSource14GetOrderWeightEj to i8*), i8* bitcast (float (%class.CAmbisonicSource*, i32)* @_ZN16CAmbisonicSource14GetCoefficientEj to i8*), i8* bitcast (void (%class.CAmbisonicSource*, float)* @_ZN16CAmbisonicSource7SetGainEf to i8*), i8* bitcast (float (%class.CAmbisonicSource*)* @_ZN16CAmbisonicSource7GetGainEv to i8*)] }, align 8
@_ZTV8CBFormat = unnamed_addr constant { [7 x i8*] } { [7 x i8*] [i8* null, i8* bitcast ({ i8*, i8*, i8* }* @_ZTI8CBFormat to i8*), i8* bitcast (void (%class.CBFormat*)* @_ZN8CBFormatD2Ev to i8*), i8* bitcast (void (%class.CBFormat*)* @_ZN8CBFormatD0Ev to i8*), i8* bitcast (i1 (%class.CBFormat*, i32, i1, i32)* @_ZN8CBFormat9ConfigureEjbj to i8*), i8* bitcast (void (%class.CBFormat*)* @_ZN8CBFormat5ResetEv to i8*), i8* bitcast (void (%class.CBFormat*)* @_ZN8CBFormat7RefreshEv to i8*)] }, align 8
@_ZTV17CAmbisonicEncoder = unnamed_addr constant { [16 x i8*] } { [16 x i8*] [i8* null, i8* bitcast ({ i8*, i8*, i8* }* @_ZTI17CAmbisonicEncoder to i8*), i8* bitcast (void (%class.CAmbisonicEncoder*)* @_ZN17CAmbisonicEncoderD2Ev to i8*), i8* bitcast (void (%class.CAmbisonicEncoder*)* @_ZN17CAmbisonicEncoderD0Ev to i8*), i8* bitcast (i1 (%class.CAmbisonicEncoder*, i32, i1, i32)* @_ZN17CAmbisonicEncoder9ConfigureEjbj to i8*), i8* bitcast (void (%class.CAmbisonicSource*)* @_ZN16CAmbisonicSource5ResetEv to i8*), i8* bitcast (void (%class.CAmbisonicEncoder*)* @_ZN17CAmbisonicEncoder7RefreshEv to i8*), i8* bitcast (void (%class.CAmbisonicSource*, <2 x float>, float)* @_ZN16CAmbisonicSource11SetPositionE10PolarPoint to i8*), i8* bitcast ({ <2 x float>, float } (%class.CAmbisonicSource*)* @_ZN16CAmbisonicSource11GetPositionEv to i8*), i8* bitcast (void (%class.CAmbisonicSource*, i32, float)* @_ZN16CAmbisonicSource14SetOrderWeightEjf to i8*), i8* bitcast (void (%class.CAmbisonicSource*, float)* @_ZN16CAmbisonicSource17SetOrderWeightAllEf to i8*), i8* bitcast (void (%class.CAmbisonicSource*, i32, float)* @_ZN16CAmbisonicSource14SetCoefficientEjf to i8*), i8* bitcast (float (%class.CAmbisonicSource*, i32)* @_ZN16CAmbisonicSource14GetOrderWeightEj to i8*), i8* bitcast (float (%class.CAmbisonicSource*, i32)* @_ZN16CAmbisonicSource14GetCoefficientEj to i8*), i8* bitcast (void (%class.CAmbisonicSource*, float)* @_ZN16CAmbisonicSource7SetGainEf to i8*), i8* bitcast (float (%class.CAmbisonicSource*)* @_ZN16CAmbisonicSource7GetGainEv to i8*)] }, align 8
@_ZTV21CAmbisonicEncoderDist = unnamed_addr constant { [16 x i8*] } { [16 x i8*] [i8* null, i8* bitcast ({ i8*, i8*, i8* }* @_ZTI21CAmbisonicEncoderDist to i8*), i8* bitcast (void (%class.CAmbisonicEncoderDist*)* @_ZN21CAmbisonicEncoderDistD2Ev to i8*), i8* bitcast (void (%class.CAmbisonicEncoderDist*)* @_ZN21CAmbisonicEncoderDistD0Ev to i8*), i8* bitcast (i1 (%class.CAmbisonicEncoderDist*, i32, i1, i32)* @_ZN21CAmbisonicEncoderDist9ConfigureEjbj to i8*), i8* bitcast (void (%class.CAmbisonicEncoderDist*)* @_ZN21CAmbisonicEncoderDist5ResetEv to i8*), i8* bitcast (void (%class.CAmbisonicEncoderDist*)* @_ZN21CAmbisonicEncoderDist7RefreshEv to i8*), i8* bitcast (void (%class.CAmbisonicSource*, <2 x float>, float)* @_ZN16CAmbisonicSource11SetPositionE10PolarPoint to i8*), i8* bitcast ({ <2 x float>, float } (%class.CAmbisonicSource*)* @_ZN16CAmbisonicSource11GetPositionEv to i8*), i8* bitcast (void (%class.CAmbisonicSource*, i32, float)* @_ZN16CAmbisonicSource14SetOrderWeightEjf to i8*), i8* bitcast (void (%class.CAmbisonicSource*, float)* @_ZN16CAmbisonicSource17SetOrderWeightAllEf to i8*), i8* bitcast (void (%class.CAmbisonicSource*, i32, float)* @_ZN16CAmbisonicSource14SetCoefficientEjf to i8*), i8* bitcast (float (%class.CAmbisonicSource*, i32)* @_ZN16CAmbisonicSource14GetOrderWeightEj to i8*), i8* bitcast (float (%class.CAmbisonicSource*, i32)* @_ZN16CAmbisonicSource14GetCoefficientEj to i8*), i8* bitcast (void (%class.CAmbisonicSource*, float)* @_ZN16CAmbisonicSource7SetGainEf to i8*), i8* bitcast (float (%class.CAmbisonicSource*)* @_ZN16CAmbisonicSource7GetGainEv to i8*)] }, align 8
@_ZTV19CAmbisonicProcessor = unnamed_addr constant { [7 x i8*] } { [7 x i8*] [i8* null, i8* bitcast ({ i8*, i8*, i8* }* @_ZTI19CAmbisonicProcessor to i8*), i8* bitcast (void (%class.CAmbisonicProcessor*)* @_ZN19CAmbisonicProcessorD2Ev to i8*), i8* bitcast (void (%class.CAmbisonicProcessor*)* @_ZN19CAmbisonicProcessorD0Ev to i8*), i8* bitcast (i1 (%class.CAmbisonicBase*, i32, i1, i32)* @_ZN14CAmbisonicBase9ConfigureEjbj to i8*), i8* bitcast (void (%class.CAmbisonicProcessor*)* @_ZN19CAmbisonicProcessor5ResetEv to i8*), i8* bitcast (void (%class.CAmbisonicProcessor*)* @_ZN19CAmbisonicProcessor7RefreshEv to i8*)] }, align 8
@_ZL14first_order_3D = internal unnamed_addr constant [2 x [101 x i16]] [[101 x i16] [i16 3, i16 3, i16 3, i16 3, i16 3, i16 3, i16 3, i16 3, i16 3, i16 3, i16 3, i16 2, i16 2, i16 1, i16 0, i16 -1, i16 -3, i16 -5, i16 -7, i16 -10, i16 -13, i16 -17, i16 -21, i16 -25, i16 -30, i16 -35, i16 -41, i16 -47, i16 -54, i16 -60, i16 -67, i16 -75, i16 -82, i16 -90, i16 -97, i16 -105, i16 -113, i16 -120, i16 -127, i16 -134, i16 -141, i16 -147, i16 -153, i16 -158, i16 -163, i16 -167, i16 -170, i16 -173, i16 -175, i16 -176, i16 23040, i16 -176, i16 -175, i16 -173, i16 -170, i16 -167, i16 -163, i16 -158, i16 -153, i16 -147, i16 -141, i16 -134, i16 -127, i16 -120, i16 -113, i16 -105, i16 -97, i16 -90, i16 -82, i16 -75, i16 -67, i16 -60, i16 -54, i16 -47, i16 -41, i16 -35, i16 -30, i16 -25, i16 -21, i16 -17, i16 -13, i16 -10, i16 -7, i16 -5, i16 -3, i16 -1, i16 0, i16 1, i16 2, i16 2, i16 3, i16 3, i16 3, i16 3, i16 3, i16 3, i16 3, i16 3, i16 3, i16 3, i16 3], [101 x i16] [i16 -2, i16 -2, i16 -2, i16 -2, i16 -2, i16 -2, i16 -2, i16 -3, i16 -2, i16 -2, i16 -2, i16 -2, i16 -2, i16 -1, i16 -1, i16 0, i16 1, i16 2, i16 3, i16 5, i16 7, i16 9, i16 11, i16 14, i16 16, i16 19, i16 23, i16 26, i16 30, i16 34, i16 38, i16 42, i16 46, i16 51, i16 55, i16 60, i16 64, i16 68, i16 73, i16 77, i16 80, i16 84, i16 87, i16 90, i16 93, i16 95, i16 97, i16 99, i16 100, i16 101, i16 13438, i16 101, i16 100, i16 99, i16 97, i16 95, i16 93, i16 90, i16 87, i16 84, i16 80, i16 77, i16 73, i16 68, i16 64, i16 60, i16 55, i16 51, i16 46, i16 42, i16 38, i16 34, i16 30, i16 26, i16 23, i16 19, i16 16, i16 14, i16 11, i16 9, i16 7, i16 5, i16 3, i16 2, i16 1, i16 0, i16 -1, i16 -1, i16 -2, i16 -2, i16 -2, i16 -2, i16 -2, i16 -3, i16 -2, i16 -2, i16 -2, i16 -2, i16 -2, i16 -2, i16 -2]], align 16
@_ZL15second_order_3D = internal unnamed_addr constant [3 x [101 x i16]] [[101 x i16] [i16 -5, i16 -5, i16 -6, i16 -6, i16 -7, i16 -7, i16 -7, i16 -7, i16 -7, i16 -6, i16 -5, i16 -3, i16 -1, i16 2, i16 6, i16 10, i16 15, i16 21, i16 26, i16 32, i16 38, i16 44, i16 49, i16 53, i16 55, i16 56, i16 54, i16 50, i16 42, i16 32, i16 19, i16 2, i16 -19, i16 -43, i16 -70, i16 -100, i16 -133, i16 -167, i16 -203, i16 -241, i16 -278, i16 -315, i16 -350, i16 -384, i16 -414, i16 -442, i16 -465, i16 -484, i16 -497, i16 -506, i16 25438, i16 -506, i16 -497, i16 -484, i16 -465, i16 -442, i16 -414, i16 -384, i16 -350, i16 -315, i16 -278, i16 -241, i16 -203, i16 -167, i16 -133, i16 -100, i16 -70, i16 -43, i16 -19, i16 2, i16 19, i16 32, i16 42, i16 50, i16 54, i16 56, i16 55, i16 53, i16 49, i16 44, i16 38, i16 32, i16 26, i16 21, i16 15, i16 10, i16 6, i16 2, i16 -1, i16 -3, i16 -5, i16 -6, i16 -7, i16 -7, i16 -7, i16 -7, i16 -7, i16 -6, i16 -6, i16 -5, i16 -5], [101 x i16] [i16 -2, i16 -2, i16 -3, i16 -3, i16 -3, i16 -3, i16 -3, i16 -3, i16 -3, i16 -3, i16 -2, i16 -2, i16 -1, i16 0, i16 2, i16 4, i16 6, i16 8, i16 10, i16 12, i16 15, i16 17, i16 19, i16 20, i16 21, i16 21, i16 21, i16 19, i16 16, i16 12, i16 7, i16 0, i16 -8, i16 -17, i16 -27, i16 -39, i16 -52, i16 -65, i16 -79, i16 -94, i16 -108, i16 -123, i16 -136, i16 -149, i16 -161, i16 -172, i16 -181, i16 -188, i16 -194, i16 -197, i16 19884, i16 -197, i16 -194, i16 -188, i16 -181, i16 -172, i16 -161, i16 -149, i16 -136, i16 -123, i16 -108, i16 -94, i16 -79, i16 -65, i16 -52, i16 -39, i16 -27, i16 -17, i16 -8, i16 0, i16 7, i16 12, i16 16, i16 19, i16 21, i16 21, i16 21, i16 20, i16 19, i16 17, i16 15, i16 12, i16 10, i16 8, i16 6, i16 4, i16 2, i16 0, i16 -1, i16 -2, i16 -2, i16 -3, i16 -3, i16 -3, i16 -3, i16 -3, i16 -3, i16 -3, i16 -3, i16 -2, i16 -2], [101 x i16] [i16 2, i16 3, i16 3, i16 3, i16 3, i16 4, i16 4, i16 4, i16 4, i16 3, i16 2, i16 1, i16 0, i16 -2, i16 -4, i16 -7, i16 -10, i16 -14, i16 -17, i16 -21, i16 -25, i16 -28, i16 -31, i16 -34, i16 -35, i16 -36, i16 -35, i16 -32, i16 -27, i16 -21, i16 -12, i16 -2, i16 11, i16 26, i16 43, i16 62, i16 82, i16 104, i16 127, i16 150, i16 173, i16 196, i16 219, i16 240, i16 259, i16 276, i16 290, i16 302, i16 311, i16 316, i16 10659, i16 316, i16 311, i16 302, i16 290, i16 276, i16 259, i16 240, i16 219, i16 196, i16 173, i16 150, i16 127, i16 104, i16 82, i16 62, i16 43, i16 26, i16 11, i16 -2, i16 -12, i16 -21, i16 -27, i16 -32, i16 -35, i16 -36, i16 -35, i16 -34, i16 -31, i16 -28, i16 -25, i16 -21, i16 -17, i16 -14, i16 -10, i16 -7, i16 -4, i16 -2, i16 0, i16 1, i16 2, i16 3, i16 4, i16 4, i16 4, i16 4, i16 3, i16 3, i16 3, i16 3, i16 2]], align 16
@_ZL14first_order_2D = internal unnamed_addr constant [2 x [101 x i16]] [[101 x i16] [i16 1, i16 1, i16 1, i16 1, i16 1, i16 1, i16 1, i16 1, i16 1, i16 1, i16 1, i16 1, i16 1, i16 0, i16 0, i16 -1, i16 -2, i16 -3, i16 -4, i16 -5, i16 -7, i16 -9, i16 -10, i16 -13, i16 -15, i16 -18, i16 -21, i16 -24, i16 -27, i16 -30, i16 -34, i16 -37, i16 -41, i16 -45, i16 -49, i16 -52, i16 -56, i16 -60, i16 -63, i16 -67, i16 -70, i16 -73, i16 -76, i16 -79, i16 -81, i16 -83, i16 -85, i16 -86, i16 -87, i16 -88, i16 19968, i16 -88, i16 -87, i16 -86, i16 -85, i16 -83, i16 -81, i16 -79, i16 -76, i16 -73, i16 -70, i16 -67, i16 -63, i16 -60, i16 -56, i16 -52, i16 -49, i16 -45, i16 -41, i16 -37, i16 -34, i16 -30, i16 -27, i16 -24, i16 -21, i16 -18, i16 -15, i16 -13, i16 -10, i16 -9, i16 -7, i16 -5, i16 -4, i16 -3, i16 -2, i16 -1, i16 0, i16 0, i16 1, i16 1, i16 1, i16 1, i16 1, i16 1, i16 1, i16 1, i16 1, i16 1, i16 1, i16 1, i16 1], [101 x i16] [i16 -2, i16 -2, i16 -2, i16 -2, i16 -2, i16 -2, i16 -2, i16 -2, i16 -2, i16 -2, i16 -2, i16 -2, i16 -1, i16 -1, i16 -1, i16 0, i16 1, i16 1, i16 2, i16 4, i16 5, i16 7, i16 8, i16 10, i16 12, i16 15, i16 17, i16 20, i16 23, i16 26, i16 29, i16 32, i16 35, i16 39, i16 42, i16 46, i16 49, i16 52, i16 55, i16 58, i16 61, i16 64, i16 67, i16 69, i16 71, i16 73, i16 74, i16 76, i16 76, i16 77, i16 14259, i16 77, i16 76, i16 76, i16 74, i16 73, i16 71, i16 69, i16 67, i16 64, i16 61, i16 58, i16 55, i16 52, i16 49, i16 46, i16 42, i16 39, i16 35, i16 32, i16 29, i16 26, i16 23, i16 20, i16 17, i16 15, i16 12, i16 10, i16 8, i16 7, i16 5, i16 4, i16 2, i16 1, i16 1, i16 0, i16 -1, i16 -1, i16 -1, i16 -2, i16 -2, i16 -2, i16 -2, i16 -2, i16 -2, i16 -2, i16 -2, i16 -2, i16 -2, i16 -2, i16 -2]], align 16
@_ZL15second_order_2D = internal unnamed_addr constant [3 x [101 x i16]] [[101 x i16] [i16 -3, i16 -3, i16 -3, i16 -3, i16 -4, i16 -4, i16 -4, i16 -4, i16 -4, i16 -3, i16 -3, i16 -2, i16 -1, i16 1, i16 3, i16 5, i16 7, i16 10, i16 13, i16 16, i16 19, i16 22, i16 24, i16 26, i16 27, i16 28, i16 27, i16 25, i16 21, i16 16, i16 9, i16 1, i16 -10, i16 -22, i16 -35, i16 -50, i16 -67, i16 -84, i16 -102, i16 -121, i16 -139, i16 -158, i16 -176, i16 -192, i16 -208, i16 -222, i16 -233, i16 -243, i16 -249, i16 -254, i16 20905, i16 -254, i16 -249, i16 -243, i16 -233, i16 -222, i16 -208, i16 -192, i16 -176, i16 -158, i16 -139, i16 -121, i16 -102, i16 -84, i16 -67, i16 -50, i16 -35, i16 -22, i16 -10, i16 1, i16 9, i16 16, i16 21, i16 25, i16 27, i16 28, i16 27, i16 26, i16 24, i16 22, i16 19, i16 16, i16 13, i16 10, i16 7, i16 5, i16 3, i16 1, i16 -1, i16 -2, i16 -3, i16 -3, i16 -4, i16 -4, i16 -4, i16 -4, i16 -4, i16 -3, i16 -3, i16 -3, i16 -3], [101 x i16] [i16 -1, i16 -1, i16 -2, i16 -2, i16 -2, i16 -2, i16 -2, i16 -2, i16 -2, i16 -2, i16 -1, i16 -1, i16 -1, i16 0, i16 1, i16 2, i16 3, i16 4, i16 5, i16 6, i16 8, i16 9, i16 10, i16 10, i16 11, i16 11, i16 11, i16 10, i16 8, i16 6, i16 3, i16 0, i16 -4, i16 -9, i16 -15, i16 -21, i16 -28, i16 -35, i16 -42, i16 -50, i16 -58, i16 -65, i16 -72, i16 -79, i16 -86, i16 -91, i16 -96, i16 -100, i16 -103, i16 -104, i16 18220, i16 -104, i16 -103, i16 -100, i16 -96, i16 -91, i16 -86, i16 -79, i16 -72, i16 -65, i16 -58, i16 -50, i16 -42, i16 -35, i16 -28, i16 -21, i16 -15, i16 -9, i16 -4, i16 0, i16 3, i16 6, i16 8, i16 10, i16 11, i16 11, i16 11, i16 10, i16 10, i16 9, i16 8, i16 6, i16 5, i16 4, i16 3, i16 2, i16 1, i16 0, i16 -1, i16 -1, i16 -1, i16 -2, i16 -2, i16 -2, i16 -2, i16 -2, i16 -2, i16 -2, i16 -2, i16 -1, i16 -1], [101 x i16] [i16 2, i16 2, i16 3, i16 3, i16 3, i16 3, i16 4, i16 4, i16 3, i16 3, i16 2, i16 1, i16 0, i16 -2, i16 -4, i16 -7, i16 -10, i16 -13, i16 -17, i16 -20, i16 -24, i16 -27, i16 -30, i16 -33, i16 -34, i16 -34, i16 -33, i16 -31, i16 -26, i16 -20, i16 -12, i16 -2, i16 11, i16 25, i16 41, i16 59, i16 79, i16 100, i16 122, i16 144, i16 166, i16 189, i16 210, i16 230, i16 249, i16 265, i16 279, i16 290, i16 298, i16 303, i16 10885, i16 303, i16 298, i16 290, i16 279, i16 265, i16 249, i16 230, i16 210, i16 189, i16 166, i16 144, i16 122, i16 100, i16 79, i16 59, i16 41, i16 25, i16 11, i16 -2, i16 -12, i16 -20, i16 -26, i16 -31, i16 -33, i16 -34, i16 -34, i16 -33, i16 -30, i16 -27, i16 -24, i16 -20, i16 -17, i16 -13, i16 -10, i16 -7, i16 -4, i16 -2, i16 0, i16 1, i16 2, i16 3, i16 3, i16 4, i16 4, i16 3, i16 3, i16 3, i16 3, i16 2, i16 2]], align 16
@_ZL14third_order_2D = internal unnamed_addr constant [4 x [101 x i16]] [[101 x i16] [i16 0, i16 1, i16 2, i16 2, i16 3, i16 3, i16 4, i16 4, i16 4, i16 3, i16 2, i16 0, i16 -2, i16 -4, i16 -7, i16 -10, i16 -13, i16 -16, i16 -18, i16 -20, i16 -20, i16 -18, i16 -15, i16 -10, i16 -3, i16 6, i16 16, i16 26, i16 37, i16 47, i16 56, i16 62, i16 64, i16 63, i16 57, i16 45, i16 27, i16 3, i16 -26, i16 -60, i16 -98, i16 -140, i16 -183, i16 -226, i16 -268, i16 -307, i16 -342, i16 -370, i16 -391, i16 -404, i16 21262, i16 -404, i16 -391, i16 -370, i16 -342, i16 -307, i16 -268, i16 -226, i16 -183, i16 -140, i16 -98, i16 -60, i16 -26, i16 3, i16 27, i16 45, i16 57, i16 63, i16 64, i16 62, i16 56, i16 47, i16 37, i16 26, i16 16, i16 6, i16 -3, i16 -10, i16 -15, i16 -18, i16 -20, i16 -20, i16 -18, i16 -16, i16 -13, i16 -10, i16 -7, i16 -4, i16 -2, i16 0, i16 2, i16 3, i16 4, i16 4, i16 4, i16 3, i16 3, i16 2, i16 2, i16 1, i16 0], [101 x i16] [i16 0, i16 1, i16 1, i16 1, i16 2, i16 2, i16 2, i16 2, i16 2, i16 2, i16 1, i16 0, i16 -1, i16 -3, i16 -5, i16 -7, i16 -9, i16 -11, i16 -13, i16 -14, i16 -14, i16 -13, i16 -10, i16 -7, i16 -2, i16 4, i16 10, i16 18, i16 25, i16 32, i16 38, i16 42, i16 44, i16 43, i16 39, i16 30, i16 18, i16 2, i16 -18, i16 -41, i16 -68, i16 -96, i16 -126, i16 -155, i16 -184, i16 -211, i16 -234, i16 -254, i16 -268, i16 -277, i16 19741, i16 -277, i16 -268, i16 -254, i16 -234, i16 -211, i16 -184, i16 -155, i16 -126, i16 -96, i16 -68, i16 -41, i16 -18, i16 2, i16 18, i16 30, i16 39, i16 43, i16 44, i16 42, i16 38, i16 32, i16 25, i16 18, i16 10, i16 4, i16 -2, i16 -7, i16 -10, i16 -13, i16 -14, i16 -14, i16 -13, i16 -11, i16 -9, i16 -7, i16 -5, i16 -3, i16 -1, i16 0, i16 1, i16 2, i16 2, i16 2, i16 2, i16 2, i16 2, i16 1, i16 1, i16 1, i16 0], [101 x i16] [i16 -1, i16 -1, i16 -1, i16 -1, i16 -1, i16 -1, i16 -1, i16 -1, i16 -1, i16 -1, i16 -1, i16 -1, i16 0, i16 0, i16 1, i16 2, i16 2, i16 3, i16 3, i16 4, i16 4, i16 3, i16 3, i16 1, i16 0, i16 -2, i16 -4, i16 -6, i16 -8, i16 -10, i16 -12, i16 -14, i16 -14, i16 -14, i16 -12, i16 -10, i16 -6, i16 -1, i16 5, i16 12, i16 20, i16 29, i16 38, i16 47, i16 56, i16 64, i16 71, i16 77, i16 82, i16 84, i16 15409, i16 84, i16 82, i16 77, i16 71, i16 64, i16 56, i16 47, i16 38, i16 29, i16 20, i16 12, i16 5, i16 -1, i16 -6, i16 -10, i16 -12, i16 -14, i16 -14, i16 -14, i16 -12, i16 -10, i16 -8, i16 -6, i16 -4, i16 -2, i16 0, i16 1, i16 3, i16 3, i16 4, i16 4, i16 3, i16 3, i16 2, i16 2, i16 1, i16 0, i16 0, i16 -1, i16 -1, i16 -1, i16 -1, i16 -1, i16 -1, i16 -1, i16 -1, i16 -1, i16 -1, i16 -1, i16 -1], [101 x i16] [i16 -2, i16 -3, i16 -4, i16 -5, i16 -6, i16 -6, i16 -7, i16 -7, i16 -7, i16 -6, i16 -4, i16 -2, i16 1, i16 5, i16 10, i16 15, i16 20, i16 24, i16 27, i16 29, i16 29, i16 27, i16 22, i16 14, i16 3, i16 -10, i16 -25, i16 -42, i16 -58, i16 -74, i16 -87, i16 -97, i16 -101, i16 -99, i16 -89, i16 -71, i16 -43, i16 -7, i16 39, i16 92, i16 151, i16 215, i16 282, i16 350, i16 415, i16 475, i16 528, i16 572, i16 605, i16 625, i16 8926, i16 625, i16 605, i16 572, i16 528, i16 475, i16 415, i16 350, i16 282, i16 215, i16 151, i16 92, i16 39, i16 -7, i16 -43, i16 -71, i16 -89, i16 -99, i16 -101, i16 -97, i16 -87, i16 -74, i16 -58, i16 -42, i16 -25, i16 -10, i16 3, i16 14, i16 22, i16 27, i16 29, i16 29, i16 27, i16 24, i16 20, i16 15, i16 10, i16 5, i16 1, i16 -2, i16 -4, i16 -6, i16 -7, i16 -7, i16 -7, i16 -6, i16 -6, i16 -5, i16 -4, i16 -3, i16 -2]], align 16
@_ZTV17CAmbisonicSpeaker = unnamed_addr constant { [16 x i8*] } { [16 x i8*] [i8* null, i8* bitcast ({ i8*, i8*, i8* }* @_ZTI17CAmbisonicSpeaker to i8*), i8* bitcast (void (%class.CAmbisonicSpeaker*)* @_ZN17CAmbisonicSpeakerD2Ev to i8*), i8* bitcast (void (%class.CAmbisonicSpeaker*)* @_ZN17CAmbisonicSpeakerD0Ev to i8*), i8* bitcast (i1 (%class.CAmbisonicSpeaker*, i32, i1, i32)* @_ZN17CAmbisonicSpeaker9ConfigureEjbj to i8*), i8* bitcast (void (%class.CAmbisonicSource*)* @_ZN16CAmbisonicSource5ResetEv to i8*), i8* bitcast (void (%class.CAmbisonicSpeaker*)* @_ZN17CAmbisonicSpeaker7RefreshEv to i8*), i8* bitcast (void (%class.CAmbisonicSource*, <2 x float>, float)* @_ZN16CAmbisonicSource11SetPositionE10PolarPoint to i8*), i8* bitcast ({ <2 x float>, float } (%class.CAmbisonicSource*)* @_ZN16CAmbisonicSource11GetPositionEv to i8*), i8* bitcast (void (%class.CAmbisonicSource*, i32, float)* @_ZN16CAmbisonicSource14SetOrderWeightEjf to i8*), i8* bitcast (void (%class.CAmbisonicSource*, float)* @_ZN16CAmbisonicSource17SetOrderWeightAllEf to i8*), i8* bitcast (void (%class.CAmbisonicSource*, i32, float)* @_ZN16CAmbisonicSource14SetCoefficientEjf to i8*), i8* bitcast (float (%class.CAmbisonicSource*, i32)* @_ZN16CAmbisonicSource14GetOrderWeightEj to i8*), i8* bitcast (float (%class.CAmbisonicSource*, i32)* @_ZN16CAmbisonicSource14GetCoefficientEj to i8*), i8* bitcast (void (%class.CAmbisonicSource*, float)* @_ZN16CAmbisonicSource7SetGainEf to i8*), i8* bitcast (float (%class.CAmbisonicSource*)* @_ZN16CAmbisonicSource7GetGainEv to i8*)] }, align 8
@_ZTV17CAmbisonicDecoder = unnamed_addr constant { [8 x i8*] } { [8 x i8*] [i8* null, i8* bitcast ({ i8*, i8*, i8* }* @_ZTI17CAmbisonicDecoder to i8*), i8* bitcast (void (%class.CAmbisonicDecoder*)* @_ZN17CAmbisonicDecoderD2Ev to i8*), i8* bitcast (void (%class.CAmbisonicDecoder*)* @_ZN17CAmbisonicDecoderD0Ev to i8*), i8* bitcast (i1 (%class.CAmbisonicBase*, i32, i1, i32)* @_ZN14CAmbisonicBase9ConfigureEjbj to i8*), i8* bitcast (void (%class.CAmbisonicDecoder*)* @_ZN17CAmbisonicDecoder5ResetEv to i8*), i8* bitcast (void (%class.CAmbisonicDecoder*)* @_ZN17CAmbisonicDecoder7RefreshEv to i8*), i8* bitcast (float (%class.CAmbisonicDecoder*, i32, i32)* @_ZN17CAmbisonicDecoder14GetCoefficientEjj to i8*)] }, align 8
@_ZTV16CAmbisonicZoomer = unnamed_addr constant { [7 x i8*] } { [7 x i8*] [i8* null, i8* bitcast ({ i8*, i8*, i8* }* @_ZTI16CAmbisonicZoomer to i8*), i8* bitcast (void (%class.CAmbisonicZoomer*)* @_ZN16CAmbisonicZoomerD2Ev to i8*), i8* bitcast (void (%class.CAmbisonicZoomer*)* @_ZN16CAmbisonicZoomerD0Ev to i8*), i8* bitcast (i1 (%class.CAmbisonicZoomer*, i32, i1, i32)* @_ZN16CAmbisonicZoomer9ConfigureEjbj to i8*), i8* bitcast (void (%class.CAmbisonicZoomer*)* @_ZN16CAmbisonicZoomer5ResetEv to i8*), i8* bitcast (void (%class.CAmbisonicZoomer*)* @_ZN16CAmbisonicZoomer7RefreshEv to i8*)] }, align 8
@_ZTV22CAmbisonicBinauralizer = unnamed_addr constant { [10 x i8*] } { [10 x i8*] [i8* null, i8* bitcast ({ i8*, i8*, i8* }* @_ZTI22CAmbisonicBinauralizer to i8*), i8* bitcast (void (%class.CAmbisonicBinauralizer*)* @_ZN22CAmbisonicBinauralizerD2Ev to i8*), i8* bitcast (void (%class.CAmbisonicBinauralizer*)* @_ZN22CAmbisonicBinauralizerD0Ev to i8*), i8* bitcast (i1 (%class.CAmbisonicBase*, i32, i1, i32)* @_ZN14CAmbisonicBase9ConfigureEjbj to i8*), i8* bitcast (void (%class.CAmbisonicBinauralizer*)* @_ZN22CAmbisonicBinauralizer5ResetEv to i8*), i8* bitcast (void (%class.CAmbisonicBinauralizer*)* @_ZN22CAmbisonicBinauralizer7RefreshEv to i8*), i8* bitcast (i1 (%class.CAmbisonicBinauralizer*, i32, i1, i32, i32, i32*, %"class.std::__cxx11::basic_string"*)* @_ZN22CAmbisonicBinauralizer9ConfigureEjbjjRjNSt7__cxx1112basic_stringIcSt11char_traitsIcESaIcEEE to i8*), i8* bitcast (void (%class.CAmbisonicBinauralizer*)* @_ZN22CAmbisonicBinauralizer15ArrangeSpeakersEv to i8*), i8* bitcast (void (%class.CAmbisonicBinauralizer*)* @_ZN22CAmbisonicBinauralizer15AllocateBuffersEv to i8*)] }, align 8
@_ZSt4cout = external global %"class.std::basic_ostream", align 8
@.str = private unnamed_addr constant [25 x i8] c"Getting first order cube\00", align 1
@.str.1 = private unnamed_addr constant [40 x i8] c"Getting second/third order dodecahedron\00", align 1
@.str.4 = private unnamed_addr constant [26 x i8] c"samples/lectureSample.wav\00", align 1
@.str.5 = private unnamed_addr constant [29 x i8] c"samples/radioMusicSample.wav\00", align 1
@_ZZN12ILLIXR_AUDIO7ABAudio14updateRotationEvE5frame = internal unnamed_addr global i32 0, align 4
@_ZZN12ILLIXR_AUDIO7ABAudio10updateZoomEvE5frame = internal unnamed_addr global i32 0, align 4
@_ZZ14rotatorSet_fxpE5frame = internal unnamed_addr global i32 0, align 4
@_ZZ11zoomSet_fxpE5frame = internal unnamed_addr global i32 0, align 4
@.str.6 = private unnamed_addr constant [8 x i8] c"Usage: \00", align 1
@.str.7 = private unnamed_addr constant [42 x i8] c" <number of size 1024 blocks to process> \00", align 1
@.str.8 = private unnamed_addr constant [27 x i8] c"<optional: encode/decode>\0A\00", align 1
@.str.9 = private unnamed_addr constant [122 x i8] c"Note: If you want to hear the output sound, limit the process sample blocks so that the output is not longer than input!\0A\00", align 1
@.str.10 = private unnamed_addr constant [11 x i8] c"output.wav\00", align 1
@_ZTVN10__cxxabiv120__si_class_type_infoE = external global i8*
@_ZTS8MIT_HRTF = constant [10 x i8] c"8MIT_HRTF\00", align 1
@_ZTVN10__cxxabiv117__class_type_infoE = external global i8*
@_ZTS4HRTF = linkonce_odr constant [6 x i8] c"4HRTF\00", comdat, align 1
@_ZTI4HRTF = linkonce_odr constant { i8*, i8* } { i8* bitcast (i8** getelementptr inbounds (i8*, i8** @_ZTVN10__cxxabiv117__class_type_infoE, i64 2) to i8*), i8* getelementptr inbounds ([6 x i8], [6 x i8]* @_ZTS4HRTF, i32 0, i32 0) }, comdat, align 8
@_ZTI8MIT_HRTF = constant { i8*, i8*, i8* } { i8* bitcast (i8** getelementptr inbounds (i8*, i8** @_ZTVN10__cxxabiv120__si_class_type_infoE, i64 2) to i8*), i8* getelementptr inbounds ([10 x i8], [10 x i8]* @_ZTS8MIT_HRTF, i32 0, i32 0), i8* bitcast ({ i8*, i8* }* @_ZTI4HRTF to i8*) }, align 8
@_ZTS14CAmbisonicBase = constant [17 x i8] c"14CAmbisonicBase\00", align 1
@_ZTI14CAmbisonicBase = constant { i8*, i8* } { i8* bitcast (i8** getelementptr inbounds (i8*, i8** @_ZTVN10__cxxabiv117__class_type_infoE, i64 2) to i8*), i8* getelementptr inbounds ([17 x i8], [17 x i8]* @_ZTS14CAmbisonicBase, i32 0, i32 0) }, align 8
@_ZTS16CAmbisonicSource = constant [19 x i8] c"16CAmbisonicSource\00", align 1
@_ZTI16CAmbisonicSource = constant { i8*, i8*, i8* } { i8* bitcast (i8** getelementptr inbounds (i8*, i8** @_ZTVN10__cxxabiv120__si_class_type_infoE, i64 2) to i8*), i8* getelementptr inbounds ([19 x i8], [19 x i8]* @_ZTS16CAmbisonicSource, i32 0, i32 0), i8* bitcast ({ i8*, i8* }* @_ZTI14CAmbisonicBase to i8*) }, align 8
@_ZTS8CBFormat = constant [10 x i8] c"8CBFormat\00", align 1
@_ZTI8CBFormat = constant { i8*, i8*, i8* } { i8* bitcast (i8** getelementptr inbounds (i8*, i8** @_ZTVN10__cxxabiv120__si_class_type_infoE, i64 2) to i8*), i8* getelementptr inbounds ([10 x i8], [10 x i8]* @_ZTS8CBFormat, i32 0, i32 0), i8* bitcast ({ i8*, i8* }* @_ZTI14CAmbisonicBase to i8*) }, align 8
@_ZTS17CAmbisonicEncoder = constant [20 x i8] c"17CAmbisonicEncoder\00", align 1
@_ZTI17CAmbisonicEncoder = constant { i8*, i8*, i8* } { i8* bitcast (i8** getelementptr inbounds (i8*, i8** @_ZTVN10__cxxabiv120__si_class_type_infoE, i64 2) to i8*), i8* getelementptr inbounds ([20 x i8], [20 x i8]* @_ZTS17CAmbisonicEncoder, i32 0, i32 0), i8* bitcast ({ i8*, i8*, i8* }* @_ZTI16CAmbisonicSource to i8*) }, align 8
@_ZTS21CAmbisonicEncoderDist = constant [24 x i8] c"21CAmbisonicEncoderDist\00", align 1
@_ZTI21CAmbisonicEncoderDist = constant { i8*, i8*, i8* } { i8* bitcast (i8** getelementptr inbounds (i8*, i8** @_ZTVN10__cxxabiv120__si_class_type_infoE, i64 2) to i8*), i8* getelementptr inbounds ([24 x i8], [24 x i8]* @_ZTS21CAmbisonicEncoderDist, i32 0, i32 0), i8* bitcast ({ i8*, i8*, i8* }* @_ZTI17CAmbisonicEncoder to i8*) }, align 8
@_ZTS19CAmbisonicProcessor = constant [22 x i8] c"19CAmbisonicProcessor\00", align 1
@_ZTI19CAmbisonicProcessor = constant { i8*, i8*, i8* } { i8* bitcast (i8** getelementptr inbounds (i8*, i8** @_ZTVN10__cxxabiv120__si_class_type_infoE, i64 2) to i8*), i8* getelementptr inbounds ([22 x i8], [22 x i8]* @_ZTS19CAmbisonicProcessor, i32 0, i32 0), i8* bitcast ({ i8*, i8* }* @_ZTI14CAmbisonicBase to i8*) }, align 8
@_ZTS17CAmbisonicSpeaker = constant [20 x i8] c"17CAmbisonicSpeaker\00", align 1
@_ZTI17CAmbisonicSpeaker = constant { i8*, i8*, i8* } { i8* bitcast (i8** getelementptr inbounds (i8*, i8** @_ZTVN10__cxxabiv120__si_class_type_infoE, i64 2) to i8*), i8* getelementptr inbounds ([20 x i8], [20 x i8]* @_ZTS17CAmbisonicSpeaker, i32 0, i32 0), i8* bitcast ({ i8*, i8*, i8* }* @_ZTI16CAmbisonicSource to i8*) }, align 8
@_ZTS17CAmbisonicDecoder = constant [20 x i8] c"17CAmbisonicDecoder\00", align 1
@_ZTI17CAmbisonicDecoder = constant { i8*, i8*, i8* } { i8* bitcast (i8** getelementptr inbounds (i8*, i8** @_ZTVN10__cxxabiv120__si_class_type_infoE, i64 2) to i8*), i8* getelementptr inbounds ([20 x i8], [20 x i8]* @_ZTS17CAmbisonicDecoder, i32 0, i32 0), i8* bitcast ({ i8*, i8* }* @_ZTI14CAmbisonicBase to i8*) }, align 8
@_ZTS16CAmbisonicZoomer = constant [19 x i8] c"16CAmbisonicZoomer\00", align 1
@_ZTI16CAmbisonicZoomer = constant { i8*, i8*, i8* } { i8* bitcast (i8** getelementptr inbounds (i8*, i8** @_ZTVN10__cxxabiv120__si_class_type_infoE, i64 2) to i8*), i8* getelementptr inbounds ([19 x i8], [19 x i8]* @_ZTS16CAmbisonicZoomer, i32 0, i32 0), i8* bitcast ({ i8*, i8* }* @_ZTI14CAmbisonicBase to i8*) }, align 8
@_ZTS22CAmbisonicBinauralizer = constant [25 x i8] c"22CAmbisonicBinauralizer\00", align 1
@_ZTI22CAmbisonicBinauralizer = constant { i8*, i8*, i8* } { i8* bitcast (i8** getelementptr inbounds (i8*, i8** @_ZTVN10__cxxabiv120__si_class_type_infoE, i64 2) to i8*), i8* getelementptr inbounds ([25 x i8], [25 x i8]* @_ZTS22CAmbisonicBinauralizer, i32 0, i32 0), i8* bitcast ({ i8*, i8* }* @_ZTI14CAmbisonicBase to i8*) }, align 8
@_ZL14third_order_3D = internal unnamed_addr constant <{ [101 x i16], [101 x i16], <{ [89 x i16], [12 x i16] }>, [101 x i16] }> <{ [101 x i16] [i16 1, i16 3, i16 4, i16 5, i16 6, i16 8, i16 8, i16 8, i16 8, i16 7, i16 5, i16 1, i16 -3, i16 -8, i16 -15, i16 -21, i16 -28, i16 -34, i16 -38, i16 -41, i16 -41, i16 -38, i16 -31, i16 -20, i16 -5, i16 13, i16 33, i16 56, i16 78, i16 99, i16 117, i16 130, i16 136, i16 133, i16 120, i16 95, i16 57, i16 8, i16 -54, i16 -126, i16 -206, i16 -294, i16 -384, i16 -476, i16 -564, i16 -646, i16 -718, i16 -778, i16 -823, i16 -850, i16 26604, i16 -850, i16 -823, i16 -778, i16 -718, i16 -646, i16 -564, i16 -476, i16 -384, i16 -294, i16 -206, i16 -126, i16 -54, i16 8, i16 57, i16 95, i16 120, i16 133, i16 136, i16 130, i16 117, i16 99, i16 78, i16 56, i16 33, i16 13, i16 -5, i16 -20, i16 -31, i16 -38, i16 -41, i16 -41, i16 -38, i16 -34, i16 -28, i16 -21, i16 -15, i16 -8, i16 -3, i16 1, i16 5, i16 7, i16 8, i16 8, i16 8, i16 8, i16 6, i16 5, i16 4, i16 3, i16 1], [101 x i16] [i16 1, i16 2, i16 2, i16 3, i16 4, i16 5, i16 5, i16 5, i16 5, i16 4, i16 3, i16 1, i16 -2, i16 -6, i16 -10, i16 -14, i16 -18, i16 -22, i16 -25, i16 -27, i16 -27, i16 -25, i16 -20, i16 -13, i16 -4, i16 8, i16 22, i16 36, i16 51, i16 65, i16 77, i16 85, i16 89, i16 87, i16 78, i16 62, i16 37, i16 5, i16 -35, i16 -82, i16 -135, i16 -192, i16 -252, i16 -311, i16 -369, i16 -423, i16 -470, i16 -509, i16 -538, i16 -556, i16 23082, i16 -556, i16 -538, i16 -509, i16 -470, i16 -423, i16 -369, i16 -311, i16 -252, i16 -192, i16 -135, i16 -82, i16 -35, i16 5, i16 37, i16 62, i16 78, i16 87, i16 89, i16 85, i16 77, i16 65, i16 51, i16 36, i16 22, i16 8, i16 -4, i16 -13, i16 -20, i16 -25, i16 -27, i16 -27, i16 -25, i16 -22, i16 -18, i16 -14, i16 -10, i16 -6, i16 -2, i16 1, i16 3, i16 4, i16 5, i16 5, i16 5, i16 5, i16 4, i16 3, i16 2, i16 2, i16 1], <{ [89 x i16], [12 x i16] }> <{ [89 x i16] [i16 0, i16 0, i16 0, i16 0, i16 0, i16 0, i16 0, i16 0, i16 0, i16 0, i16 0, i16 0, i16 -1, i16 -1, i16 -1, i16 -1, i16 -1, i16 -2, i16 -2, i16 -2, i16 -2, i16 -2, i16 -2, i16 -1, i16 -1, i16 0, i16 1, i16 1, i16 2, i16 3, i16 4, i16 4, i16 4, i16 4, i16 4, i16 3, i16 1, i16 0, i16 -2, i16 -5, i16 -8, i16 -11, i16 -14, i16 -17, i16 -20, i16 -23, i16 -25, i16 -27, i16 -29, i16 -30, i16 16773, i16 -30, i16 -29, i16 -27, i16 -25, i16 -23, i16 -20, i16 -17, i16 -14, i16 -11, i16 -8, i16 -5, i16 -2, i16 0, i16 1, i16 3, i16 4, i16 4, i16 4, i16 4, i16 4, i16 3, i16 2, i16 1, i16 1, i16 0, i16 -1, i16 -1, i16 -2, i16 -2, i16 -2, i16 -2, i16 -2, i16 -2, i16 -1, i16 -1, i16 -1, i16 -1, i16 -1], [12 x i16] zeroinitializer }>, [101 x i16] [i16 -2, i16 -3, i16 -4, i16 -5, i16 -6, i16 -6, i16 -7, i16 -7, i16 -7, i16 -6, i16 -4, i16 -2, i16 1, i16 5, i16 10, i16 15, i16 19, i16 24, i16 27, i16 29, i16 29, i16 27, i16 22, i16 14, i16 3, i16 -10, i16 -25, i16 -42, i16 -58, i16 -74, i16 -87, i16 -96, i16 -101, i16 -98, i16 -88, i16 -70, i16 -43, i16 -7, i16 38, i16 91, i16 150, i16 214, i16 280, i16 347, i16 412, i16 472, i16 525, i16 568, i16 601, i16 621, i16 8977, i16 621, i16 601, i16 568, i16 525, i16 472, i16 412, i16 347, i16 280, i16 214, i16 150, i16 91, i16 38, i16 -7, i16 -43, i16 -70, i16 -88, i16 -98, i16 -101, i16 -96, i16 -87, i16 -74, i16 -58, i16 -42, i16 -25, i16 -10, i16 3, i16 14, i16 22, i16 27, i16 29, i16 29, i16 27, i16 24, i16 19, i16 15, i16 10, i16 5, i16 1, i16 -2, i16 -4, i16 -6, i16 -7, i16 -7, i16 -7, i16 -6, i16 -6, i16 -5, i16 -4, i16 -3, i16 -2] }>, align 16
@.str.12 = private unnamed_addr constant [42 x i8] c"basic_string::_M_construct null not valid\00", align 1
@.str.14 = private unnamed_addr constant [23 x i8] c"vector::_M_fill_insert\00", align 1
@.str.15 = private unnamed_addr constant [26 x i8] c"vector::_M_default_append\00", align 1
@.str.16 = private unnamed_addr constant [26 x i8] c"vector::_M_realloc_insert\00", align 1
@llvm.global_ctors = appending global [1 x { i32, void ()*, i8* }] [{ i32, void ()*, i8* } { i32 65535, void ()* @_GLOBAL__sub_I_main.cpp, i8* null }]
@str = private unnamed_addr constant [35 x i8] c"Binauralizer Configuration failed!\00", align 1

@_ZN8MIT_HRTFC1Ej = unnamed_addr alias void (%class.MIT_HRTF*, i32), void (%class.MIT_HRTF*, i32)* @_ZN8MIT_HRTFC2Ej
@_ZN16CAmbisonicSourceC1Ev = unnamed_addr alias void (%class.CAmbisonicSource*), void (%class.CAmbisonicSource*)* @_ZN16CAmbisonicSourceC2Ev
@_ZN8CBFormatC1Ev = unnamed_addr alias void (%class.CBFormat*), void (%class.CBFormat*)* @_ZN8CBFormatC2Ev
@_ZN17CAmbisonicEncoderC1Ev = unnamed_addr alias void (%class.CAmbisonicEncoder*), void (%class.CAmbisonicEncoder*)* @_ZN17CAmbisonicEncoderC2Ev
@_ZN17CAmbisonicEncoderD1Ev = unnamed_addr alias void (%class.CAmbisonicEncoder*), void (%class.CAmbisonicEncoder*)* @_ZN17CAmbisonicEncoderD2Ev
@_ZN21CAmbisonicEncoderDistC1Ev = unnamed_addr alias void (%class.CAmbisonicEncoderDist*), void (%class.CAmbisonicEncoderDist*)* @_ZN21CAmbisonicEncoderDistC2Ev
@_ZN21CAmbisonicEncoderDistD1Ev = unnamed_addr alias void (%class.CAmbisonicEncoderDist*), void (%class.CAmbisonicEncoderDist*)* @_ZN21CAmbisonicEncoderDistD2Ev
@_ZN19CAmbisonicProcessorC1Ev = unnamed_addr alias void (%class.CAmbisonicProcessor*), void (%class.CAmbisonicProcessor*)* @_ZN19CAmbisonicProcessorC2Ev
@_ZN19CAmbisonicProcessorD1Ev = unnamed_addr alias void (%class.CAmbisonicProcessor*), void (%class.CAmbisonicProcessor*)* @_ZN19CAmbisonicProcessorD2Ev
@_ZN17CAmbisonicSpeakerC1Ev = unnamed_addr alias void (%class.CAmbisonicSpeaker*), void (%class.CAmbisonicSpeaker*)* @_ZN17CAmbisonicSpeakerC2Ev
@_ZN17CAmbisonicSpeakerD1Ev = unnamed_addr alias void (%class.CAmbisonicSpeaker*), void (%class.CAmbisonicSpeaker*)* @_ZN17CAmbisonicSpeakerD2Ev
@_ZN17CAmbisonicDecoderC1Ev = unnamed_addr alias void (%class.CAmbisonicDecoder*), void (%class.CAmbisonicDecoder*)* @_ZN17CAmbisonicDecoderC2Ev
@_ZN17CAmbisonicDecoderD1Ev = unnamed_addr alias void (%class.CAmbisonicDecoder*), void (%class.CAmbisonicDecoder*)* @_ZN17CAmbisonicDecoderD2Ev
@_ZN16CAmbisonicZoomerC1Ev = unnamed_addr alias void (%class.CAmbisonicZoomer*), void (%class.CAmbisonicZoomer*)* @_ZN16CAmbisonicZoomerC2Ev
@_ZN22CAmbisonicBinauralizerC1Ev = unnamed_addr alias void (%class.CAmbisonicBinauralizer*), void (%class.CAmbisonicBinauralizer*)* @_ZN22CAmbisonicBinauralizerC2Ev
@_ZN12ILLIXR_AUDIO5SoundC1ENSt7__cxx1112basic_stringIcSt11char_traitsIcESaIcEEEjb = unnamed_addr alias void (%"class.ILLIXR_AUDIO::Sound"*, %"class.std::__cxx11::basic_string"*, i32, i1), void (%"class.ILLIXR_AUDIO::Sound"*, %"class.std::__cxx11::basic_string"*, i32, i1)* @_ZN12ILLIXR_AUDIO5SoundC2ENSt7__cxx1112basic_stringIcSt11char_traitsIcESaIcEEEjb
@_ZN12ILLIXR_AUDIO5SoundD1Ev = unnamed_addr alias void (%"class.ILLIXR_AUDIO::Sound"*), void (%"class.ILLIXR_AUDIO::Sound"*)* @_ZN12ILLIXR_AUDIO5SoundD2Ev
@_ZN12ILLIXR_AUDIO7ABAudioC1ENSt7__cxx1112basic_stringIcSt11char_traitsIcESaIcEEENS0_11ProcessTypeE = unnamed_addr alias void (%"class.ILLIXR_AUDIO::ABAudio"*, %"class.std::__cxx11::basic_string"*, i32), void (%"class.ILLIXR_AUDIO::ABAudio"*, %"class.std::__cxx11::basic_string"*, i32)* @_ZN12ILLIXR_AUDIO7ABAudioC2ENSt7__cxx1112basic_stringIcSt11char_traitsIcESaIcEEENS0_11ProcessTypeE
@_ZN12ILLIXR_AUDIO7ABAudioD1Ev = unnamed_addr alias void (%"class.ILLIXR_AUDIO::ABAudio"*), void (%"class.ILLIXR_AUDIO::ABAudio"*)* @_ZN12ILLIXR_AUDIO7ABAudioD2Ev

declare void @_ZNSt8ios_base4InitC1Ev(%"class.std::ios_base::Init"*) unnamed_addr #0

; Function Attrs: nounwind
declare void @_ZNSt8ios_base4InitD1Ev(%"class.std::ios_base::Init"*) unnamed_addr #1

; Function Attrs: nofree nounwind
declare i32 @__cxa_atexit(void (i8*)*, i8*, i8*) local_unnamed_addr #2

; Function Attrs: nounwind uwtable
define void @_ZN8MIT_HRTFC2Ej(%class.MIT_HRTF* nocapture %this, i32 %i_sampleRate) unnamed_addr #3 align 2 {
entry:
  %0 = getelementptr inbounds %class.MIT_HRTF, %class.MIT_HRTF* %this, i64 0, i32 0, i32 0
  %i_sampleRate2.i = getelementptr inbounds %class.MIT_HRTF, %class.MIT_HRTF* %this, i64 0, i32 0, i32 1
  store i32 %i_sampleRate, i32* %i_sampleRate2.i, align 8, !tbaa !34
  %i_len.i = getelementptr inbounds %class.MIT_HRTF, %class.MIT_HRTF* %this, i64 0, i32 0, i32 2
  store i32 0, i32* %i_len.i, align 4, !tbaa !39
  store i32 (...)** bitcast (i8** getelementptr inbounds ({ [5 x i8*] }, { [5 x i8*] }* @_ZTV8MIT_HRTF, i64 0, inrange i32 0, i64 2) to i32 (...)**), i32 (...)*** %0, align 8, !tbaa !40
  %call = tail call i32 @mit_hrtf_availability(i32 0, i32 0, i32 %i_sampleRate) #24
  store i32 %call, i32* %i_len.i, align 4, !tbaa !39
  ret void
}

declare i32 @mit_hrtf_availability(i32, i32, i32) local_unnamed_addr #0

; Function Attrs: nounwind uwtable
define zeroext i1 @_ZN8MIT_HRTF3getEffPPf(%class.MIT_HRTF* nocapture readonly %this, float %f_azimuth, float %f_elevation, float** nocapture readonly %pfHRTF) unnamed_addr #3 align 2 {
entry:
  %nAzimuth = alloca i32, align 4
  %nElevation = alloca i32, align 4
  %0 = bitcast i32* %nAzimuth to i8*
  call void @llvm.lifetime.start.p0i8(i64 4, i8* nonnull %0) #24
  %sub = fsub fast float -0.000000e+00, %f_azimuth
  %call = tail call fast float @_Z16RadiansToDegreesf(float %sub) #24
  %conv = fptosi float %call to i32
  %cmp = icmp sgt i32 %conv, 180
  %sub2 = add nsw i32 %conv, -360
  %spec.select = select i1 %cmp, i32 %sub2, i32 %conv
  store i32 %spec.select, i32* %nAzimuth, align 4, !tbaa !42
  %1 = bitcast i32* %nElevation to i8*
  call void @llvm.lifetime.start.p0i8(i64 4, i8* nonnull %1) #24
  %call3 = tail call fast float @_Z16RadiansToDegreesf(float %f_elevation) #24
  %conv4 = fptosi float %call3 to i32
  store i32 %conv4, i32* %nElevation, align 4, !tbaa !42
  %i_len = getelementptr inbounds %class.MIT_HRTF, %class.MIT_HRTF* %this, i64 0, i32 0, i32 2
  %2 = load i32, i32* %i_len, align 4, !tbaa !39
  %conv5 = zext i32 %2 to i64
  %cmp.i.i.i.i = icmp eq i32 %2, 0
  br i1 %cmp.i.i.i.i, label %_ZNSt6vectorIsSaIsEEC2EmRKS0_.exit63, label %_ZNSt6vectorIsSaIsEEC2EmRKS0_.exit

_ZNSt6vectorIsSaIsEEC2EmRKS0_.exit:               ; preds = %entry
  %mul.i.i.i.i.i.i = shl nuw nsw i64 %conv5, 1
  %call2.i.i.i.i.i.i = tail call i8* @_Znwm(i64 %mul.i.i.i.i.i.i) #24
  %3 = bitcast i8* %call2.i.i.i.i.i.i to i16*
  %4 = shl nuw nsw i64 %conv5, 1
  tail call void @llvm.memset.p0i8.i64(i8* nonnull align 2 %call2.i.i.i.i.i.i, i8 0, i64 %4, i1 false) #24
  %.pr = load i32, i32* %i_len, align 4, !tbaa !39
  %conv7 = zext i32 %.pr to i64
  %cmp.i.i.i.i51 = icmp eq i32 %.pr, 0
  br i1 %cmp.i.i.i.i51, label %_ZNSt6vectorIsSaIsEEC2EmRKS0_.exit63, label %for.body.i.i.preheader.i.i.i.i.i61

for.body.i.i.preheader.i.i.i.i.i61:               ; preds = %_ZNSt6vectorIsSaIsEEC2EmRKS0_.exit
  %mul.i.i.i.i.i.i52 = shl nuw nsw i64 %conv7, 1
  %call2.i.i.i.i.i.i53 = tail call i8* @_Znwm(i64 %mul.i.i.i.i.i.i52) #24
  %5 = bitcast i8* %call2.i.i.i.i.i.i53 to i16*
  %6 = shl nuw nsw i64 %conv7, 1
  tail call void @llvm.memset.p0i8.i64(i8* nonnull align 2 %call2.i.i.i.i.i.i53, i8 0, i64 %6, i1 false) #24
  br label %_ZNSt6vectorIsSaIsEEC2EmRKS0_.exit63

_ZNSt6vectorIsSaIsEEC2EmRKS0_.exit63:             ; preds = %for.body.i.i.preheader.i.i.i.i.i61, %_ZNSt6vectorIsSaIsEEC2EmRKS0_.exit, %entry
  %7 = phi i16* [ %5, %for.body.i.i.preheader.i.i.i.i.i61 ], [ null, %_ZNSt6vectorIsSaIsEEC2EmRKS0_.exit ], [ null, %entry ]
  %8 = phi i8* [ %call2.i.i.i.i.i.i53, %for.body.i.i.preheader.i.i.i.i.i61 ], [ null, %_ZNSt6vectorIsSaIsEEC2EmRKS0_.exit ], [ null, %entry ]
  %9 = phi i16* [ %3, %for.body.i.i.preheader.i.i.i.i.i61 ], [ %3, %_ZNSt6vectorIsSaIsEEC2EmRKS0_.exit ], [ null, %entry ]
  %10 = phi i8* [ %call2.i.i.i.i.i.i, %for.body.i.i.preheader.i.i.i.i.i61 ], [ %call2.i.i.i.i.i.i, %_ZNSt6vectorIsSaIsEEC2EmRKS0_.exit ], [ null, %entry ]
  %i_sampleRate = getelementptr inbounds %class.MIT_HRTF, %class.MIT_HRTF* %this, i64 0, i32 0, i32 1
  %11 = load i32, i32* %i_sampleRate, align 8, !tbaa !34
  %call12 = call i32 @mit_hrtf_get(i32* nonnull %nAzimuth, i32* nonnull %nElevation, i32 %11, i16* %9, i16* %7) #24
  %cmp13 = icmp eq i32 %call12, 0
  br i1 %cmp13, label %cleanup, label %for.cond.preheader

for.cond.preheader:                               ; preds = %_ZNSt6vectorIsSaIsEEC2EmRKS0_.exit63
  %12 = load i32, i32* %i_len, align 4, !tbaa !39
  %cmp1764 = icmp eq i32 %12, 0
  br i1 %cmp1764, label %cleanup, label %for.body.lr.ph

for.body.lr.ph:                                   ; preds = %for.cond.preheader
  %13 = load float*, float** %pfHRTF, align 8, !tbaa !43
  %arrayidx31 = getelementptr inbounds float*, float** %pfHRTF, i64 1
  %14 = load float*, float** %arrayidx31, align 8, !tbaa !43
  %15 = zext i32 %12 to i64
  %xtraiter = and i64 %15, 1
  %16 = icmp eq i32 %12, 1
  br i1 %16, label %if.then.i.i.i.loopexit.unr-lcssa, label %for.body.lr.ph.new

for.body.lr.ph.new:                               ; preds = %for.body.lr.ph
  %unroll_iter = sub nsw i64 %15, %xtraiter
  br label %for.body

for.body:                                         ; preds = %for.body, %for.body.lr.ph.new
  %indvars.iv = phi i64 [ 0, %for.body.lr.ph.new ], [ %indvars.iv.next.1, %for.body ]
  %niter = phi i64 [ %unroll_iter, %for.body.lr.ph.new ], [ %niter.nsub.1, %for.body ]
  %add.ptr.i48 = getelementptr inbounds i16, i16* %9, i64 %indvars.iv
  %17 = load i16, i16* %add.ptr.i48, align 2, !tbaa !45
  %conv22 = sitofp i16 %17 to float
  %div = fmul fast float %conv22, 0x3F00002000000000
  %arrayidx24 = getelementptr inbounds float, float* %13, i64 %indvars.iv
  store float %div, float* %arrayidx24, align 4, !tbaa !47
  %add.ptr.i = getelementptr inbounds i16, i16* %7, i64 %indvars.iv
  %18 = load i16, i16* %add.ptr.i, align 2, !tbaa !45
  %conv29 = sitofp i16 %18 to float
  %div30 = fmul fast float %conv29, 0x3F00002000000000
  %arrayidx33 = getelementptr inbounds float, float* %14, i64 %indvars.iv
  store float %div30, float* %arrayidx33, align 4, !tbaa !47
  %indvars.iv.next = or i64 %indvars.iv, 1
  %add.ptr.i48.1 = getelementptr inbounds i16, i16* %9, i64 %indvars.iv.next
  %19 = load i16, i16* %add.ptr.i48.1, align 2, !tbaa !45
  %conv22.1 = sitofp i16 %19 to float
  %div.1 = fmul fast float %conv22.1, 0x3F00002000000000
  %arrayidx24.1 = getelementptr inbounds float, float* %13, i64 %indvars.iv.next
  store float %div.1, float* %arrayidx24.1, align 4, !tbaa !47
  %add.ptr.i.1 = getelementptr inbounds i16, i16* %7, i64 %indvars.iv.next
  %20 = load i16, i16* %add.ptr.i.1, align 2, !tbaa !45
  %conv29.1 = sitofp i16 %20 to float
  %div30.1 = fmul fast float %conv29.1, 0x3F00002000000000
  %arrayidx33.1 = getelementptr inbounds float, float* %14, i64 %indvars.iv.next
  store float %div30.1, float* %arrayidx33.1, align 4, !tbaa !47
  %indvars.iv.next.1 = add nuw nsw i64 %indvars.iv, 2
  %niter.nsub.1 = add i64 %niter, -2
  %niter.ncmp.1 = icmp eq i64 %niter.nsub.1, 0
  br i1 %niter.ncmp.1, label %if.then.i.i.i.loopexit.unr-lcssa, label %for.body

cleanup:                                          ; preds = %for.cond.preheader, %_ZNSt6vectorIsSaIsEEC2EmRKS0_.exit63
  %retval.0 = phi i1 [ false, %_ZNSt6vectorIsSaIsEEC2EmRKS0_.exit63 ], [ true, %for.cond.preheader ]
  %tobool.i.i.i = icmp eq i16* %7, null
  br i1 %tobool.i.i.i, label %_ZNSt6vectorIsSaIsEED2Ev.exit, label %if.then.i.i.i

if.then.i.i.i.loopexit.unr-lcssa:                 ; preds = %for.body, %for.body.lr.ph
  %indvars.iv.unr = phi i64 [ 0, %for.body.lr.ph ], [ %indvars.iv.next.1, %for.body ]
  %lcmp.mod = icmp eq i64 %xtraiter, 0
  br i1 %lcmp.mod, label %if.then.i.i.i, label %for.body.epil

for.body.epil:                                    ; preds = %if.then.i.i.i.loopexit.unr-lcssa
  %add.ptr.i48.epil = getelementptr inbounds i16, i16* %9, i64 %indvars.iv.unr
  %21 = load i16, i16* %add.ptr.i48.epil, align 2, !tbaa !45
  %conv22.epil = sitofp i16 %21 to float
  %div.epil = fmul fast float %conv22.epil, 0x3F00002000000000
  %arrayidx24.epil = getelementptr inbounds float, float* %13, i64 %indvars.iv.unr
  store float %div.epil, float* %arrayidx24.epil, align 4, !tbaa !47
  %add.ptr.i.epil = getelementptr inbounds i16, i16* %7, i64 %indvars.iv.unr
  %22 = load i16, i16* %add.ptr.i.epil, align 2, !tbaa !45
  %conv29.epil = sitofp i16 %22 to float
  %div30.epil = fmul fast float %conv29.epil, 0x3F00002000000000
  %arrayidx33.epil = getelementptr inbounds float, float* %14, i64 %indvars.iv.unr
  store float %div30.epil, float* %arrayidx33.epil, align 4, !tbaa !47
  br label %if.then.i.i.i

if.then.i.i.i:                                    ; preds = %for.body.epil, %if.then.i.i.i.loopexit.unr-lcssa, %cleanup
  %retval.078 = phi i1 [ %retval.0, %cleanup ], [ true, %if.then.i.i.i.loopexit.unr-lcssa ], [ true, %for.body.epil ]
  call void @_ZdlPv(i8* nonnull %8) #24
  br label %_ZNSt6vectorIsSaIsEED2Ev.exit

_ZNSt6vectorIsSaIsEED2Ev.exit:                    ; preds = %if.then.i.i.i, %cleanup
  %retval.079 = phi i1 [ %retval.0, %cleanup ], [ %retval.078, %if.then.i.i.i ]
  %tobool.i.i.i.1 = icmp eq i16* %9, null
  br i1 %tobool.i.i.i.1, label %_ZNSt6vectorIsSaIsEED2Ev.exit.1, label %if.then.i.i.i.1

if.then.i.i.i.1:                                  ; preds = %_ZNSt6vectorIsSaIsEED2Ev.exit
  call void @_ZdlPv(i8* nonnull %10) #24
  br label %_ZNSt6vectorIsSaIsEED2Ev.exit.1

_ZNSt6vectorIsSaIsEED2Ev.exit.1:                  ; preds = %if.then.i.i.i.1, %_ZNSt6vectorIsSaIsEED2Ev.exit
  call void @llvm.lifetime.end.p0i8(i64 4, i8* nonnull %1) #24
  call void @llvm.lifetime.end.p0i8(i64 4, i8* nonnull %0) #24
  ret i1 %retval.079
}

; Function Attrs: argmemonly nounwind
declare void @llvm.lifetime.start.p0i8(i64 immarg, i8* nocapture) #4

declare float @_Z16RadiansToDegreesf(float) local_unnamed_addr #0

; Function Attrs: argmemonly nounwind
declare void @llvm.lifetime.end.p0i8(i64 immarg, i8* nocapture) #4

declare i32 @mit_hrtf_get(i32*, i32*, i32, i16*, i16*) local_unnamed_addr #0

; Function Attrs: nofree norecurse nounwind uwtable writeonly
define void @_ZN14CAmbisonicBaseC2Ev(%class.CAmbisonicBase* nocapture %this) unnamed_addr #5 align 2 {
entry:
  %0 = getelementptr inbounds %class.CAmbisonicBase, %class.CAmbisonicBase* %this, i64 0, i32 0
  store i32 (...)** bitcast (i8** getelementptr inbounds ({ [7 x i8*] }, { [7 x i8*] }* @_ZTV14CAmbisonicBase, i64 0, inrange i32 0, i64 2) to i32 (...)**), i32 (...)*** %0, align 8, !tbaa !40
  %m_nOrder = getelementptr inbounds %class.CAmbisonicBase, %class.CAmbisonicBase* %this, i64 0, i32 1
  store i32 0, i32* %m_nOrder, align 8, !tbaa !49
  %m_b3D = getelementptr inbounds %class.CAmbisonicBase, %class.CAmbisonicBase* %this, i64 0, i32 2
  store i8 0, i8* %m_b3D, align 4, !tbaa !52
  %m_nChannelCount = getelementptr inbounds %class.CAmbisonicBase, %class.CAmbisonicBase* %this, i64 0, i32 4
  store i32 0, i32* %m_nChannelCount, align 8, !tbaa !53
  %m_bOpt = getelementptr inbounds %class.CAmbisonicBase, %class.CAmbisonicBase* %this, i64 0, i32 5
  store i8 0, i8* %m_bOpt, align 4, !tbaa !54
  ret void
}

; Function Attrs: norecurse nounwind readonly uwtable
define i32 @_ZN14CAmbisonicBase8GetOrderEv(%class.CAmbisonicBase* nocapture readonly %this) local_unnamed_addr #6 align 2 {
entry:
  %m_nOrder = getelementptr inbounds %class.CAmbisonicBase, %class.CAmbisonicBase* %this, i64 0, i32 1
  %0 = load i32, i32* %m_nOrder, align 8, !tbaa !49
  ret i32 %0
}

; Function Attrs: norecurse nounwind readonly uwtable
define zeroext i1 @_ZN14CAmbisonicBase9GetHeightEv(%class.CAmbisonicBase* nocapture readonly %this) local_unnamed_addr #6 align 2 {
entry:
  %m_b3D = getelementptr inbounds %class.CAmbisonicBase, %class.CAmbisonicBase* %this, i64 0, i32 2
  %0 = load i8, i8* %m_b3D, align 4, !tbaa !52, !range !55
  %tobool = icmp ne i8 %0, 0
  ret i1 %tobool
}

; Function Attrs: norecurse nounwind readonly uwtable
define i32 @_ZN14CAmbisonicBase15GetChannelCountEv(%class.CAmbisonicBase* nocapture readonly %this) local_unnamed_addr #6 align 2 {
entry:
  %m_nChannelCount = getelementptr inbounds %class.CAmbisonicBase, %class.CAmbisonicBase* %this, i64 0, i32 4
  %0 = load i32, i32* %m_nChannelCount, align 8, !tbaa !53
  ret i32 %0
}

; Function Attrs: nounwind uwtable
define zeroext i1 @_ZN14CAmbisonicBase9ConfigureEjbj(%class.CAmbisonicBase* nocapture %this, i32 %nOrder, i1 zeroext %b3D, i32 %nMisc) unnamed_addr #3 align 2 {
entry:
  %frombool = zext i1 %b3D to i8
  %m_nOrder = getelementptr inbounds %class.CAmbisonicBase, %class.CAmbisonicBase* %this, i64 0, i32 1
  store i32 %nOrder, i32* %m_nOrder, align 8, !tbaa !49
  %m_b3D = getelementptr inbounds %class.CAmbisonicBase, %class.CAmbisonicBase* %this, i64 0, i32 2
  store i8 %frombool, i8* %m_b3D, align 4, !tbaa !52
  %call = tail call i32 @_Z17OrderToComponentsjb(i32 %nOrder, i1 zeroext %b3D) #24
  %m_nChannelCount = getelementptr inbounds %class.CAmbisonicBase, %class.CAmbisonicBase* %this, i64 0, i32 4
  store i32 %call, i32* %m_nChannelCount, align 8, !tbaa !53
  ret i1 true
}

declare i32 @_Z17OrderToComponentsjb(i32, i1 zeroext) local_unnamed_addr #0

; Function Attrs: nounwind uwtable
define void @_ZN16CAmbisonicSourceC2Ev(%class.CAmbisonicSource* nocapture %this) unnamed_addr #3 align 2 {
entry:
  %0 = getelementptr inbounds %class.CAmbisonicSource, %class.CAmbisonicSource* %this, i64 0, i32 0, i32 0
  %1 = getelementptr inbounds %class.CAmbisonicSource, %class.CAmbisonicSource* %this, i64 0, i32 0, i32 1
  store i32 0, i32* %1, align 8, !tbaa !49
  %2 = getelementptr inbounds %class.CAmbisonicSource, %class.CAmbisonicSource* %this, i64 0, i32 0, i32 2
  store i8 0, i8* %2, align 4, !tbaa !52
  %3 = getelementptr inbounds %class.CAmbisonicSource, %class.CAmbisonicSource* %this, i64 0, i32 0, i32 4
  store i32 0, i32* %3, align 8, !tbaa !53
  %4 = getelementptr inbounds %class.CAmbisonicSource, %class.CAmbisonicSource* %this, i64 0, i32 0, i32 5
  store i8 0, i8* %4, align 4, !tbaa !54
  store i32 (...)** bitcast (i8** getelementptr inbounds ({ [16 x i8*] }, { [16 x i8*] }* @_ZTV16CAmbisonicSource, i64 0, inrange i32 0, i64 2) to i32 (...)**), i32 (...)*** %0, align 8, !tbaa !40
  %m_pfCoeff = getelementptr inbounds %class.CAmbisonicSource, %class.CAmbisonicSource* %this, i64 0, i32 1
  %fDistance = getelementptr inbounds %class.CAmbisonicSource, %class.CAmbisonicSource* %this, i64 0, i32 3, i32 2
  %5 = bitcast %"class.std::vector.0"* %m_pfCoeff to i8*
  call void @llvm.memset.p0i8.i64(i8* nonnull align 8 %5, i8 0, i64 56, i1 false)
  store float 1.000000e+00, float* %fDistance, align 8, !tbaa !56
  %m_fGain = getelementptr inbounds %class.CAmbisonicSource, %class.CAmbisonicSource* %this, i64 0, i32 4
  store float 1.000000e+00, float* %m_fGain, align 4, !tbaa !60
  ret void
}

; Function Attrs: nounwind uwtable
define zeroext i1 @_ZN16CAmbisonicSource9ConfigureEjbj(%class.CAmbisonicSource* %this, i32 %nOrder, i1 zeroext %b3D, i32 %nMisc) unnamed_addr #3 align 2 {
entry:
  %ref.tmp = alloca float, align 4
  %ref.tmp5 = alloca float, align 4
  %frombool.i = zext i1 %b3D to i8
  %0 = getelementptr inbounds %class.CAmbisonicSource, %class.CAmbisonicSource* %this, i64 0, i32 0, i32 1
  store i32 %nOrder, i32* %0, align 8, !tbaa !49
  %1 = getelementptr inbounds %class.CAmbisonicSource, %class.CAmbisonicSource* %this, i64 0, i32 0, i32 2
  store i8 %frombool.i, i8* %1, align 4, !tbaa !52
  %call.i = tail call i32 @_Z17OrderToComponentsjb(i32 %nOrder, i1 zeroext %b3D) #24
  %2 = getelementptr inbounds %class.CAmbisonicSource, %class.CAmbisonicSource* %this, i64 0, i32 0, i32 4
  store i32 %call.i, i32* %2, align 8, !tbaa !53
  %m_pfCoeff = getelementptr inbounds %class.CAmbisonicSource, %class.CAmbisonicSource* %this, i64 0, i32 1
  %conv = zext i32 %call.i to i64
  %3 = bitcast float* %ref.tmp to i8*
  call void @llvm.lifetime.start.p0i8(i64 4, i8* nonnull %3) #24
  store float 0.000000e+00, float* %ref.tmp, align 4, !tbaa !47
  %_M_finish.i.i = getelementptr inbounds %class.CAmbisonicSource, %class.CAmbisonicSource* %this, i64 0, i32 1, i32 0, i32 0, i32 0, i32 1
  %4 = bitcast float** %_M_finish.i.i to i64*
  %5 = load i64, i64* %4, align 8, !tbaa !61
  %6 = bitcast %"class.std::vector.0"* %m_pfCoeff to i64*
  %7 = load i64, i64* %6, align 8, !tbaa !63
  %sub.ptr.sub.i.i = sub i64 %5, %7
  %sub.ptr.div.i.i = ashr exact i64 %sub.ptr.sub.i.i, 2
  %cmp.i = icmp ult i64 %sub.ptr.div.i.i, %conv
  %8 = inttoptr i64 %7 to float*
  %9 = inttoptr i64 %5 to float*
  br i1 %cmp.i, label %if.then.i, label %if.else.i

if.then.i:                                        ; preds = %entry
  %sub.i = sub nsw i64 %conv, %sub.ptr.div.i.i
  call void @_ZNSt6vectorIfSaIfEE14_M_fill_insertEN9__gnu_cxx17__normal_iteratorIPfS1_EEmRKf(%"class.std::vector.0"* nonnull %m_pfCoeff, float* %9, i64 %sub.i, float* nonnull dereferenceable(4) %ref.tmp) #24
  br label %_ZNSt6vectorIfSaIfEE6resizeEmRKf.exit

if.else.i:                                        ; preds = %entry
  %cmp6.i = icmp ugt i64 %sub.ptr.div.i.i, %conv
  br i1 %cmp6.i, label %if.then7.i, label %_ZNSt6vectorIfSaIfEE6resizeEmRKf.exit

if.then7.i:                                       ; preds = %if.else.i
  %add.ptr.i = getelementptr inbounds float, float* %8, i64 %conv
  %tobool.i.i = icmp eq float* %add.ptr.i, %9
  br i1 %tobool.i.i, label %_ZNSt6vectorIfSaIfEE6resizeEmRKf.exit, label %if.then.i.i

if.then.i.i:                                      ; preds = %if.then7.i
  store float* %add.ptr.i, float** %_M_finish.i.i, align 8, !tbaa !61
  br label %_ZNSt6vectorIfSaIfEE6resizeEmRKf.exit

_ZNSt6vectorIfSaIfEE6resizeEmRKf.exit:            ; preds = %if.then.i.i, %if.then7.i, %if.else.i, %if.then.i
  call void @llvm.lifetime.end.p0i8(i64 4, i8* nonnull %3) #24
  %m_pfOrderWeights = getelementptr inbounds %class.CAmbisonicSource, %class.CAmbisonicSource* %this, i64 0, i32 2
  %10 = load i32, i32* %0, align 8, !tbaa !49
  %add = add i32 %10, 1
  %conv4 = zext i32 %add to i64
  %11 = bitcast float* %ref.tmp5 to i8*
  call void @llvm.lifetime.start.p0i8(i64 4, i8* nonnull %11) #24
  store float 1.000000e+00, float* %ref.tmp5, align 4, !tbaa !47
  %_M_finish.i.i6 = getelementptr inbounds %class.CAmbisonicSource, %class.CAmbisonicSource* %this, i64 0, i32 2, i32 0, i32 0, i32 0, i32 1
  %12 = bitcast float** %_M_finish.i.i6 to i64*
  %13 = load i64, i64* %12, align 8, !tbaa !61
  %14 = bitcast %"class.std::vector.0"* %m_pfOrderWeights to i64*
  %15 = load i64, i64* %14, align 8, !tbaa !63
  %sub.ptr.sub.i.i7 = sub i64 %13, %15
  %sub.ptr.div.i.i8 = ashr exact i64 %sub.ptr.sub.i.i7, 2
  %cmp.i9 = icmp ult i64 %sub.ptr.div.i.i8, %conv4
  %16 = inttoptr i64 %15 to float*
  %17 = inttoptr i64 %13 to float*
  br i1 %cmp.i9, label %if.then.i11, label %if.else.i13

if.then.i11:                                      ; preds = %_ZNSt6vectorIfSaIfEE6resizeEmRKf.exit
  %sub.i10 = sub nsw i64 %conv4, %sub.ptr.div.i.i8
  call void @_ZNSt6vectorIfSaIfEE14_M_fill_insertEN9__gnu_cxx17__normal_iteratorIPfS1_EEmRKf(%"class.std::vector.0"* nonnull %m_pfOrderWeights, float* %17, i64 %sub.i10, float* nonnull dereferenceable(4) %ref.tmp5) #24
  br label %_ZNSt6vectorIfSaIfEE6resizeEmRKf.exit18

if.else.i13:                                      ; preds = %_ZNSt6vectorIfSaIfEE6resizeEmRKf.exit
  %cmp6.i12 = icmp ugt i64 %sub.ptr.div.i.i8, %conv4
  br i1 %cmp6.i12, label %if.then7.i16, label %_ZNSt6vectorIfSaIfEE6resizeEmRKf.exit18

if.then7.i16:                                     ; preds = %if.else.i13
  %add.ptr.i14 = getelementptr inbounds float, float* %16, i64 %conv4
  %tobool.i.i15 = icmp eq float* %add.ptr.i14, %17
  br i1 %tobool.i.i15, label %_ZNSt6vectorIfSaIfEE6resizeEmRKf.exit18, label %if.then.i.i17

if.then.i.i17:                                    ; preds = %if.then7.i16
  store float* %add.ptr.i14, float** %_M_finish.i.i6, align 8, !tbaa !61
  br label %_ZNSt6vectorIfSaIfEE6resizeEmRKf.exit18

_ZNSt6vectorIfSaIfEE6resizeEmRKf.exit18:          ; preds = %if.then.i.i17, %if.then7.i16, %if.else.i13, %if.then.i11
  call void @llvm.lifetime.end.p0i8(i64 4, i8* nonnull %11) #24
  ret i1 true
}

; Function Attrs: norecurse nounwind readnone uwtable
define void @_ZN16CAmbisonicSource5ResetEv(%class.CAmbisonicSource* nocapture %this) unnamed_addr #7 align 2 {
entry:
  ret void
}

; Function Attrs: nofree nounwind uwtable
define void @_ZN16CAmbisonicSource7RefreshEv(%class.CAmbisonicSource* readonly %this) unnamed_addr #8 align 2 {
entry:
  %fAzimuth = getelementptr inbounds %class.CAmbisonicSource, %class.CAmbisonicSource* %this, i64 0, i32 3, i32 0
  %0 = load float, float* %fAzimuth, align 8, !tbaa !64
  %1 = tail call fast float @llvm.cos.f32(float %0)
  %2 = tail call fast float @llvm.sin.f32(float %0)
  %fElevation = getelementptr inbounds %class.CAmbisonicSource, %class.CAmbisonicSource* %this, i64 0, i32 3, i32 1
  %3 = load float, float* %fElevation, align 4, !tbaa !65
  %4 = tail call fast float @llvm.cos.f32(float %3)
  %5 = tail call fast float @llvm.sin.f32(float %3)
  %mul = fmul fast float %0, 2.000000e+00
  %6 = tail call fast float @llvm.cos.f32(float %mul)
  %7 = tail call fast float @llvm.sin.f32(float %mul)
  %mul14 = fmul fast float %3, 2.000000e+00
  %8 = tail call fast float @llvm.sin.f32(float %mul14)
  %9 = getelementptr inbounds %class.CAmbisonicSource, %class.CAmbisonicSource* %this, i64 0, i32 0, i32 2
  %10 = load i8, i8* %9, align 4, !tbaa !52, !range !55
  %tobool = icmp eq i8 %10, 0
  %11 = getelementptr inbounds %class.CAmbisonicSource, %class.CAmbisonicSource* %this, i64 0, i32 0, i32 1
  %_M_start.i = getelementptr inbounds %class.CAmbisonicSource, %class.CAmbisonicSource* %this, i64 0, i32 2, i32 0, i32 0, i32 0, i32 0
  %12 = load float*, float** %_M_start.i, align 8, !tbaa !63
  %13 = bitcast float* %12 to i32*
  %14 = load i32, i32* %13, align 4, !tbaa !47
  %_M_start.i362 = getelementptr inbounds %class.CAmbisonicSource, %class.CAmbisonicSource* %this, i64 0, i32 1, i32 0, i32 0, i32 0, i32 0
  %15 = load float*, float** %_M_start.i362, align 8, !tbaa !63
  %16 = bitcast float* %15 to i32*
  store i32 %14, i32* %16, align 4, !tbaa !47
  %17 = load i32, i32* %11, align 8, !tbaa !49
  %cmp170 = icmp eq i32 %17, 0
  %18 = bitcast i32 %14 to float
  br i1 %tobool, label %if.then163, label %if.then15

if.then15:                                        ; preds = %entry
  br i1 %cmp170, label %if.end223, label %if.end38

if.end38:                                         ; preds = %if.then15
  %mul21 = fmul fast float %4, %2
  %add.ptr.i361 = getelementptr inbounds float, float* %12, i64 1
  %19 = load float, float* %add.ptr.i361, align 4, !tbaa !47
  %mul24 = fmul fast float %mul21, %19
  %add.ptr.i359 = getelementptr inbounds float, float* %15, i64 1
  store float %mul24, float* %add.ptr.i359, align 4, !tbaa !47
  %20 = load float, float* %add.ptr.i361, align 4, !tbaa !47
  %mul29 = fmul fast float %20, %5
  %add.ptr.i355 = getelementptr inbounds float, float* %15, i64 2
  store float %mul29, float* %add.ptr.i355, align 4, !tbaa !47
  %mul32 = fmul fast float %4, %1
  %21 = load float, float* %add.ptr.i361, align 4, !tbaa !47
  %mul35 = fmul fast float %mul32, %21
  %add.ptr.i351 = getelementptr inbounds float, float* %15, i64 3
  store float %mul35, float* %add.ptr.i351, align 4, !tbaa !47
  %cmp40 = icmp eq i32 %17, 1
  br i1 %cmp40, label %if.end223, label %if.end83

if.end83:                                         ; preds = %if.end38
  %square275 = fmul fast float %4, %4
  %add.ptr.i349 = getelementptr inbounds float, float* %12, i64 2
  %22 = load float, float* %add.ptr.i349, align 4, !tbaa !47
  %mul43 = fmul fast float %square275, 0x3FEBB67AE0000000
  %mul44 = fmul fast float %mul43, %7
  %mul47 = fmul fast float %mul44, %22
  %add.ptr.i347 = getelementptr inbounds float, float* %15, i64 4
  store float %mul47, float* %add.ptr.i347, align 4, !tbaa !47
  %23 = load float, float* %add.ptr.i349, align 4, !tbaa !47
  %mul52 = fmul fast float %8, 0x3FEBB67AE0000000
  %mul53 = fmul fast float %mul52, %2
  %mul56 = fmul fast float %mul53, %23
  %add.ptr.i343 = getelementptr inbounds float, float* %15, i64 5
  store float %mul56, float* %add.ptr.i343, align 4, !tbaa !47
  %square276 = fmul fast float %5, %5
  %mul59 = fmul fast float %square276, 1.500000e+00
  %sub = fadd fast float %mul59, -5.000000e-01
  %24 = load float, float* %add.ptr.i349, align 4, !tbaa !47
  %mul62 = fmul fast float %24, %sub
  %add.ptr.i339 = getelementptr inbounds float, float* %15, i64 6
  store float %mul62, float* %add.ptr.i339, align 4, !tbaa !47
  %25 = load float, float* %add.ptr.i349, align 4, !tbaa !47
  %mul68 = fmul fast float %mul52, %1
  %mul71 = fmul fast float %mul68, %25
  %add.ptr.i335 = getelementptr inbounds float, float* %15, i64 7
  store float %mul71, float* %add.ptr.i335, align 4, !tbaa !47
  %26 = load float, float* %add.ptr.i349, align 4, !tbaa !47
  %mul77 = fmul fast float %mul43, %6
  %mul80 = fmul fast float %mul77, %26
  %add.ptr.i331 = getelementptr inbounds float, float* %15, i64 8
  store float %mul80, float* %add.ptr.i331, align 4, !tbaa !47
  %cmp85 = icmp ugt i32 %17, 2
  br i1 %cmp85, label %if.then86, label %if.end223

if.then86:                                        ; preds = %if.end83
  %27 = load float, float* %fAzimuth, align 8, !tbaa !64
  %mul90 = fmul fast float %27, 3.000000e+00
  %28 = tail call fast float @llvm.sin.f32(float %mul90)
  %29 = fmul fast float %square275, %4
  %add.ptr.i329 = getelementptr inbounds float, float* %12, i64 3
  %30 = load float, float* %add.ptr.i329, align 4, !tbaa !47
  %mul91 = fmul fast float %29, 0x3FE94C5840000000
  %mul92 = fmul fast float %mul91, %30
  %mul95 = fmul fast float %mul92, %28
  %add.ptr.i327 = getelementptr inbounds float, float* %15, i64 9
  store float %mul95, float* %add.ptr.i327, align 4, !tbaa !47
  %31 = load float, float* %add.ptr.i329, align 4, !tbaa !47
  %mul100 = fmul fast float %5, 0x3FFEFBDEC0000000
  %mul101 = fmul fast float %mul100, %7
  %mul102 = fmul fast float %mul101, %square275
  %mul105 = fmul fast float %mul102, %31
  %add.ptr.i323 = getelementptr inbounds float, float* %15, i64 10
  store float %mul105, float* %add.ptr.i323, align 4, !tbaa !47
  %mul110 = fmul fast float %square276, 5.000000e+00
  %sub111 = fadd fast float %mul110, -1.000000e+00
  %32 = load float, float* %add.ptr.i329, align 4, !tbaa !47
  %mul112 = fmul fast float %mul21, 0x3FE3988E20000000
  %mul113 = fmul fast float %mul112, %sub111
  %mul116 = fmul fast float %mul113, %32
  %add.ptr.i319 = getelementptr inbounds float, float* %15, i64 11
  store float %mul116, float* %add.ptr.i319, align 4, !tbaa !47
  %sub120 = fadd fast float %mul110, -3.000000e+00
  %33 = load float, float* %add.ptr.i329, align 4, !tbaa !47
  %mul121 = fmul fast float %5, 5.000000e-01
  %mul122 = fmul fast float %mul121, %sub120
  %mul125 = fmul fast float %mul122, %33
  %add.ptr.i315 = getelementptr inbounds float, float* %15, i64 12
  store float %mul125, float* %add.ptr.i315, align 4, !tbaa !47
  %34 = load float, float* %add.ptr.i329, align 4, !tbaa !47
  %mul132 = fmul fast float %mul32, 0x3FE3988E20000000
  %mul133 = fmul fast float %mul132, %sub111
  %mul136 = fmul fast float %mul133, %34
  %add.ptr.i311 = getelementptr inbounds float, float* %15, i64 13
  store float %mul136, float* %add.ptr.i311, align 4, !tbaa !47
  %35 = load float, float* %add.ptr.i329, align 4, !tbaa !47
  %mul142 = fmul fast float %mul100, %6
  %mul143 = fmul fast float %mul142, %square275
  %mul146 = fmul fast float %mul143, %35
  %add.ptr.i307 = getelementptr inbounds float, float* %15, i64 14
  store float %mul146, float* %add.ptr.i307, align 4, !tbaa !47
  %36 = load float, float* %fAzimuth, align 8, !tbaa !64
  %mul152 = fmul fast float %36, 3.000000e+00
  %37 = tail call fast float @llvm.cos.f32(float %mul152)
  %38 = load float, float* %add.ptr.i329, align 4, !tbaa !47
  %mul154 = fmul fast float %mul91, %38
  %mul157 = fmul fast float %mul154, %37
  %add.ptr.i303 = getelementptr inbounds float, float* %15, i64 15
  store float %mul157, float* %add.ptr.i303, align 4, !tbaa !47
  br label %if.end223

if.then163:                                       ; preds = %entry
  br i1 %cmp170, label %if.end223, label %if.end184

if.end184:                                        ; preds = %if.then163
  %mul172 = fmul fast float %4, %1
  %add.ptr.i301 = getelementptr inbounds float, float* %12, i64 1
  %39 = load float, float* %add.ptr.i301, align 4, !tbaa !47
  %mul175 = fmul fast float %mul172, %39
  %add.ptr.i299 = getelementptr inbounds float, float* %15, i64 1
  store float %mul175, float* %add.ptr.i299, align 4, !tbaa !47
  %mul178 = fmul fast float %4, %2
  %40 = load float, float* %add.ptr.i301, align 4, !tbaa !47
  %mul181 = fmul fast float %mul178, %40
  %add.ptr.i295 = getelementptr inbounds float, float* %15, i64 2
  store float %mul181, float* %add.ptr.i295, align 4, !tbaa !47
  %cmp186 = icmp eq i32 %17, 1
  br i1 %cmp186, label %if.end223, label %if.end200

if.end200:                                        ; preds = %if.end184
  %square271 = fmul fast float %4, %4
  %mul188 = fmul fast float %square271, %6
  %add.ptr.i293 = getelementptr inbounds float, float* %12, i64 2
  %41 = load float, float* %add.ptr.i293, align 4, !tbaa !47
  %mul191 = fmul fast float %mul188, %41
  %add.ptr.i291 = getelementptr inbounds float, float* %15, i64 3
  store float %mul191, float* %add.ptr.i291, align 4, !tbaa !47
  %mul194 = fmul fast float %square271, %7
  %42 = load float, float* %add.ptr.i293, align 4, !tbaa !47
  %mul197 = fmul fast float %mul194, %42
  %add.ptr.i287 = getelementptr inbounds float, float* %15, i64 4
  store float %mul197, float* %add.ptr.i287, align 4, !tbaa !47
  %cmp202 = icmp ugt i32 %17, 2
  br i1 %cmp202, label %if.then203, label %if.end223

if.then203:                                       ; preds = %if.end200
  %43 = load float, float* %fAzimuth, align 8, !tbaa !64
  %mul206 = fmul fast float %43, 3.000000e+00
  %44 = tail call fast float @llvm.cos.f32(float %mul206)
  %45 = fmul fast float %square271, %4
  %add.ptr.i285 = getelementptr inbounds float, float* %12, i64 3
  %46 = load float, float* %add.ptr.i285, align 4, !tbaa !47
  %mul207 = fmul fast float %46, %45
  %mul210 = fmul fast float %mul207, %44
  %add.ptr.i283 = getelementptr inbounds float, float* %15, i64 5
  store float %mul210, float* %add.ptr.i283, align 4, !tbaa !47
  %47 = load float, float* %fAzimuth, align 8, !tbaa !64
  %mul215 = fmul fast float %47, 3.000000e+00
  %48 = tail call fast float @llvm.sin.f32(float %mul215)
  %49 = load float, float* %add.ptr.i285, align 4, !tbaa !47
  %mul216 = fmul fast float %49, %45
  %mul219 = fmul fast float %mul216, %48
  %add.ptr.i279 = getelementptr inbounds float, float* %15, i64 6
  store float %mul219, float* %add.ptr.i279, align 4, !tbaa !47
  br label %if.end223

if.end223:                                        ; preds = %if.then203, %if.end200, %if.end184, %if.then163, %if.then86, %if.end83, %if.end38, %if.then15
  %50 = getelementptr inbounds %class.CAmbisonicSource, %class.CAmbisonicSource* %this, i64 0, i32 0, i32 4
  %51 = load i32, i32* %50, align 8, !tbaa !53
  %cmp224367 = icmp eq i32 %51, 0
  br i1 %cmp224367, label %for.cond.cleanup, label %for.body.lr.ph

for.body.lr.ph:                                   ; preds = %if.end223
  %m_fGain = getelementptr inbounds %class.CAmbisonicSource, %class.CAmbisonicSource* %this, i64 0, i32 4
  %52 = zext i32 %51 to i64
  %53 = load float, float* %m_fGain, align 4, !tbaa !60
  %mul227369 = fmul fast float %53, %18
  store float %mul227369, float* %15, align 4, !tbaa !47
  %cmp224370 = icmp eq i32 %51, 1
  br i1 %cmp224370, label %for.cond.cleanup, label %for.body.for.body_crit_edge.preheader

for.body.for.body_crit_edge.preheader:            ; preds = %for.body.lr.ph
  %54 = add nsw i64 %52, -1
  %55 = add nsw i64 %52, -2
  %xtraiter = and i64 %54, 3
  %56 = icmp ult i64 %55, 3
  br i1 %56, label %for.cond.cleanup.loopexit.unr-lcssa, label %for.body.for.body_crit_edge.preheader.new

for.body.for.body_crit_edge.preheader.new:        ; preds = %for.body.for.body_crit_edge.preheader
  %unroll_iter = sub nsw i64 %54, %xtraiter
  br label %for.body.for.body_crit_edge

for.cond.cleanup.loopexit.unr-lcssa:              ; preds = %for.body.for.body_crit_edge, %for.body.for.body_crit_edge.preheader
  %indvars.iv.next371.unr = phi i64 [ 1, %for.body.for.body_crit_edge.preheader ], [ %indvars.iv.next.3, %for.body.for.body_crit_edge ]
  %lcmp.mod = icmp eq i64 %xtraiter, 0
  br i1 %lcmp.mod, label %for.cond.cleanup, label %for.body.for.body_crit_edge.epil

for.body.for.body_crit_edge.epil:                 ; preds = %for.body.for.body_crit_edge.epil, %for.cond.cleanup.loopexit.unr-lcssa
  %indvars.iv.next371.epil = phi i64 [ %indvars.iv.next.epil, %for.body.for.body_crit_edge.epil ], [ %indvars.iv.next371.unr, %for.cond.cleanup.loopexit.unr-lcssa ]
  %epil.iter = phi i64 [ %epil.iter.sub, %for.body.for.body_crit_edge.epil ], [ %xtraiter, %for.cond.cleanup.loopexit.unr-lcssa ]
  %add.ptr.i.phi.trans.insert.epil = getelementptr inbounds float, float* %15, i64 %indvars.iv.next371.epil
  %.pre.epil = load float, float* %add.ptr.i.phi.trans.insert.epil, align 4, !tbaa !47
  %57 = load float, float* %m_fGain, align 4, !tbaa !60
  %add.ptr.i.epil = getelementptr inbounds float, float* %15, i64 %indvars.iv.next371.epil
  %mul227.epil = fmul fast float %.pre.epil, %57
  store float %mul227.epil, float* %add.ptr.i.epil, align 4, !tbaa !47
  %indvars.iv.next.epil = add nuw nsw i64 %indvars.iv.next371.epil, 1
  %epil.iter.sub = add i64 %epil.iter, -1
  %epil.iter.cmp = icmp eq i64 %epil.iter.sub, 0
  br i1 %epil.iter.cmp, label %for.cond.cleanup, label %for.body.for.body_crit_edge.epil, !llvm.loop !66

for.cond.cleanup:                                 ; preds = %for.body.for.body_crit_edge.epil, %for.cond.cleanup.loopexit.unr-lcssa, %for.body.lr.ph, %if.end223
  ret void

for.body.for.body_crit_edge:                      ; preds = %for.body.for.body_crit_edge, %for.body.for.body_crit_edge.preheader.new
  %indvars.iv.next371 = phi i64 [ 1, %for.body.for.body_crit_edge.preheader.new ], [ %indvars.iv.next.3, %for.body.for.body_crit_edge ]
  %niter = phi i64 [ %unroll_iter, %for.body.for.body_crit_edge.preheader.new ], [ %niter.nsub.3, %for.body.for.body_crit_edge ]
  %add.ptr.i.phi.trans.insert = getelementptr inbounds float, float* %15, i64 %indvars.iv.next371
  %.pre = load float, float* %add.ptr.i.phi.trans.insert, align 4, !tbaa !47
  %58 = load float, float* %m_fGain, align 4, !tbaa !60
  %add.ptr.i = getelementptr inbounds float, float* %15, i64 %indvars.iv.next371
  %mul227 = fmul fast float %.pre, %58
  store float %mul227, float* %add.ptr.i, align 4, !tbaa !47
  %indvars.iv.next = add nuw nsw i64 %indvars.iv.next371, 1
  %add.ptr.i.phi.trans.insert.1 = getelementptr inbounds float, float* %15, i64 %indvars.iv.next
  %.pre.1 = load float, float* %add.ptr.i.phi.trans.insert.1, align 4, !tbaa !47
  %59 = load float, float* %m_fGain, align 4, !tbaa !60
  %add.ptr.i.1 = getelementptr inbounds float, float* %15, i64 %indvars.iv.next
  %mul227.1 = fmul fast float %.pre.1, %59
  store float %mul227.1, float* %add.ptr.i.1, align 4, !tbaa !47
  %indvars.iv.next.1 = add nuw nsw i64 %indvars.iv.next371, 2
  %add.ptr.i.phi.trans.insert.2 = getelementptr inbounds float, float* %15, i64 %indvars.iv.next.1
  %.pre.2 = load float, float* %add.ptr.i.phi.trans.insert.2, align 4, !tbaa !47
  %60 = load float, float* %m_fGain, align 4, !tbaa !60
  %add.ptr.i.2 = getelementptr inbounds float, float* %15, i64 %indvars.iv.next.1
  %mul227.2 = fmul fast float %.pre.2, %60
  store float %mul227.2, float* %add.ptr.i.2, align 4, !tbaa !47
  %indvars.iv.next.2 = add nuw nsw i64 %indvars.iv.next371, 3
  %add.ptr.i.phi.trans.insert.3 = getelementptr inbounds float, float* %15, i64 %indvars.iv.next.2
  %.pre.3 = load float, float* %add.ptr.i.phi.trans.insert.3, align 4, !tbaa !47
  %61 = load float, float* %m_fGain, align 4, !tbaa !60
  %add.ptr.i.3 = getelementptr inbounds float, float* %15, i64 %indvars.iv.next.2
  %mul227.3 = fmul fast float %.pre.3, %61
  store float %mul227.3, float* %add.ptr.i.3, align 4, !tbaa !47
  %indvars.iv.next.3 = add nuw nsw i64 %indvars.iv.next371, 4
  %niter.nsub.3 = add i64 %niter, -4
  %niter.ncmp.3 = icmp eq i64 %niter.nsub.3, 0
  br i1 %niter.ncmp.3, label %for.cond.cleanup.loopexit.unr-lcssa, label %for.body.for.body_crit_edge
}

; Function Attrs: nounwind readnone speculatable
declare float @llvm.cos.f32(float) #9

; Function Attrs: nounwind readnone speculatable
declare float @llvm.sin.f32(float) #9

; Function Attrs: nofree norecurse nounwind uwtable writeonly
define void @_ZN16CAmbisonicSource11SetPositionE10PolarPoint(%class.CAmbisonicSource* nocapture %this, <2 x float> %polPosition.coerce0, float %polPosition.coerce1) unnamed_addr #10 align 2 {
entry:
  %polPosition.sroa.0.0..sroa_idx = getelementptr inbounds %class.CAmbisonicSource, %class.CAmbisonicSource* %this, i64 0, i32 3
  %polPosition.sroa.0.0..sroa_cast = bitcast %struct.PolarPoint* %polPosition.sroa.0.0..sroa_idx to <2 x float>*
  store <2 x float> %polPosition.coerce0, <2 x float>* %polPosition.sroa.0.0..sroa_cast, align 8
  %polPosition.sroa.2.0..sroa_idx3 = getelementptr inbounds %class.CAmbisonicSource, %class.CAmbisonicSource* %this, i64 0, i32 3, i32 2
  store float %polPosition.coerce1, float* %polPosition.sroa.2.0..sroa_idx3, align 8
  ret void
}

; Function Attrs: argmemonly nounwind
declare void @llvm.memcpy.p0i8.p0i8.i64(i8* nocapture writeonly, i8* nocapture readonly, i64, i1 immarg) #4

; Function Attrs: norecurse nounwind readonly uwtable
define { <2 x float>, float } @_ZN16CAmbisonicSource11GetPositionEv(%class.CAmbisonicSource* nocapture readonly %this) unnamed_addr #6 align 2 {
entry:
  %retval.sroa.0.0..sroa_idx = getelementptr inbounds %class.CAmbisonicSource, %class.CAmbisonicSource* %this, i64 0, i32 3
  %retval.sroa.0.0..sroa_cast = bitcast %struct.PolarPoint* %retval.sroa.0.0..sroa_idx to <2 x float>*
  %retval.sroa.0.0.copyload = load <2 x float>, <2 x float>* %retval.sroa.0.0..sroa_cast, align 8
  %retval.sroa.2.0..sroa_idx3 = getelementptr inbounds %class.CAmbisonicSource, %class.CAmbisonicSource* %this, i64 0, i32 3, i32 2
  %retval.sroa.2.0.copyload = load float, float* %retval.sroa.2.0..sroa_idx3, align 8
  %.fca.0.insert = insertvalue { <2 x float>, float } undef, <2 x float> %retval.sroa.0.0.copyload, 0
  %.fca.1.insert = insertvalue { <2 x float>, float } %.fca.0.insert, float %retval.sroa.2.0.copyload, 1
  ret { <2 x float>, float } %.fca.1.insert
}

; Function Attrs: nofree norecurse nounwind uwtable
define void @_ZN16CAmbisonicSource14SetOrderWeightEjf(%class.CAmbisonicSource* nocapture readonly %this, i32 %nOrder, float %fWeight) unnamed_addr #11 align 2 {
entry:
  %conv = zext i32 %nOrder to i64
  %_M_start.i = getelementptr inbounds %class.CAmbisonicSource, %class.CAmbisonicSource* %this, i64 0, i32 2, i32 0, i32 0, i32 0, i32 0
  %0 = load float*, float** %_M_start.i, align 8, !tbaa !63
  %add.ptr.i = getelementptr inbounds float, float* %0, i64 %conv
  store float %fWeight, float* %add.ptr.i, align 4, !tbaa !47
  ret void
}

; Function Attrs: nofree norecurse nounwind uwtable
define void @_ZN16CAmbisonicSource17SetOrderWeightAllEf(%class.CAmbisonicSource* nocapture readonly %this, float %fWeight) unnamed_addr #11 align 2 {
entry:
  %0 = getelementptr inbounds %class.CAmbisonicSource, %class.CAmbisonicSource* %this, i64 0, i32 0, i32 1
  %1 = load i32, i32* %0, align 8, !tbaa !49
  %cmp6 = icmp eq i32 %1, -1
  br i1 %cmp6, label %for.cond.cleanup, label %for.body.lr.ph

for.body.lr.ph:                                   ; preds = %entry
  %_M_start.i = getelementptr inbounds %class.CAmbisonicSource, %class.CAmbisonicSource* %this, i64 0, i32 2, i32 0, i32 0, i32 0, i32 0
  %2 = load float*, float** %_M_start.i, align 8, !tbaa !63
  %add = add nuw i32 %1, 1
  %3 = zext i32 %add to i64
  br label %for.body

for.cond.cleanup:                                 ; preds = %for.body, %entry
  ret void

for.body:                                         ; preds = %for.body, %for.body.lr.ph
  %indvars.iv = phi i64 [ 0, %for.body.lr.ph ], [ %indvars.iv.next, %for.body ]
  %add.ptr.i = getelementptr inbounds float, float* %2, i64 %indvars.iv
  store float %fWeight, float* %add.ptr.i, align 4, !tbaa !47
  %indvars.iv.next = add nuw nsw i64 %indvars.iv, 1
  %cmp = icmp ult i64 %indvars.iv.next, %3
  br i1 %cmp, label %for.body, label %for.cond.cleanup
}

; Function Attrs: nofree norecurse nounwind uwtable
define void @_ZN16CAmbisonicSource14SetCoefficientEjf(%class.CAmbisonicSource* nocapture readonly %this, i32 %nChannel, float %fCoeff) unnamed_addr #11 align 2 {
entry:
  %conv = zext i32 %nChannel to i64
  %_M_start.i = getelementptr inbounds %class.CAmbisonicSource, %class.CAmbisonicSource* %this, i64 0, i32 1, i32 0, i32 0, i32 0, i32 0
  %0 = load float*, float** %_M_start.i, align 8, !tbaa !63
  %add.ptr.i = getelementptr inbounds float, float* %0, i64 %conv
  store float %fCoeff, float* %add.ptr.i, align 4, !tbaa !47
  ret void
}

; Function Attrs: norecurse nounwind readonly uwtable
define float @_ZN16CAmbisonicSource14GetOrderWeightEj(%class.CAmbisonicSource* nocapture readonly %this, i32 %nOrder) unnamed_addr #6 align 2 {
entry:
  %conv = zext i32 %nOrder to i64
  %_M_start.i = getelementptr inbounds %class.CAmbisonicSource, %class.CAmbisonicSource* %this, i64 0, i32 2, i32 0, i32 0, i32 0, i32 0
  %0 = load float*, float** %_M_start.i, align 8, !tbaa !63
  %add.ptr.i = getelementptr inbounds float, float* %0, i64 %conv
  %1 = load float, float* %add.ptr.i, align 4, !tbaa !47
  ret float %1
}

; Function Attrs: norecurse nounwind readonly uwtable
define float @_ZN16CAmbisonicSource14GetCoefficientEj(%class.CAmbisonicSource* nocapture readonly %this, i32 %nChannel) unnamed_addr #6 align 2 {
entry:
  %conv = zext i32 %nChannel to i64
  %_M_start.i = getelementptr inbounds %class.CAmbisonicSource, %class.CAmbisonicSource* %this, i64 0, i32 1, i32 0, i32 0, i32 0, i32 0
  %0 = load float*, float** %_M_start.i, align 8, !tbaa !63
  %add.ptr.i = getelementptr inbounds float, float* %0, i64 %conv
  %1 = load float, float* %add.ptr.i, align 4, !tbaa !47
  ret float %1
}

; Function Attrs: nofree norecurse nounwind uwtable writeonly
define void @_ZN16CAmbisonicSource7SetGainEf(%class.CAmbisonicSource* nocapture %this, float %fGain) unnamed_addr #5 align 2 {
entry:
  %m_fGain = getelementptr inbounds %class.CAmbisonicSource, %class.CAmbisonicSource* %this, i64 0, i32 4
  store float %fGain, float* %m_fGain, align 4, !tbaa !60
  ret void
}

; Function Attrs: norecurse nounwind readonly uwtable
define float @_ZN16CAmbisonicSource7GetGainEv(%class.CAmbisonicSource* nocapture readonly %this) unnamed_addr #6 align 2 {
entry:
  %m_fGain = getelementptr inbounds %class.CAmbisonicSource, %class.CAmbisonicSource* %this, i64 0, i32 4
  %0 = load float, float* %m_fGain, align 4, !tbaa !60
  ret float %0
}

; Function Attrs: nounwind uwtable
define void @_ZN8CBFormatC2Ev(%class.CBFormat* nocapture %this) unnamed_addr #3 align 2 {
entry:
  %0 = getelementptr inbounds %class.CBFormat, %class.CBFormat* %this, i64 0, i32 0, i32 0
  %1 = getelementptr inbounds %class.CBFormat, %class.CBFormat* %this, i64 0, i32 0, i32 1
  store i32 0, i32* %1, align 8, !tbaa !49
  %2 = getelementptr inbounds %class.CBFormat, %class.CBFormat* %this, i64 0, i32 0, i32 2
  store i8 0, i8* %2, align 4, !tbaa !52
  %3 = getelementptr inbounds %class.CBFormat, %class.CBFormat* %this, i64 0, i32 0, i32 4
  store i32 0, i32* %3, align 8, !tbaa !53
  %4 = getelementptr inbounds %class.CBFormat, %class.CBFormat* %this, i64 0, i32 0, i32 5
  store i8 0, i8* %4, align 4, !tbaa !54
  store i32 (...)** bitcast (i8** getelementptr inbounds ({ [7 x i8*] }, { [7 x i8*] }* @_ZTV8CBFormat, i64 0, inrange i32 0, i64 2) to i32 (...)**), i32 (...)*** %0, align 8, !tbaa !40
  %m_nSamples = getelementptr inbounds %class.CBFormat, %class.CBFormat* %this, i64 0, i32 1
  %5 = bitcast i32* %m_nSamples to i8*
  call void @llvm.memset.p0i8.i64(i8* nonnull align 8 %5, i8 0, i64 40, i1 false)
  ret void
}

; Function Attrs: norecurse nounwind readonly uwtable
define i32 @_ZN8CBFormat14GetSampleCountEv(%class.CBFormat* nocapture readonly %this) local_unnamed_addr #6 align 2 {
entry:
  %m_nSamples = getelementptr inbounds %class.CBFormat, %class.CBFormat* %this, i64 0, i32 1
  %0 = load i32, i32* %m_nSamples, align 8, !tbaa !68
  ret i32 %0
}

; Function Attrs: nounwind uwtable
define zeroext i1 @_ZN8CBFormat9ConfigureEjbj(%class.CBFormat* %this, i32 %nOrder, i1 zeroext %b3D, i32 %nSampleCount) unnamed_addr #3 align 2 {
entry:
  %frombool.i = zext i1 %b3D to i8
  %0 = getelementptr inbounds %class.CBFormat, %class.CBFormat* %this, i64 0, i32 0, i32 1
  store i32 %nOrder, i32* %0, align 8, !tbaa !49
  %1 = getelementptr inbounds %class.CBFormat, %class.CBFormat* %this, i64 0, i32 0, i32 2
  store i8 %frombool.i, i8* %1, align 4, !tbaa !52
  %call.i = tail call i32 @_Z17OrderToComponentsjb(i32 %nOrder, i1 zeroext %b3D) #24
  %2 = getelementptr inbounds %class.CBFormat, %class.CBFormat* %this, i64 0, i32 0, i32 4
  store i32 %call.i, i32* %2, align 8, !tbaa !53
  %m_nSamples = getelementptr inbounds %class.CBFormat, %class.CBFormat* %this, i64 0, i32 1
  store i32 %nSampleCount, i32* %m_nSamples, align 8, !tbaa !68
  %mul = mul i32 %call.i, %nSampleCount
  %m_nDataLength = getelementptr inbounds %class.CBFormat, %class.CBFormat* %this, i64 0, i32 2
  store i32 %mul, i32* %m_nDataLength, align 4, !tbaa !73
  %m_pfData = getelementptr inbounds %class.CBFormat, %class.CBFormat* %this, i64 0, i32 3
  %conv = zext i32 %mul to i64
  %_M_finish.i.i = getelementptr inbounds %class.CBFormat, %class.CBFormat* %this, i64 0, i32 3, i32 0, i32 0, i32 0, i32 1
  %3 = bitcast float** %_M_finish.i.i to i64*
  %4 = load i64, i64* %3, align 8, !tbaa !61
  %5 = bitcast %"class.std::vector.0"* %m_pfData to i64*
  %6 = load i64, i64* %5, align 8, !tbaa !63
  %sub.ptr.sub.i.i = sub i64 %4, %6
  %sub.ptr.div.i.i = ashr exact i64 %sub.ptr.sub.i.i, 2
  %cmp.i = icmp ult i64 %sub.ptr.div.i.i, %conv
  %7 = inttoptr i64 %6 to float*
  %8 = inttoptr i64 %4 to float*
  %9 = inttoptr i64 %6 to i8*
  br i1 %cmp.i, label %if.then.i, label %if.else.i

if.then.i:                                        ; preds = %entry
  %sub.i = sub nsw i64 %conv, %sub.ptr.div.i.i
  tail call void @_ZNSt6vectorIfSaIfEE17_M_default_appendEm(%"class.std::vector.0"* nonnull %m_pfData, i64 %sub.i) #24
  %.phi.trans.insert = bitcast %"class.std::vector.0"* %m_pfData to i8**
  %.pre = load i8*, i8** %.phi.trans.insert, align 8, !tbaa !63
  %.pre33 = load i32, i32* %m_nDataLength, align 4, !tbaa !73
  %.pre35 = zext i32 %.pre33 to i64
  br label %_ZNSt6vectorIfSaIfEE6resizeEm.exit

if.else.i:                                        ; preds = %entry
  %cmp4.i = icmp ugt i64 %sub.ptr.div.i.i, %conv
  br i1 %cmp4.i, label %if.then5.i, label %_ZNSt6vectorIfSaIfEE6resizeEm.exit

if.then5.i:                                       ; preds = %if.else.i
  %add.ptr.i = getelementptr inbounds float, float* %7, i64 %conv
  %tobool.i.i = icmp eq float* %add.ptr.i, %8
  br i1 %tobool.i.i, label %_ZNSt6vectorIfSaIfEE6resizeEm.exit, label %if.then.i.i

if.then.i.i:                                      ; preds = %if.then5.i
  store float* %add.ptr.i, float** %_M_finish.i.i, align 8, !tbaa !61
  br label %_ZNSt6vectorIfSaIfEE6resizeEm.exit

_ZNSt6vectorIfSaIfEE6resizeEm.exit:               ; preds = %if.then.i.i, %if.then5.i, %if.else.i, %if.then.i
  %conv9.pre-phi = phi i64 [ %.pre35, %if.then.i ], [ %conv, %if.else.i ], [ %conv, %if.then5.i ], [ %conv, %if.then.i.i ]
  %10 = phi i8* [ %.pre, %if.then.i ], [ %9, %if.else.i ], [ %9, %if.then5.i ], [ %9, %if.then.i.i ]
  %_M_start.i = getelementptr inbounds %"class.std::vector.0", %"class.std::vector.0"* %m_pfData, i64 0, i32 0, i32 0, i32 0, i32 0
  %mul10 = shl nuw nsw i64 %conv9.pre-phi, 2
  tail call void @llvm.memset.p0i8.i64(i8* align 4 %10, i8 0, i64 %mul10, i1 false)
  %m_ppfChannels = getelementptr inbounds %class.CBFormat, %class.CBFormat* %this, i64 0, i32 4
  %11 = load i32, i32* %2, align 8, !tbaa !53
  %conv12 = zext i32 %11 to i64
  %12 = shl nuw nsw i64 %conv12, 3
  %call13 = tail call i8* @_Znam(i64 %12) #25
  %13 = ptrtoint i8* %call13 to i64
  %14 = bitcast %"class.std::unique_ptr"* %m_ppfChannels to i64*
  %15 = getelementptr inbounds %"class.std::unique_ptr", %"class.std::unique_ptr"* %m_ppfChannels, i64 0, i32 0, i32 0, i32 0, i32 0, i32 0
  %16 = load float**, float*** %15, align 8, !tbaa !43
  store i64 %13, i64* %14, align 8, !tbaa !43
  %cmp.i30 = icmp eq float** %16, null
  br i1 %cmp.i30, label %_ZNSt10unique_ptrIA_PfSt14default_deleteIS1_EE5resetIPS0_vEEvT_.exit, label %_ZNKSt14default_deleteIA_PfEclIS0_EENSt9enable_ifIXsr14is_convertibleIPA_T_PS1_EE5valueEvE4typeEPS5_.exit.i

_ZNKSt14default_deleteIA_PfEclIS0_EENSt9enable_ifIXsr14is_convertibleIPA_T_PS1_EE5valueEvE4typeEPS5_.exit.i: ; preds = %_ZNSt6vectorIfSaIfEE6resizeEm.exit
  %17 = bitcast float** %16 to i8*
  tail call void @_ZdaPv(i8* %17) #25
  %.pre34 = load i32, i32* %2, align 8, !tbaa !53
  br label %_ZNSt10unique_ptrIA_PfSt14default_deleteIS1_EE5resetIPS0_vEEvT_.exit

_ZNSt10unique_ptrIA_PfSt14default_deleteIS1_EE5resetIPS0_vEEvT_.exit: ; preds = %_ZNKSt14default_deleteIA_PfEclIS0_EENSt9enable_ifIXsr14is_convertibleIPA_T_PS1_EE5valueEvE4typeEPS5_.exit.i, %_ZNSt6vectorIfSaIfEE6resizeEm.exit
  %18 = phi i32 [ %11, %_ZNSt6vectorIfSaIfEE6resizeEm.exit ], [ %.pre34, %_ZNKSt14default_deleteIA_PfEclIS0_EENSt9enable_ifIXsr14is_convertibleIPA_T_PS1_EE5valueEvE4typeEPS5_.exit.i ]
  %cmp31 = icmp eq i32 %18, 0
  br i1 %cmp31, label %cleanup, label %for.body.lr.ph

for.body.lr.ph:                                   ; preds = %_ZNSt10unique_ptrIA_PfSt14default_deleteIS1_EE5resetIPS0_vEEvT_.exit
  %19 = load i32, i32* %m_nSamples, align 8, !tbaa !68
  %20 = zext i32 %18 to i64
  %21 = add nsw i64 %20, -1
  %xtraiter = and i64 %20, 3
  %22 = icmp ult i64 %21, 3
  br i1 %22, label %cleanup.loopexit.unr-lcssa, label %for.body.lr.ph.new

for.body.lr.ph.new:                               ; preds = %for.body.lr.ph
  %unroll_iter = sub nsw i64 %20, %xtraiter
  br label %for.body

for.body:                                         ; preds = %for.body, %for.body.lr.ph.new
  %indvars.iv = phi i64 [ 0, %for.body.lr.ph.new ], [ %indvars.iv.next.3, %for.body ]
  %niter = phi i64 [ %unroll_iter, %for.body.lr.ph.new ], [ %niter.nsub.3, %for.body ]
  %23 = trunc i64 %indvars.iv to i32
  %mul17 = mul i32 %19, %23
  %conv18 = zext i32 %mul17 to i64
  %24 = load float*, float** %_M_start.i, align 8, !tbaa !63
  %add.ptr.i29 = getelementptr inbounds float, float* %24, i64 %conv18
  %25 = load float**, float*** %15, align 8, !tbaa !43
  %arrayidx.i = getelementptr inbounds float*, float** %25, i64 %indvars.iv
  store float* %add.ptr.i29, float** %arrayidx.i, align 8, !tbaa !43
  %indvars.iv.next = or i64 %indvars.iv, 1
  %26 = trunc i64 %indvars.iv.next to i32
  %mul17.1 = mul i32 %19, %26
  %conv18.1 = zext i32 %mul17.1 to i64
  %27 = load float*, float** %_M_start.i, align 8, !tbaa !63
  %add.ptr.i29.1 = getelementptr inbounds float, float* %27, i64 %conv18.1
  %28 = load float**, float*** %15, align 8, !tbaa !43
  %arrayidx.i.1 = getelementptr inbounds float*, float** %28, i64 %indvars.iv.next
  store float* %add.ptr.i29.1, float** %arrayidx.i.1, align 8, !tbaa !43
  %indvars.iv.next.1 = or i64 %indvars.iv, 2
  %29 = trunc i64 %indvars.iv.next.1 to i32
  %mul17.2 = mul i32 %19, %29
  %conv18.2 = zext i32 %mul17.2 to i64
  %30 = load float*, float** %_M_start.i, align 8, !tbaa !63
  %add.ptr.i29.2 = getelementptr inbounds float, float* %30, i64 %conv18.2
  %31 = load float**, float*** %15, align 8, !tbaa !43
  %arrayidx.i.2 = getelementptr inbounds float*, float** %31, i64 %indvars.iv.next.1
  store float* %add.ptr.i29.2, float** %arrayidx.i.2, align 8, !tbaa !43
  %indvars.iv.next.2 = or i64 %indvars.iv, 3
  %32 = trunc i64 %indvars.iv.next.2 to i32
  %mul17.3 = mul i32 %19, %32
  %conv18.3 = zext i32 %mul17.3 to i64
  %33 = load float*, float** %_M_start.i, align 8, !tbaa !63
  %add.ptr.i29.3 = getelementptr inbounds float, float* %33, i64 %conv18.3
  %34 = load float**, float*** %15, align 8, !tbaa !43
  %arrayidx.i.3 = getelementptr inbounds float*, float** %34, i64 %indvars.iv.next.2
  store float* %add.ptr.i29.3, float** %arrayidx.i.3, align 8, !tbaa !43
  %indvars.iv.next.3 = add nuw nsw i64 %indvars.iv, 4
  %niter.nsub.3 = add i64 %niter, -4
  %niter.ncmp.3 = icmp eq i64 %niter.nsub.3, 0
  br i1 %niter.ncmp.3, label %cleanup.loopexit.unr-lcssa, label %for.body

cleanup.loopexit.unr-lcssa:                       ; preds = %for.body, %for.body.lr.ph
  %indvars.iv.unr = phi i64 [ 0, %for.body.lr.ph ], [ %indvars.iv.next.3, %for.body ]
  %lcmp.mod = icmp eq i64 %xtraiter, 0
  br i1 %lcmp.mod, label %cleanup, label %for.body.epil

for.body.epil:                                    ; preds = %for.body.epil, %cleanup.loopexit.unr-lcssa
  %indvars.iv.epil = phi i64 [ %indvars.iv.next.epil, %for.body.epil ], [ %indvars.iv.unr, %cleanup.loopexit.unr-lcssa ]
  %epil.iter = phi i64 [ %epil.iter.sub, %for.body.epil ], [ %xtraiter, %cleanup.loopexit.unr-lcssa ]
  %35 = trunc i64 %indvars.iv.epil to i32
  %mul17.epil = mul i32 %19, %35
  %conv18.epil = zext i32 %mul17.epil to i64
  %36 = load float*, float** %_M_start.i, align 8, !tbaa !63
  %add.ptr.i29.epil = getelementptr inbounds float, float* %36, i64 %conv18.epil
  %37 = load float**, float*** %15, align 8, !tbaa !43
  %arrayidx.i.epil = getelementptr inbounds float*, float** %37, i64 %indvars.iv.epil
  store float* %add.ptr.i29.epil, float** %arrayidx.i.epil, align 8, !tbaa !43
  %indvars.iv.next.epil = add nuw nsw i64 %indvars.iv.epil, 1
  %epil.iter.sub = add i64 %epil.iter, -1
  %epil.iter.cmp = icmp eq i64 %epil.iter.sub, 0
  br i1 %epil.iter.cmp, label %cleanup, label %for.body.epil, !llvm.loop !74

cleanup:                                          ; preds = %for.body.epil, %cleanup.loopexit.unr-lcssa, %_ZNSt10unique_ptrIA_PfSt14default_deleteIS1_EE5resetIPS0_vEEvT_.exit
  ret i1 true
}

; Function Attrs: argmemonly nounwind
declare void @llvm.memset.p0i8.i64(i8* nocapture writeonly, i8, i64, i1 immarg) #4

; Function Attrs: nobuiltin nofree
declare noalias nonnull i8* @_Znam(i64) local_unnamed_addr #12

; Function Attrs: nounwind uwtable
define void @_ZN8CBFormat5ResetEv(%class.CBFormat* nocapture readonly %this) unnamed_addr #3 align 2 {
entry:
  %_M_start.i = getelementptr inbounds %class.CBFormat, %class.CBFormat* %this, i64 0, i32 3, i32 0, i32 0, i32 0, i32 0
  %0 = bitcast float** %_M_start.i to i8**
  %1 = load i8*, i8** %0, align 8, !tbaa !63
  %m_nDataLength = getelementptr inbounds %class.CBFormat, %class.CBFormat* %this, i64 0, i32 2
  %2 = load i32, i32* %m_nDataLength, align 4, !tbaa !73
  %conv = zext i32 %2 to i64
  %mul = shl nuw nsw i64 %conv, 2
  tail call void @llvm.memset.p0i8.i64(i8* align 4 %1, i8 0, i64 %mul, i1 false)
  ret void
}

; Function Attrs: norecurse nounwind readnone uwtable
define void @_ZN8CBFormat7RefreshEv(%class.CBFormat* nocapture %this) unnamed_addr #7 align 2 {
entry:
  ret void
}

; Function Attrs: nounwind uwtable
define void @_ZN8CBFormat12InsertStreamEPfjj(%class.CBFormat* nocapture readonly %this, float* nocapture readonly %pfData, i32 %nChannel, i32 %nSamples) local_unnamed_addr #3 align 2 {
entry:
  %conv = zext i32 %nChannel to i64
  %_M_head_impl.i.i.i.i.i.i.i = getelementptr inbounds %class.CBFormat, %class.CBFormat* %this, i64 0, i32 4, i32 0, i32 0, i32 0, i32 0, i32 0
  %0 = load float**, float*** %_M_head_impl.i.i.i.i.i.i.i, align 8, !tbaa !43
  %arrayidx.i = getelementptr inbounds float*, float** %0, i64 %conv
  %1 = bitcast float** %arrayidx.i to i8**
  %2 = load i8*, i8** %1, align 8, !tbaa !43
  %3 = bitcast float* %pfData to i8*
  %conv2 = zext i32 %nSamples to i64
  %mul = shl nuw nsw i64 %conv2, 2
  tail call void @llvm.memcpy.p0i8.p0i8.i64(i8* align 4 %2, i8* align 4 %3, i64 %mul, i1 false)
  ret void
}

; Function Attrs: nounwind uwtable
define void @_ZN8CBFormat13ExtractStreamEPfjj(%class.CBFormat* nocapture readonly %this, float* nocapture %pfData, i32 %nChannel, i32 %nSamples) local_unnamed_addr #3 align 2 {
entry:
  %0 = bitcast float* %pfData to i8*
  %conv = zext i32 %nChannel to i64
  %_M_head_impl.i.i.i.i.i.i.i = getelementptr inbounds %class.CBFormat, %class.CBFormat* %this, i64 0, i32 4, i32 0, i32 0, i32 0, i32 0, i32 0
  %1 = load float**, float*** %_M_head_impl.i.i.i.i.i.i.i, align 8, !tbaa !43
  %arrayidx.i = getelementptr inbounds float*, float** %1, i64 %conv
  %2 = bitcast float** %arrayidx.i to i8**
  %3 = load i8*, i8** %2, align 8, !tbaa !43
  %conv2 = zext i32 %nSamples to i64
  %mul = shl nuw nsw i64 %conv2, 2
  tail call void @llvm.memcpy.p0i8.p0i8.i64(i8* align 4 %0, i8* align 4 %3, i64 %mul, i1 false)
  ret void
}

; Function Attrs: nounwind uwtable
define void @_ZN8CBFormataSERKS_(%class.CBFormat* nocapture readonly %this, %class.CBFormat* nocapture readonly dereferenceable(64) %bf) local_unnamed_addr #3 align 2 {
entry:
  %_M_start.i = getelementptr inbounds %class.CBFormat, %class.CBFormat* %this, i64 0, i32 3, i32 0, i32 0, i32 0, i32 0
  %0 = bitcast float** %_M_start.i to i8**
  %1 = load i8*, i8** %0, align 8, !tbaa !63
  %_M_start.i4 = getelementptr inbounds %class.CBFormat, %class.CBFormat* %bf, i64 0, i32 3, i32 0, i32 0, i32 0, i32 0
  %2 = bitcast float** %_M_start.i4 to i8**
  %3 = load i8*, i8** %2, align 8, !tbaa !63
  %m_nDataLength = getelementptr inbounds %class.CBFormat, %class.CBFormat* %this, i64 0, i32 2
  %4 = load i32, i32* %m_nDataLength, align 4, !tbaa !73
  %conv = zext i32 %4 to i64
  %mul = shl nuw nsw i64 %conv, 2
  tail call void @llvm.memcpy.p0i8.p0i8.i64(i8* align 4 %1, i8* align 4 %3, i64 %mul, i1 false)
  ret void
}

; Function Attrs: norecurse nounwind readonly uwtable
define zeroext i1 @_ZN8CBFormateqERKS_(%class.CBFormat* nocapture readonly %this, %class.CBFormat* nocapture readonly dereferenceable(64) %bf) local_unnamed_addr #6 align 2 {
entry:
  %0 = getelementptr inbounds %class.CBFormat, %class.CBFormat* %this, i64 0, i32 0, i32 2
  %1 = load i8, i8* %0, align 4, !tbaa !52, !range !55
  %2 = getelementptr inbounds %class.CBFormat, %class.CBFormat* %bf, i64 0, i32 0, i32 2
  %3 = load i8, i8* %2, align 4, !tbaa !52, !range !55
  %cmp = icmp eq i8 %1, %3
  br i1 %cmp, label %land.lhs.true, label %if.else

land.lhs.true:                                    ; preds = %entry
  %4 = getelementptr inbounds %class.CBFormat, %class.CBFormat* %this, i64 0, i32 0, i32 1
  %5 = load i32, i32* %4, align 8, !tbaa !49
  %6 = getelementptr inbounds %class.CBFormat, %class.CBFormat* %bf, i64 0, i32 0, i32 1
  %7 = load i32, i32* %6, align 8, !tbaa !49
  %cmp6 = icmp eq i32 %5, %7
  br i1 %cmp6, label %land.lhs.true7, label %if.else

land.lhs.true7:                                   ; preds = %land.lhs.true
  %m_nDataLength = getelementptr inbounds %class.CBFormat, %class.CBFormat* %this, i64 0, i32 2
  %8 = load i32, i32* %m_nDataLength, align 4, !tbaa !73
  %m_nDataLength8 = getelementptr inbounds %class.CBFormat, %class.CBFormat* %bf, i64 0, i32 2
  %9 = load i32, i32* %m_nDataLength8, align 4, !tbaa !73
  %cmp9 = icmp eq i32 %8, %9
  br i1 %cmp9, label %return, label %if.else

if.else:                                          ; preds = %land.lhs.true7, %land.lhs.true, %entry
  br label %return

return:                                           ; preds = %if.else, %land.lhs.true7
  %retval.0 = phi i1 [ false, %if.else ], [ true, %land.lhs.true7 ]
  ret i1 %retval.0
}

; Function Attrs: norecurse nounwind readonly uwtable
define zeroext i1 @_ZN8CBFormatneERKS_(%class.CBFormat* nocapture readonly %this, %class.CBFormat* nocapture readonly dereferenceable(64) %bf) local_unnamed_addr #6 align 2 {
entry:
  %0 = getelementptr inbounds %class.CBFormat, %class.CBFormat* %this, i64 0, i32 0, i32 2
  %1 = load i8, i8* %0, align 4, !tbaa !52, !range !55
  %2 = getelementptr inbounds %class.CBFormat, %class.CBFormat* %bf, i64 0, i32 0, i32 2
  %3 = load i8, i8* %2, align 4, !tbaa !52, !range !55
  %cmp = icmp eq i8 %1, %3
  br i1 %cmp, label %lor.lhs.false, label %return

lor.lhs.false:                                    ; preds = %entry
  %4 = getelementptr inbounds %class.CBFormat, %class.CBFormat* %this, i64 0, i32 0, i32 1
  %5 = load i32, i32* %4, align 8, !tbaa !49
  %6 = getelementptr inbounds %class.CBFormat, %class.CBFormat* %bf, i64 0, i32 0, i32 1
  %7 = load i32, i32* %6, align 8, !tbaa !49
  %cmp6 = icmp eq i32 %5, %7
  br i1 %cmp6, label %lor.lhs.false7, label %return

lor.lhs.false7:                                   ; preds = %lor.lhs.false
  %m_nDataLength = getelementptr inbounds %class.CBFormat, %class.CBFormat* %this, i64 0, i32 2
  %8 = load i32, i32* %m_nDataLength, align 4, !tbaa !73
  %m_nDataLength8 = getelementptr inbounds %class.CBFormat, %class.CBFormat* %bf, i64 0, i32 2
  %9 = load i32, i32* %m_nDataLength8, align 4, !tbaa !73
  %cmp9 = icmp ne i32 %8, %9
  ret i1 %cmp9

return:                                           ; preds = %lor.lhs.false, %entry
  ret i1 true
}

; Function Attrs: nofree norecurse nounwind uwtable
define dereferenceable(64) %class.CBFormat* @_ZN8CBFormatpLERKS_(%class.CBFormat* readonly returned %this, %class.CBFormat* nocapture readonly dereferenceable(64) %bf) local_unnamed_addr #11 align 2 {
entry:
  %0 = getelementptr inbounds %class.CBFormat, %class.CBFormat* %this, i64 0, i32 0, i32 4
  %1 = load i32, i32* %0, align 8, !tbaa !53
  %cmp25 = icmp eq i32 %1, 0
  br i1 %cmp25, label %for.end12, label %for.cond2.preheader.lr.ph

for.cond2.preheader.lr.ph:                        ; preds = %entry
  %m_nSamples = getelementptr inbounds %class.CBFormat, %class.CBFormat* %this, i64 0, i32 1
  %2 = load i32, i32* %m_nSamples, align 8, !tbaa !68
  %cmp323 = icmp eq i32 %2, 0
  %_M_head_impl.i.i.i.i.i.i.i = getelementptr inbounds %class.CBFormat, %class.CBFormat* %bf, i64 0, i32 4, i32 0, i32 0, i32 0, i32 0, i32 0
  %3 = load float**, float*** %_M_head_impl.i.i.i.i.i.i.i, align 8
  br i1 %cmp323, label %for.end12, label %for.cond2.preheader.us.preheader

for.cond2.preheader.us.preheader:                 ; preds = %for.cond2.preheader.lr.ph
  %_M_head_impl.i.i.i.i.i.i.i21 = getelementptr inbounds %class.CBFormat, %class.CBFormat* %this, i64 0, i32 4, i32 0, i32 0, i32 0, i32 0, i32 0
  %4 = zext i32 %1 to i64
  %.pre = load float**, float*** %_M_head_impl.i.i.i.i.i.i.i21, align 8, !tbaa !43
  %5 = zext i32 %2 to i64
  %6 = add nsw i64 %5, -1
  %xtraiter = and i64 %5, 3
  %7 = icmp ult i64 %6, 3
  %unroll_iter = sub nsw i64 %5, %xtraiter
  %lcmp.mod = icmp eq i64 %xtraiter, 0
  br label %for.cond2.preheader.us

for.cond2.preheader.us:                           ; preds = %for.cond2.for.inc10_crit_edge.us, %for.cond2.preheader.us.preheader
  %indvars.iv29 = phi i64 [ 0, %for.cond2.preheader.us.preheader ], [ %indvars.iv.next30, %for.cond2.for.inc10_crit_edge.us ]
  %arrayidx.i.us = getelementptr inbounds float*, float** %3, i64 %indvars.iv29
  %8 = load float*, float** %arrayidx.i.us, align 8, !tbaa !43
  %arrayidx.i22.us = getelementptr inbounds float*, float** %.pre, i64 %indvars.iv29
  %9 = load float*, float** %arrayidx.i22.us, align 8, !tbaa !43
  br i1 %7, label %for.cond2.for.inc10_crit_edge.us.unr-lcssa, label %for.body4.us

for.body4.us:                                     ; preds = %for.body4.us, %for.cond2.preheader.us
  %indvars.iv = phi i64 [ %indvars.iv.next.3, %for.body4.us ], [ 0, %for.cond2.preheader.us ]
  %niter = phi i64 [ %niter.nsub.3, %for.body4.us ], [ %unroll_iter, %for.cond2.preheader.us ]
  %arrayidx.us = getelementptr inbounds float, float* %8, i64 %indvars.iv
  %10 = load float, float* %arrayidx.us, align 4, !tbaa !47
  %arrayidx9.us = getelementptr inbounds float, float* %9, i64 %indvars.iv
  %11 = load float, float* %arrayidx9.us, align 4, !tbaa !47
  %add.us = fadd fast float %11, %10
  store float %add.us, float* %arrayidx9.us, align 4, !tbaa !47
  %indvars.iv.next = or i64 %indvars.iv, 1
  %arrayidx.us.1 = getelementptr inbounds float, float* %8, i64 %indvars.iv.next
  %12 = load float, float* %arrayidx.us.1, align 4, !tbaa !47
  %arrayidx9.us.1 = getelementptr inbounds float, float* %9, i64 %indvars.iv.next
  %13 = load float, float* %arrayidx9.us.1, align 4, !tbaa !47
  %add.us.1 = fadd fast float %13, %12
  store float %add.us.1, float* %arrayidx9.us.1, align 4, !tbaa !47
  %indvars.iv.next.1 = or i64 %indvars.iv, 2
  %arrayidx.us.2 = getelementptr inbounds float, float* %8, i64 %indvars.iv.next.1
  %14 = load float, float* %arrayidx.us.2, align 4, !tbaa !47
  %arrayidx9.us.2 = getelementptr inbounds float, float* %9, i64 %indvars.iv.next.1
  %15 = load float, float* %arrayidx9.us.2, align 4, !tbaa !47
  %add.us.2 = fadd fast float %15, %14
  store float %add.us.2, float* %arrayidx9.us.2, align 4, !tbaa !47
  %indvars.iv.next.2 = or i64 %indvars.iv, 3
  %arrayidx.us.3 = getelementptr inbounds float, float* %8, i64 %indvars.iv.next.2
  %16 = load float, float* %arrayidx.us.3, align 4, !tbaa !47
  %arrayidx9.us.3 = getelementptr inbounds float, float* %9, i64 %indvars.iv.next.2
  %17 = load float, float* %arrayidx9.us.3, align 4, !tbaa !47
  %add.us.3 = fadd fast float %17, %16
  store float %add.us.3, float* %arrayidx9.us.3, align 4, !tbaa !47
  %indvars.iv.next.3 = add nuw nsw i64 %indvars.iv, 4
  %niter.nsub.3 = add i64 %niter, -4
  %niter.ncmp.3 = icmp eq i64 %niter.nsub.3, 0
  br i1 %niter.ncmp.3, label %for.cond2.for.inc10_crit_edge.us.unr-lcssa, label %for.body4.us

for.cond2.for.inc10_crit_edge.us.unr-lcssa:       ; preds = %for.body4.us, %for.cond2.preheader.us
  %indvars.iv.unr = phi i64 [ 0, %for.cond2.preheader.us ], [ %indvars.iv.next.3, %for.body4.us ]
  br i1 %lcmp.mod, label %for.cond2.for.inc10_crit_edge.us, label %for.body4.us.epil

for.body4.us.epil:                                ; preds = %for.body4.us.epil, %for.cond2.for.inc10_crit_edge.us.unr-lcssa
  %indvars.iv.epil = phi i64 [ %indvars.iv.next.epil, %for.body4.us.epil ], [ %indvars.iv.unr, %for.cond2.for.inc10_crit_edge.us.unr-lcssa ]
  %epil.iter = phi i64 [ %epil.iter.sub, %for.body4.us.epil ], [ %xtraiter, %for.cond2.for.inc10_crit_edge.us.unr-lcssa ]
  %arrayidx.us.epil = getelementptr inbounds float, float* %8, i64 %indvars.iv.epil
  %18 = load float, float* %arrayidx.us.epil, align 4, !tbaa !47
  %arrayidx9.us.epil = getelementptr inbounds float, float* %9, i64 %indvars.iv.epil
  %19 = load float, float* %arrayidx9.us.epil, align 4, !tbaa !47
  %add.us.epil = fadd fast float %19, %18
  store float %add.us.epil, float* %arrayidx9.us.epil, align 4, !tbaa !47
  %indvars.iv.next.epil = add nuw nsw i64 %indvars.iv.epil, 1
  %epil.iter.sub = add i64 %epil.iter, -1
  %epil.iter.cmp = icmp eq i64 %epil.iter.sub, 0
  br i1 %epil.iter.cmp, label %for.cond2.for.inc10_crit_edge.us, label %for.body4.us.epil, !llvm.loop !75

for.cond2.for.inc10_crit_edge.us:                 ; preds = %for.body4.us.epil, %for.cond2.for.inc10_crit_edge.us.unr-lcssa
  %indvars.iv.next30 = add nuw nsw i64 %indvars.iv29, 1
  %cmp.us = icmp ult i64 %indvars.iv.next30, %4
  br i1 %cmp.us, label %for.cond2.preheader.us, label %for.end12

for.end12:                                        ; preds = %for.cond2.for.inc10_crit_edge.us, %for.cond2.preheader.lr.ph, %entry
  ret %class.CBFormat* %this
}

; Function Attrs: nofree norecurse nounwind uwtable
define dereferenceable(64) %class.CBFormat* @_ZN8CBFormatmIERKS_(%class.CBFormat* readonly returned %this, %class.CBFormat* nocapture readonly dereferenceable(64) %bf) local_unnamed_addr #11 align 2 {
entry:
  %0 = getelementptr inbounds %class.CBFormat, %class.CBFormat* %this, i64 0, i32 0, i32 4
  %1 = load i32, i32* %0, align 8, !tbaa !53
  %cmp25 = icmp eq i32 %1, 0
  br i1 %cmp25, label %for.end12, label %for.cond2.preheader.lr.ph

for.cond2.preheader.lr.ph:                        ; preds = %entry
  %m_nSamples = getelementptr inbounds %class.CBFormat, %class.CBFormat* %this, i64 0, i32 1
  %2 = load i32, i32* %m_nSamples, align 8, !tbaa !68
  %cmp323 = icmp eq i32 %2, 0
  %_M_head_impl.i.i.i.i.i.i.i = getelementptr inbounds %class.CBFormat, %class.CBFormat* %bf, i64 0, i32 4, i32 0, i32 0, i32 0, i32 0, i32 0
  %3 = load float**, float*** %_M_head_impl.i.i.i.i.i.i.i, align 8
  br i1 %cmp323, label %for.end12, label %for.cond2.preheader.us.preheader

for.cond2.preheader.us.preheader:                 ; preds = %for.cond2.preheader.lr.ph
  %_M_head_impl.i.i.i.i.i.i.i21 = getelementptr inbounds %class.CBFormat, %class.CBFormat* %this, i64 0, i32 4, i32 0, i32 0, i32 0, i32 0, i32 0
  %4 = zext i32 %1 to i64
  %.pre = load float**, float*** %_M_head_impl.i.i.i.i.i.i.i21, align 8, !tbaa !43
  %5 = zext i32 %2 to i64
  %6 = add nsw i64 %5, -1
  %xtraiter = and i64 %5, 3
  %7 = icmp ult i64 %6, 3
  %unroll_iter = sub nsw i64 %5, %xtraiter
  %lcmp.mod = icmp eq i64 %xtraiter, 0
  br label %for.cond2.preheader.us

for.cond2.preheader.us:                           ; preds = %for.cond2.for.inc10_crit_edge.us, %for.cond2.preheader.us.preheader
  %indvars.iv29 = phi i64 [ 0, %for.cond2.preheader.us.preheader ], [ %indvars.iv.next30, %for.cond2.for.inc10_crit_edge.us ]
  %arrayidx.i.us = getelementptr inbounds float*, float** %3, i64 %indvars.iv29
  %8 = load float*, float** %arrayidx.i.us, align 8, !tbaa !43
  %arrayidx.i22.us = getelementptr inbounds float*, float** %.pre, i64 %indvars.iv29
  %9 = load float*, float** %arrayidx.i22.us, align 8, !tbaa !43
  br i1 %7, label %for.cond2.for.inc10_crit_edge.us.unr-lcssa, label %for.body4.us

for.body4.us:                                     ; preds = %for.body4.us, %for.cond2.preheader.us
  %indvars.iv = phi i64 [ %indvars.iv.next.3, %for.body4.us ], [ 0, %for.cond2.preheader.us ]
  %niter = phi i64 [ %niter.nsub.3, %for.body4.us ], [ %unroll_iter, %for.cond2.preheader.us ]
  %arrayidx.us = getelementptr inbounds float, float* %8, i64 %indvars.iv
  %10 = load float, float* %arrayidx.us, align 4, !tbaa !47
  %arrayidx9.us = getelementptr inbounds float, float* %9, i64 %indvars.iv
  %11 = load float, float* %arrayidx9.us, align 4, !tbaa !47
  %sub.us = fsub fast float %11, %10
  store float %sub.us, float* %arrayidx9.us, align 4, !tbaa !47
  %indvars.iv.next = or i64 %indvars.iv, 1
  %arrayidx.us.1 = getelementptr inbounds float, float* %8, i64 %indvars.iv.next
  %12 = load float, float* %arrayidx.us.1, align 4, !tbaa !47
  %arrayidx9.us.1 = getelementptr inbounds float, float* %9, i64 %indvars.iv.next
  %13 = load float, float* %arrayidx9.us.1, align 4, !tbaa !47
  %sub.us.1 = fsub fast float %13, %12
  store float %sub.us.1, float* %arrayidx9.us.1, align 4, !tbaa !47
  %indvars.iv.next.1 = or i64 %indvars.iv, 2
  %arrayidx.us.2 = getelementptr inbounds float, float* %8, i64 %indvars.iv.next.1
  %14 = load float, float* %arrayidx.us.2, align 4, !tbaa !47
  %arrayidx9.us.2 = getelementptr inbounds float, float* %9, i64 %indvars.iv.next.1
  %15 = load float, float* %arrayidx9.us.2, align 4, !tbaa !47
  %sub.us.2 = fsub fast float %15, %14
  store float %sub.us.2, float* %arrayidx9.us.2, align 4, !tbaa !47
  %indvars.iv.next.2 = or i64 %indvars.iv, 3
  %arrayidx.us.3 = getelementptr inbounds float, float* %8, i64 %indvars.iv.next.2
  %16 = load float, float* %arrayidx.us.3, align 4, !tbaa !47
  %arrayidx9.us.3 = getelementptr inbounds float, float* %9, i64 %indvars.iv.next.2
  %17 = load float, float* %arrayidx9.us.3, align 4, !tbaa !47
  %sub.us.3 = fsub fast float %17, %16
  store float %sub.us.3, float* %arrayidx9.us.3, align 4, !tbaa !47
  %indvars.iv.next.3 = add nuw nsw i64 %indvars.iv, 4
  %niter.nsub.3 = add i64 %niter, -4
  %niter.ncmp.3 = icmp eq i64 %niter.nsub.3, 0
  br i1 %niter.ncmp.3, label %for.cond2.for.inc10_crit_edge.us.unr-lcssa, label %for.body4.us

for.cond2.for.inc10_crit_edge.us.unr-lcssa:       ; preds = %for.body4.us, %for.cond2.preheader.us
  %indvars.iv.unr = phi i64 [ 0, %for.cond2.preheader.us ], [ %indvars.iv.next.3, %for.body4.us ]
  br i1 %lcmp.mod, label %for.cond2.for.inc10_crit_edge.us, label %for.body4.us.epil

for.body4.us.epil:                                ; preds = %for.body4.us.epil, %for.cond2.for.inc10_crit_edge.us.unr-lcssa
  %indvars.iv.epil = phi i64 [ %indvars.iv.next.epil, %for.body4.us.epil ], [ %indvars.iv.unr, %for.cond2.for.inc10_crit_edge.us.unr-lcssa ]
  %epil.iter = phi i64 [ %epil.iter.sub, %for.body4.us.epil ], [ %xtraiter, %for.cond2.for.inc10_crit_edge.us.unr-lcssa ]
  %arrayidx.us.epil = getelementptr inbounds float, float* %8, i64 %indvars.iv.epil
  %18 = load float, float* %arrayidx.us.epil, align 4, !tbaa !47
  %arrayidx9.us.epil = getelementptr inbounds float, float* %9, i64 %indvars.iv.epil
  %19 = load float, float* %arrayidx9.us.epil, align 4, !tbaa !47
  %sub.us.epil = fsub fast float %19, %18
  store float %sub.us.epil, float* %arrayidx9.us.epil, align 4, !tbaa !47
  %indvars.iv.next.epil = add nuw nsw i64 %indvars.iv.epil, 1
  %epil.iter.sub = add i64 %epil.iter, -1
  %epil.iter.cmp = icmp eq i64 %epil.iter.sub, 0
  br i1 %epil.iter.cmp, label %for.cond2.for.inc10_crit_edge.us, label %for.body4.us.epil, !llvm.loop !76

for.cond2.for.inc10_crit_edge.us:                 ; preds = %for.body4.us.epil, %for.cond2.for.inc10_crit_edge.us.unr-lcssa
  %indvars.iv.next30 = add nuw nsw i64 %indvars.iv29, 1
  %cmp.us = icmp ult i64 %indvars.iv.next30, %4
  br i1 %cmp.us, label %for.cond2.preheader.us, label %for.end12

for.end12:                                        ; preds = %for.cond2.for.inc10_crit_edge.us, %for.cond2.preheader.lr.ph, %entry
  ret %class.CBFormat* %this
}

; Function Attrs: nofree norecurse nounwind uwtable
define dereferenceable(64) %class.CBFormat* @_ZN8CBFormatmLERKS_(%class.CBFormat* readonly returned %this, %class.CBFormat* nocapture readonly dereferenceable(64) %bf) local_unnamed_addr #11 align 2 {
entry:
  %0 = getelementptr inbounds %class.CBFormat, %class.CBFormat* %this, i64 0, i32 0, i32 4
  %1 = load i32, i32* %0, align 8, !tbaa !53
  %cmp25 = icmp eq i32 %1, 0
  br i1 %cmp25, label %for.end12, label %for.cond2.preheader.lr.ph

for.cond2.preheader.lr.ph:                        ; preds = %entry
  %m_nSamples = getelementptr inbounds %class.CBFormat, %class.CBFormat* %this, i64 0, i32 1
  %2 = load i32, i32* %m_nSamples, align 8, !tbaa !68
  %cmp323 = icmp eq i32 %2, 0
  %_M_head_impl.i.i.i.i.i.i.i = getelementptr inbounds %class.CBFormat, %class.CBFormat* %bf, i64 0, i32 4, i32 0, i32 0, i32 0, i32 0, i32 0
  %3 = load float**, float*** %_M_head_impl.i.i.i.i.i.i.i, align 8
  br i1 %cmp323, label %for.end12, label %for.cond2.preheader.us.preheader

for.cond2.preheader.us.preheader:                 ; preds = %for.cond2.preheader.lr.ph
  %_M_head_impl.i.i.i.i.i.i.i21 = getelementptr inbounds %class.CBFormat, %class.CBFormat* %this, i64 0, i32 4, i32 0, i32 0, i32 0, i32 0, i32 0
  %4 = zext i32 %1 to i64
  %.pre = load float**, float*** %_M_head_impl.i.i.i.i.i.i.i21, align 8, !tbaa !43
  %5 = zext i32 %2 to i64
  %6 = add nsw i64 %5, -1
  %xtraiter = and i64 %5, 3
  %7 = icmp ult i64 %6, 3
  %unroll_iter = sub nsw i64 %5, %xtraiter
  %lcmp.mod = icmp eq i64 %xtraiter, 0
  br label %for.cond2.preheader.us

for.cond2.preheader.us:                           ; preds = %for.cond2.for.inc10_crit_edge.us, %for.cond2.preheader.us.preheader
  %indvars.iv29 = phi i64 [ 0, %for.cond2.preheader.us.preheader ], [ %indvars.iv.next30, %for.cond2.for.inc10_crit_edge.us ]
  %arrayidx.i.us = getelementptr inbounds float*, float** %3, i64 %indvars.iv29
  %8 = load float*, float** %arrayidx.i.us, align 8, !tbaa !43
  %arrayidx.i22.us = getelementptr inbounds float*, float** %.pre, i64 %indvars.iv29
  %9 = load float*, float** %arrayidx.i22.us, align 8, !tbaa !43
  br i1 %7, label %for.cond2.for.inc10_crit_edge.us.unr-lcssa, label %for.body4.us

for.body4.us:                                     ; preds = %for.body4.us, %for.cond2.preheader.us
  %indvars.iv = phi i64 [ %indvars.iv.next.3, %for.body4.us ], [ 0, %for.cond2.preheader.us ]
  %niter = phi i64 [ %niter.nsub.3, %for.body4.us ], [ %unroll_iter, %for.cond2.preheader.us ]
  %arrayidx.us = getelementptr inbounds float, float* %8, i64 %indvars.iv
  %10 = load float, float* %arrayidx.us, align 4, !tbaa !47
  %arrayidx9.us = getelementptr inbounds float, float* %9, i64 %indvars.iv
  %11 = load float, float* %arrayidx9.us, align 4, !tbaa !47
  %mul.us = fmul fast float %11, %10
  store float %mul.us, float* %arrayidx9.us, align 4, !tbaa !47
  %indvars.iv.next = or i64 %indvars.iv, 1
  %arrayidx.us.1 = getelementptr inbounds float, float* %8, i64 %indvars.iv.next
  %12 = load float, float* %arrayidx.us.1, align 4, !tbaa !47
  %arrayidx9.us.1 = getelementptr inbounds float, float* %9, i64 %indvars.iv.next
  %13 = load float, float* %arrayidx9.us.1, align 4, !tbaa !47
  %mul.us.1 = fmul fast float %13, %12
  store float %mul.us.1, float* %arrayidx9.us.1, align 4, !tbaa !47
  %indvars.iv.next.1 = or i64 %indvars.iv, 2
  %arrayidx.us.2 = getelementptr inbounds float, float* %8, i64 %indvars.iv.next.1
  %14 = load float, float* %arrayidx.us.2, align 4, !tbaa !47
  %arrayidx9.us.2 = getelementptr inbounds float, float* %9, i64 %indvars.iv.next.1
  %15 = load float, float* %arrayidx9.us.2, align 4, !tbaa !47
  %mul.us.2 = fmul fast float %15, %14
  store float %mul.us.2, float* %arrayidx9.us.2, align 4, !tbaa !47
  %indvars.iv.next.2 = or i64 %indvars.iv, 3
  %arrayidx.us.3 = getelementptr inbounds float, float* %8, i64 %indvars.iv.next.2
  %16 = load float, float* %arrayidx.us.3, align 4, !tbaa !47
  %arrayidx9.us.3 = getelementptr inbounds float, float* %9, i64 %indvars.iv.next.2
  %17 = load float, float* %arrayidx9.us.3, align 4, !tbaa !47
  %mul.us.3 = fmul fast float %17, %16
  store float %mul.us.3, float* %arrayidx9.us.3, align 4, !tbaa !47
  %indvars.iv.next.3 = add nuw nsw i64 %indvars.iv, 4
  %niter.nsub.3 = add i64 %niter, -4
  %niter.ncmp.3 = icmp eq i64 %niter.nsub.3, 0
  br i1 %niter.ncmp.3, label %for.cond2.for.inc10_crit_edge.us.unr-lcssa, label %for.body4.us

for.cond2.for.inc10_crit_edge.us.unr-lcssa:       ; preds = %for.body4.us, %for.cond2.preheader.us
  %indvars.iv.unr = phi i64 [ 0, %for.cond2.preheader.us ], [ %indvars.iv.next.3, %for.body4.us ]
  br i1 %lcmp.mod, label %for.cond2.for.inc10_crit_edge.us, label %for.body4.us.epil

for.body4.us.epil:                                ; preds = %for.body4.us.epil, %for.cond2.for.inc10_crit_edge.us.unr-lcssa
  %indvars.iv.epil = phi i64 [ %indvars.iv.next.epil, %for.body4.us.epil ], [ %indvars.iv.unr, %for.cond2.for.inc10_crit_edge.us.unr-lcssa ]
  %epil.iter = phi i64 [ %epil.iter.sub, %for.body4.us.epil ], [ %xtraiter, %for.cond2.for.inc10_crit_edge.us.unr-lcssa ]
  %arrayidx.us.epil = getelementptr inbounds float, float* %8, i64 %indvars.iv.epil
  %18 = load float, float* %arrayidx.us.epil, align 4, !tbaa !47
  %arrayidx9.us.epil = getelementptr inbounds float, float* %9, i64 %indvars.iv.epil
  %19 = load float, float* %arrayidx9.us.epil, align 4, !tbaa !47
  %mul.us.epil = fmul fast float %19, %18
  store float %mul.us.epil, float* %arrayidx9.us.epil, align 4, !tbaa !47
  %indvars.iv.next.epil = add nuw nsw i64 %indvars.iv.epil, 1
  %epil.iter.sub = add i64 %epil.iter, -1
  %epil.iter.cmp = icmp eq i64 %epil.iter.sub, 0
  br i1 %epil.iter.cmp, label %for.cond2.for.inc10_crit_edge.us, label %for.body4.us.epil, !llvm.loop !77

for.cond2.for.inc10_crit_edge.us:                 ; preds = %for.body4.us.epil, %for.cond2.for.inc10_crit_edge.us.unr-lcssa
  %indvars.iv.next30 = add nuw nsw i64 %indvars.iv29, 1
  %cmp.us = icmp ult i64 %indvars.iv.next30, %4
  br i1 %cmp.us, label %for.cond2.preheader.us, label %for.end12

for.end12:                                        ; preds = %for.cond2.for.inc10_crit_edge.us, %for.cond2.preheader.lr.ph, %entry
  ret %class.CBFormat* %this
}

; Function Attrs: nofree norecurse nounwind uwtable
define dereferenceable(64) %class.CBFormat* @_ZN8CBFormatdVERKS_(%class.CBFormat* readonly returned %this, %class.CBFormat* nocapture readonly dereferenceable(64) %bf) local_unnamed_addr #11 align 2 {
entry:
  %0 = getelementptr inbounds %class.CBFormat, %class.CBFormat* %this, i64 0, i32 0, i32 4
  %1 = load i32, i32* %0, align 8, !tbaa !53
  %cmp25 = icmp eq i32 %1, 0
  br i1 %cmp25, label %for.end12, label %for.cond2.preheader.lr.ph

for.cond2.preheader.lr.ph:                        ; preds = %entry
  %m_nSamples = getelementptr inbounds %class.CBFormat, %class.CBFormat* %this, i64 0, i32 1
  %2 = load i32, i32* %m_nSamples, align 8, !tbaa !68
  %cmp323 = icmp eq i32 %2, 0
  %_M_head_impl.i.i.i.i.i.i.i = getelementptr inbounds %class.CBFormat, %class.CBFormat* %bf, i64 0, i32 4, i32 0, i32 0, i32 0, i32 0, i32 0
  %3 = load float**, float*** %_M_head_impl.i.i.i.i.i.i.i, align 8
  br i1 %cmp323, label %for.end12, label %for.cond2.preheader.us.preheader

for.cond2.preheader.us.preheader:                 ; preds = %for.cond2.preheader.lr.ph
  %_M_head_impl.i.i.i.i.i.i.i21 = getelementptr inbounds %class.CBFormat, %class.CBFormat* %this, i64 0, i32 4, i32 0, i32 0, i32 0, i32 0, i32 0
  %4 = zext i32 %1 to i64
  %.pre = load float**, float*** %_M_head_impl.i.i.i.i.i.i.i21, align 8, !tbaa !43
  %5 = zext i32 %2 to i64
  %xtraiter = and i64 %5, 1
  %6 = icmp eq i32 %2, 1
  %unroll_iter = sub nsw i64 %5, %xtraiter
  %lcmp.mod = icmp eq i64 %xtraiter, 0
  br label %for.cond2.preheader.us

for.cond2.preheader.us:                           ; preds = %for.cond2.for.inc10_crit_edge.us, %for.cond2.preheader.us.preheader
  %indvars.iv29 = phi i64 [ 0, %for.cond2.preheader.us.preheader ], [ %indvars.iv.next30, %for.cond2.for.inc10_crit_edge.us ]
  %arrayidx.i.us = getelementptr inbounds float*, float** %3, i64 %indvars.iv29
  %7 = load float*, float** %arrayidx.i.us, align 8, !tbaa !43
  %arrayidx.i22.us = getelementptr inbounds float*, float** %.pre, i64 %indvars.iv29
  %8 = load float*, float** %arrayidx.i22.us, align 8, !tbaa !43
  br i1 %6, label %for.cond2.for.inc10_crit_edge.us.unr-lcssa, label %for.body4.us

for.body4.us:                                     ; preds = %for.body4.us, %for.cond2.preheader.us
  %indvars.iv = phi i64 [ %indvars.iv.next.1, %for.body4.us ], [ 0, %for.cond2.preheader.us ]
  %niter = phi i64 [ %niter.nsub.1, %for.body4.us ], [ %unroll_iter, %for.cond2.preheader.us ]
  %arrayidx.us = getelementptr inbounds float, float* %7, i64 %indvars.iv
  %9 = load float, float* %arrayidx.us, align 4, !tbaa !47
  %arrayidx9.us = getelementptr inbounds float, float* %8, i64 %indvars.iv
  %10 = load float, float* %arrayidx9.us, align 4, !tbaa !47
  %div.us = fdiv fast float %10, %9
  store float %div.us, float* %arrayidx9.us, align 4, !tbaa !47
  %indvars.iv.next = or i64 %indvars.iv, 1
  %arrayidx.us.1 = getelementptr inbounds float, float* %7, i64 %indvars.iv.next
  %11 = load float, float* %arrayidx.us.1, align 4, !tbaa !47
  %arrayidx9.us.1 = getelementptr inbounds float, float* %8, i64 %indvars.iv.next
  %12 = load float, float* %arrayidx9.us.1, align 4, !tbaa !47
  %div.us.1 = fdiv fast float %12, %11
  store float %div.us.1, float* %arrayidx9.us.1, align 4, !tbaa !47
  %indvars.iv.next.1 = add nuw nsw i64 %indvars.iv, 2
  %niter.nsub.1 = add i64 %niter, -2
  %niter.ncmp.1 = icmp eq i64 %niter.nsub.1, 0
  br i1 %niter.ncmp.1, label %for.cond2.for.inc10_crit_edge.us.unr-lcssa, label %for.body4.us

for.cond2.for.inc10_crit_edge.us.unr-lcssa:       ; preds = %for.body4.us, %for.cond2.preheader.us
  %indvars.iv.unr = phi i64 [ 0, %for.cond2.preheader.us ], [ %indvars.iv.next.1, %for.body4.us ]
  br i1 %lcmp.mod, label %for.cond2.for.inc10_crit_edge.us, label %for.body4.us.epil

for.body4.us.epil:                                ; preds = %for.cond2.for.inc10_crit_edge.us.unr-lcssa
  %arrayidx.us.epil = getelementptr inbounds float, float* %7, i64 %indvars.iv.unr
  %13 = load float, float* %arrayidx.us.epil, align 4, !tbaa !47
  %arrayidx9.us.epil = getelementptr inbounds float, float* %8, i64 %indvars.iv.unr
  %14 = load float, float* %arrayidx9.us.epil, align 4, !tbaa !47
  %div.us.epil = fdiv fast float %14, %13
  store float %div.us.epil, float* %arrayidx9.us.epil, align 4, !tbaa !47
  br label %for.cond2.for.inc10_crit_edge.us

for.cond2.for.inc10_crit_edge.us:                 ; preds = %for.body4.us.epil, %for.cond2.for.inc10_crit_edge.us.unr-lcssa
  %indvars.iv.next30 = add nuw nsw i64 %indvars.iv29, 1
  %cmp.us = icmp ult i64 %indvars.iv.next30, %4
  br i1 %cmp.us, label %for.cond2.preheader.us, label %for.end12

for.end12:                                        ; preds = %for.cond2.for.inc10_crit_edge.us, %for.cond2.preheader.lr.ph, %entry
  ret %class.CBFormat* %this
}

; Function Attrs: nofree norecurse nounwind uwtable
define dereferenceable(64) %class.CBFormat* @_ZN8CBFormatpLERKf(%class.CBFormat* readonly returned %this, float* nocapture readonly dereferenceable(4) %fValue) local_unnamed_addr #11 align 2 {
entry:
  %0 = getelementptr inbounds %class.CBFormat, %class.CBFormat* %this, i64 0, i32 0, i32 4
  %1 = load i32, i32* %0, align 8, !tbaa !53
  %cmp16 = icmp eq i32 %1, 0
  br i1 %cmp16, label %for.end7, label %for.cond2.preheader.lr.ph

for.cond2.preheader.lr.ph:                        ; preds = %entry
  %m_nSamples = getelementptr inbounds %class.CBFormat, %class.CBFormat* %this, i64 0, i32 1
  %2 = load i32, i32* %m_nSamples, align 8, !tbaa !68
  %cmp314 = icmp eq i32 %2, 0
  br i1 %cmp314, label %for.end7, label %for.cond2.preheader.us.preheader

for.cond2.preheader.us.preheader:                 ; preds = %for.cond2.preheader.lr.ph
  %_M_head_impl.i.i.i.i.i.i.i = getelementptr inbounds %class.CBFormat, %class.CBFormat* %this, i64 0, i32 4, i32 0, i32 0, i32 0, i32 0, i32 0
  %3 = zext i32 %1 to i64
  %.pre = load float**, float*** %_M_head_impl.i.i.i.i.i.i.i, align 8, !tbaa !43
  %4 = zext i32 %2 to i64
  %5 = add nsw i64 %4, -1
  %xtraiter = and i64 %4, 3
  %6 = icmp ult i64 %5, 3
  %unroll_iter = sub nsw i64 %4, %xtraiter
  %lcmp.mod = icmp eq i64 %xtraiter, 0
  br label %for.cond2.preheader.us

for.cond2.preheader.us:                           ; preds = %for.cond2.for.inc5_crit_edge.us, %for.cond2.preheader.us.preheader
  %indvars.iv20 = phi i64 [ 0, %for.cond2.preheader.us.preheader ], [ %indvars.iv.next21, %for.cond2.for.inc5_crit_edge.us ]
  %arrayidx.i.us = getelementptr inbounds float*, float** %.pre, i64 %indvars.iv20
  %7 = load float*, float** %arrayidx.i.us, align 8, !tbaa !43
  br i1 %6, label %for.cond2.for.inc5_crit_edge.us.unr-lcssa, label %for.body4.us

for.body4.us:                                     ; preds = %for.body4.us, %for.cond2.preheader.us
  %indvars.iv = phi i64 [ %indvars.iv.next.3, %for.body4.us ], [ 0, %for.cond2.preheader.us ]
  %niter = phi i64 [ %niter.nsub.3, %for.body4.us ], [ %unroll_iter, %for.cond2.preheader.us ]
  %8 = load float, float* %fValue, align 4, !tbaa !47
  %arrayidx.us = getelementptr inbounds float, float* %7, i64 %indvars.iv
  %9 = load float, float* %arrayidx.us, align 4, !tbaa !47
  %add.us = fadd fast float %9, %8
  store float %add.us, float* %arrayidx.us, align 4, !tbaa !47
  %indvars.iv.next = or i64 %indvars.iv, 1
  %10 = load float, float* %fValue, align 4, !tbaa !47
  %arrayidx.us.1 = getelementptr inbounds float, float* %7, i64 %indvars.iv.next
  %11 = load float, float* %arrayidx.us.1, align 4, !tbaa !47
  %add.us.1 = fadd fast float %11, %10
  store float %add.us.1, float* %arrayidx.us.1, align 4, !tbaa !47
  %indvars.iv.next.1 = or i64 %indvars.iv, 2
  %12 = load float, float* %fValue, align 4, !tbaa !47
  %arrayidx.us.2 = getelementptr inbounds float, float* %7, i64 %indvars.iv.next.1
  %13 = load float, float* %arrayidx.us.2, align 4, !tbaa !47
  %add.us.2 = fadd fast float %13, %12
  store float %add.us.2, float* %arrayidx.us.2, align 4, !tbaa !47
  %indvars.iv.next.2 = or i64 %indvars.iv, 3
  %14 = load float, float* %fValue, align 4, !tbaa !47
  %arrayidx.us.3 = getelementptr inbounds float, float* %7, i64 %indvars.iv.next.2
  %15 = load float, float* %arrayidx.us.3, align 4, !tbaa !47
  %add.us.3 = fadd fast float %15, %14
  store float %add.us.3, float* %arrayidx.us.3, align 4, !tbaa !47
  %indvars.iv.next.3 = add nuw nsw i64 %indvars.iv, 4
  %niter.nsub.3 = add i64 %niter, -4
  %niter.ncmp.3 = icmp eq i64 %niter.nsub.3, 0
  br i1 %niter.ncmp.3, label %for.cond2.for.inc5_crit_edge.us.unr-lcssa, label %for.body4.us

for.cond2.for.inc5_crit_edge.us.unr-lcssa:        ; preds = %for.body4.us, %for.cond2.preheader.us
  %indvars.iv.unr = phi i64 [ 0, %for.cond2.preheader.us ], [ %indvars.iv.next.3, %for.body4.us ]
  br i1 %lcmp.mod, label %for.cond2.for.inc5_crit_edge.us, label %for.body4.us.epil

for.body4.us.epil:                                ; preds = %for.body4.us.epil, %for.cond2.for.inc5_crit_edge.us.unr-lcssa
  %indvars.iv.epil = phi i64 [ %indvars.iv.next.epil, %for.body4.us.epil ], [ %indvars.iv.unr, %for.cond2.for.inc5_crit_edge.us.unr-lcssa ]
  %epil.iter = phi i64 [ %epil.iter.sub, %for.body4.us.epil ], [ %xtraiter, %for.cond2.for.inc5_crit_edge.us.unr-lcssa ]
  %16 = load float, float* %fValue, align 4, !tbaa !47
  %arrayidx.us.epil = getelementptr inbounds float, float* %7, i64 %indvars.iv.epil
  %17 = load float, float* %arrayidx.us.epil, align 4, !tbaa !47
  %add.us.epil = fadd fast float %17, %16
  store float %add.us.epil, float* %arrayidx.us.epil, align 4, !tbaa !47
  %indvars.iv.next.epil = add nuw nsw i64 %indvars.iv.epil, 1
  %epil.iter.sub = add i64 %epil.iter, -1
  %epil.iter.cmp = icmp eq i64 %epil.iter.sub, 0
  br i1 %epil.iter.cmp, label %for.cond2.for.inc5_crit_edge.us, label %for.body4.us.epil, !llvm.loop !78

for.cond2.for.inc5_crit_edge.us:                  ; preds = %for.body4.us.epil, %for.cond2.for.inc5_crit_edge.us.unr-lcssa
  %indvars.iv.next21 = add nuw nsw i64 %indvars.iv20, 1
  %cmp.us = icmp ult i64 %indvars.iv.next21, %3
  br i1 %cmp.us, label %for.cond2.preheader.us, label %for.end7

for.end7:                                         ; preds = %for.cond2.for.inc5_crit_edge.us, %for.cond2.preheader.lr.ph, %entry
  ret %class.CBFormat* %this
}

; Function Attrs: nofree norecurse nounwind uwtable
define dereferenceable(64) %class.CBFormat* @_ZN8CBFormatmIERKf(%class.CBFormat* readonly returned %this, float* nocapture readonly dereferenceable(4) %fValue) local_unnamed_addr #11 align 2 {
entry:
  %0 = getelementptr inbounds %class.CBFormat, %class.CBFormat* %this, i64 0, i32 0, i32 4
  %1 = load i32, i32* %0, align 8, !tbaa !53
  %cmp16 = icmp eq i32 %1, 0
  br i1 %cmp16, label %for.end7, label %for.cond2.preheader.lr.ph

for.cond2.preheader.lr.ph:                        ; preds = %entry
  %m_nSamples = getelementptr inbounds %class.CBFormat, %class.CBFormat* %this, i64 0, i32 1
  %2 = load i32, i32* %m_nSamples, align 8, !tbaa !68
  %cmp314 = icmp eq i32 %2, 0
  br i1 %cmp314, label %for.end7, label %for.cond2.preheader.us.preheader

for.cond2.preheader.us.preheader:                 ; preds = %for.cond2.preheader.lr.ph
  %_M_head_impl.i.i.i.i.i.i.i = getelementptr inbounds %class.CBFormat, %class.CBFormat* %this, i64 0, i32 4, i32 0, i32 0, i32 0, i32 0, i32 0
  %3 = zext i32 %1 to i64
  %.pre = load float**, float*** %_M_head_impl.i.i.i.i.i.i.i, align 8, !tbaa !43
  %4 = zext i32 %2 to i64
  %5 = add nsw i64 %4, -1
  %xtraiter = and i64 %4, 3
  %6 = icmp ult i64 %5, 3
  %unroll_iter = sub nsw i64 %4, %xtraiter
  %lcmp.mod = icmp eq i64 %xtraiter, 0
  br label %for.cond2.preheader.us

for.cond2.preheader.us:                           ; preds = %for.cond2.for.inc5_crit_edge.us, %for.cond2.preheader.us.preheader
  %indvars.iv20 = phi i64 [ 0, %for.cond2.preheader.us.preheader ], [ %indvars.iv.next21, %for.cond2.for.inc5_crit_edge.us ]
  %arrayidx.i.us = getelementptr inbounds float*, float** %.pre, i64 %indvars.iv20
  %7 = load float*, float** %arrayidx.i.us, align 8, !tbaa !43
  br i1 %6, label %for.cond2.for.inc5_crit_edge.us.unr-lcssa, label %for.body4.us

for.body4.us:                                     ; preds = %for.body4.us, %for.cond2.preheader.us
  %indvars.iv = phi i64 [ %indvars.iv.next.3, %for.body4.us ], [ 0, %for.cond2.preheader.us ]
  %niter = phi i64 [ %niter.nsub.3, %for.body4.us ], [ %unroll_iter, %for.cond2.preheader.us ]
  %8 = load float, float* %fValue, align 4, !tbaa !47
  %arrayidx.us = getelementptr inbounds float, float* %7, i64 %indvars.iv
  %9 = load float, float* %arrayidx.us, align 4, !tbaa !47
  %sub.us = fsub fast float %9, %8
  store float %sub.us, float* %arrayidx.us, align 4, !tbaa !47
  %indvars.iv.next = or i64 %indvars.iv, 1
  %10 = load float, float* %fValue, align 4, !tbaa !47
  %arrayidx.us.1 = getelementptr inbounds float, float* %7, i64 %indvars.iv.next
  %11 = load float, float* %arrayidx.us.1, align 4, !tbaa !47
  %sub.us.1 = fsub fast float %11, %10
  store float %sub.us.1, float* %arrayidx.us.1, align 4, !tbaa !47
  %indvars.iv.next.1 = or i64 %indvars.iv, 2
  %12 = load float, float* %fValue, align 4, !tbaa !47
  %arrayidx.us.2 = getelementptr inbounds float, float* %7, i64 %indvars.iv.next.1
  %13 = load float, float* %arrayidx.us.2, align 4, !tbaa !47
  %sub.us.2 = fsub fast float %13, %12
  store float %sub.us.2, float* %arrayidx.us.2, align 4, !tbaa !47
  %indvars.iv.next.2 = or i64 %indvars.iv, 3
  %14 = load float, float* %fValue, align 4, !tbaa !47
  %arrayidx.us.3 = getelementptr inbounds float, float* %7, i64 %indvars.iv.next.2
  %15 = load float, float* %arrayidx.us.3, align 4, !tbaa !47
  %sub.us.3 = fsub fast float %15, %14
  store float %sub.us.3, float* %arrayidx.us.3, align 4, !tbaa !47
  %indvars.iv.next.3 = add nuw nsw i64 %indvars.iv, 4
  %niter.nsub.3 = add i64 %niter, -4
  %niter.ncmp.3 = icmp eq i64 %niter.nsub.3, 0
  br i1 %niter.ncmp.3, label %for.cond2.for.inc5_crit_edge.us.unr-lcssa, label %for.body4.us

for.cond2.for.inc5_crit_edge.us.unr-lcssa:        ; preds = %for.body4.us, %for.cond2.preheader.us
  %indvars.iv.unr = phi i64 [ 0, %for.cond2.preheader.us ], [ %indvars.iv.next.3, %for.body4.us ]
  br i1 %lcmp.mod, label %for.cond2.for.inc5_crit_edge.us, label %for.body4.us.epil

for.body4.us.epil:                                ; preds = %for.body4.us.epil, %for.cond2.for.inc5_crit_edge.us.unr-lcssa
  %indvars.iv.epil = phi i64 [ %indvars.iv.next.epil, %for.body4.us.epil ], [ %indvars.iv.unr, %for.cond2.for.inc5_crit_edge.us.unr-lcssa ]
  %epil.iter = phi i64 [ %epil.iter.sub, %for.body4.us.epil ], [ %xtraiter, %for.cond2.for.inc5_crit_edge.us.unr-lcssa ]
  %16 = load float, float* %fValue, align 4, !tbaa !47
  %arrayidx.us.epil = getelementptr inbounds float, float* %7, i64 %indvars.iv.epil
  %17 = load float, float* %arrayidx.us.epil, align 4, !tbaa !47
  %sub.us.epil = fsub fast float %17, %16
  store float %sub.us.epil, float* %arrayidx.us.epil, align 4, !tbaa !47
  %indvars.iv.next.epil = add nuw nsw i64 %indvars.iv.epil, 1
  %epil.iter.sub = add i64 %epil.iter, -1
  %epil.iter.cmp = icmp eq i64 %epil.iter.sub, 0
  br i1 %epil.iter.cmp, label %for.cond2.for.inc5_crit_edge.us, label %for.body4.us.epil, !llvm.loop !79

for.cond2.for.inc5_crit_edge.us:                  ; preds = %for.body4.us.epil, %for.cond2.for.inc5_crit_edge.us.unr-lcssa
  %indvars.iv.next21 = add nuw nsw i64 %indvars.iv20, 1
  %cmp.us = icmp ult i64 %indvars.iv.next21, %3
  br i1 %cmp.us, label %for.cond2.preheader.us, label %for.end7

for.end7:                                         ; preds = %for.cond2.for.inc5_crit_edge.us, %for.cond2.preheader.lr.ph, %entry
  ret %class.CBFormat* %this
}

; Function Attrs: nofree norecurse nounwind uwtable
define dereferenceable(64) %class.CBFormat* @_ZN8CBFormatmLERKf(%class.CBFormat* readonly returned %this, float* nocapture readonly dereferenceable(4) %fValue) local_unnamed_addr #11 align 2 {
entry:
  %0 = getelementptr inbounds %class.CBFormat, %class.CBFormat* %this, i64 0, i32 0, i32 4
  %1 = load i32, i32* %0, align 8, !tbaa !53
  %cmp16 = icmp eq i32 %1, 0
  br i1 %cmp16, label %for.end7, label %for.cond2.preheader.lr.ph

for.cond2.preheader.lr.ph:                        ; preds = %entry
  %m_nSamples = getelementptr inbounds %class.CBFormat, %class.CBFormat* %this, i64 0, i32 1
  %2 = load i32, i32* %m_nSamples, align 8, !tbaa !68
  %cmp314 = icmp eq i32 %2, 0
  br i1 %cmp314, label %for.end7, label %for.cond2.preheader.us.preheader

for.cond2.preheader.us.preheader:                 ; preds = %for.cond2.preheader.lr.ph
  %_M_head_impl.i.i.i.i.i.i.i = getelementptr inbounds %class.CBFormat, %class.CBFormat* %this, i64 0, i32 4, i32 0, i32 0, i32 0, i32 0, i32 0
  %3 = zext i32 %1 to i64
  %.pre = load float**, float*** %_M_head_impl.i.i.i.i.i.i.i, align 8, !tbaa !43
  %4 = zext i32 %2 to i64
  %5 = add nsw i64 %4, -1
  %xtraiter = and i64 %4, 3
  %6 = icmp ult i64 %5, 3
  %unroll_iter = sub nsw i64 %4, %xtraiter
  %lcmp.mod = icmp eq i64 %xtraiter, 0
  br label %for.cond2.preheader.us

for.cond2.preheader.us:                           ; preds = %for.cond2.for.inc5_crit_edge.us, %for.cond2.preheader.us.preheader
  %indvars.iv20 = phi i64 [ 0, %for.cond2.preheader.us.preheader ], [ %indvars.iv.next21, %for.cond2.for.inc5_crit_edge.us ]
  %arrayidx.i.us = getelementptr inbounds float*, float** %.pre, i64 %indvars.iv20
  %7 = load float*, float** %arrayidx.i.us, align 8, !tbaa !43
  br i1 %6, label %for.cond2.for.inc5_crit_edge.us.unr-lcssa, label %for.body4.us

for.body4.us:                                     ; preds = %for.body4.us, %for.cond2.preheader.us
  %indvars.iv = phi i64 [ %indvars.iv.next.3, %for.body4.us ], [ 0, %for.cond2.preheader.us ]
  %niter = phi i64 [ %niter.nsub.3, %for.body4.us ], [ %unroll_iter, %for.cond2.preheader.us ]
  %8 = load float, float* %fValue, align 4, !tbaa !47
  %arrayidx.us = getelementptr inbounds float, float* %7, i64 %indvars.iv
  %9 = load float, float* %arrayidx.us, align 4, !tbaa !47
  %mul.us = fmul fast float %9, %8
  store float %mul.us, float* %arrayidx.us, align 4, !tbaa !47
  %indvars.iv.next = or i64 %indvars.iv, 1
  %10 = load float, float* %fValue, align 4, !tbaa !47
  %arrayidx.us.1 = getelementptr inbounds float, float* %7, i64 %indvars.iv.next
  %11 = load float, float* %arrayidx.us.1, align 4, !tbaa !47
  %mul.us.1 = fmul fast float %11, %10
  store float %mul.us.1, float* %arrayidx.us.1, align 4, !tbaa !47
  %indvars.iv.next.1 = or i64 %indvars.iv, 2
  %12 = load float, float* %fValue, align 4, !tbaa !47
  %arrayidx.us.2 = getelementptr inbounds float, float* %7, i64 %indvars.iv.next.1
  %13 = load float, float* %arrayidx.us.2, align 4, !tbaa !47
  %mul.us.2 = fmul fast float %13, %12
  store float %mul.us.2, float* %arrayidx.us.2, align 4, !tbaa !47
  %indvars.iv.next.2 = or i64 %indvars.iv, 3
  %14 = load float, float* %fValue, align 4, !tbaa !47
  %arrayidx.us.3 = getelementptr inbounds float, float* %7, i64 %indvars.iv.next.2
  %15 = load float, float* %arrayidx.us.3, align 4, !tbaa !47
  %mul.us.3 = fmul fast float %15, %14
  store float %mul.us.3, float* %arrayidx.us.3, align 4, !tbaa !47
  %indvars.iv.next.3 = add nuw nsw i64 %indvars.iv, 4
  %niter.nsub.3 = add i64 %niter, -4
  %niter.ncmp.3 = icmp eq i64 %niter.nsub.3, 0
  br i1 %niter.ncmp.3, label %for.cond2.for.inc5_crit_edge.us.unr-lcssa, label %for.body4.us

for.cond2.for.inc5_crit_edge.us.unr-lcssa:        ; preds = %for.body4.us, %for.cond2.preheader.us
  %indvars.iv.unr = phi i64 [ 0, %for.cond2.preheader.us ], [ %indvars.iv.next.3, %for.body4.us ]
  br i1 %lcmp.mod, label %for.cond2.for.inc5_crit_edge.us, label %for.body4.us.epil

for.body4.us.epil:                                ; preds = %for.body4.us.epil, %for.cond2.for.inc5_crit_edge.us.unr-lcssa
  %indvars.iv.epil = phi i64 [ %indvars.iv.next.epil, %for.body4.us.epil ], [ %indvars.iv.unr, %for.cond2.for.inc5_crit_edge.us.unr-lcssa ]
  %epil.iter = phi i64 [ %epil.iter.sub, %for.body4.us.epil ], [ %xtraiter, %for.cond2.for.inc5_crit_edge.us.unr-lcssa ]
  %16 = load float, float* %fValue, align 4, !tbaa !47
  %arrayidx.us.epil = getelementptr inbounds float, float* %7, i64 %indvars.iv.epil
  %17 = load float, float* %arrayidx.us.epil, align 4, !tbaa !47
  %mul.us.epil = fmul fast float %17, %16
  store float %mul.us.epil, float* %arrayidx.us.epil, align 4, !tbaa !47
  %indvars.iv.next.epil = add nuw nsw i64 %indvars.iv.epil, 1
  %epil.iter.sub = add i64 %epil.iter, -1
  %epil.iter.cmp = icmp eq i64 %epil.iter.sub, 0
  br i1 %epil.iter.cmp, label %for.cond2.for.inc5_crit_edge.us, label %for.body4.us.epil, !llvm.loop !80

for.cond2.for.inc5_crit_edge.us:                  ; preds = %for.body4.us.epil, %for.cond2.for.inc5_crit_edge.us.unr-lcssa
  %indvars.iv.next21 = add nuw nsw i64 %indvars.iv20, 1
  %cmp.us = icmp ult i64 %indvars.iv.next21, %3
  br i1 %cmp.us, label %for.cond2.preheader.us, label %for.end7

for.end7:                                         ; preds = %for.cond2.for.inc5_crit_edge.us, %for.cond2.preheader.lr.ph, %entry
  ret %class.CBFormat* %this
}

; Function Attrs: nofree norecurse nounwind uwtable
define dereferenceable(64) %class.CBFormat* @_ZN8CBFormatdVERKf(%class.CBFormat* readonly returned %this, float* nocapture readonly dereferenceable(4) %fValue) local_unnamed_addr #11 align 2 {
entry:
  %0 = getelementptr inbounds %class.CBFormat, %class.CBFormat* %this, i64 0, i32 0, i32 4
  %1 = load i32, i32* %0, align 8, !tbaa !53
  %cmp16 = icmp eq i32 %1, 0
  br i1 %cmp16, label %for.end7, label %for.cond2.preheader.lr.ph

for.cond2.preheader.lr.ph:                        ; preds = %entry
  %m_nSamples = getelementptr inbounds %class.CBFormat, %class.CBFormat* %this, i64 0, i32 1
  %2 = load i32, i32* %m_nSamples, align 8, !tbaa !68
  %cmp314 = icmp eq i32 %2, 0
  br i1 %cmp314, label %for.end7, label %for.cond2.preheader.us.preheader

for.cond2.preheader.us.preheader:                 ; preds = %for.cond2.preheader.lr.ph
  %_M_head_impl.i.i.i.i.i.i.i = getelementptr inbounds %class.CBFormat, %class.CBFormat* %this, i64 0, i32 4, i32 0, i32 0, i32 0, i32 0, i32 0
  %3 = zext i32 %1 to i64
  %.pre = load float**, float*** %_M_head_impl.i.i.i.i.i.i.i, align 8, !tbaa !43
  %4 = zext i32 %2 to i64
  %xtraiter = and i64 %4, 1
  %5 = icmp eq i32 %2, 1
  %unroll_iter = sub nsw i64 %4, %xtraiter
  %lcmp.mod = icmp eq i64 %xtraiter, 0
  br label %for.cond2.preheader.us

for.cond2.preheader.us:                           ; preds = %for.cond2.for.inc5_crit_edge.us, %for.cond2.preheader.us.preheader
  %indvars.iv20 = phi i64 [ 0, %for.cond2.preheader.us.preheader ], [ %indvars.iv.next21, %for.cond2.for.inc5_crit_edge.us ]
  %arrayidx.i.us = getelementptr inbounds float*, float** %.pre, i64 %indvars.iv20
  %6 = load float*, float** %arrayidx.i.us, align 8, !tbaa !43
  br i1 %5, label %for.cond2.for.inc5_crit_edge.us.unr-lcssa, label %for.body4.us

for.body4.us:                                     ; preds = %for.body4.us, %for.cond2.preheader.us
  %indvars.iv = phi i64 [ %indvars.iv.next.1, %for.body4.us ], [ 0, %for.cond2.preheader.us ]
  %niter = phi i64 [ %niter.nsub.1, %for.body4.us ], [ %unroll_iter, %for.cond2.preheader.us ]
  %7 = load float, float* %fValue, align 4, !tbaa !47
  %arrayidx.us = getelementptr inbounds float, float* %6, i64 %indvars.iv
  %8 = load float, float* %arrayidx.us, align 4, !tbaa !47
  %div.us = fdiv fast float %8, %7
  store float %div.us, float* %arrayidx.us, align 4, !tbaa !47
  %indvars.iv.next = or i64 %indvars.iv, 1
  %9 = load float, float* %fValue, align 4, !tbaa !47
  %arrayidx.us.1 = getelementptr inbounds float, float* %6, i64 %indvars.iv.next
  %10 = load float, float* %arrayidx.us.1, align 4, !tbaa !47
  %div.us.1 = fdiv fast float %10, %9
  store float %div.us.1, float* %arrayidx.us.1, align 4, !tbaa !47
  %indvars.iv.next.1 = add nuw nsw i64 %indvars.iv, 2
  %niter.nsub.1 = add i64 %niter, -2
  %niter.ncmp.1 = icmp eq i64 %niter.nsub.1, 0
  br i1 %niter.ncmp.1, label %for.cond2.for.inc5_crit_edge.us.unr-lcssa, label %for.body4.us

for.cond2.for.inc5_crit_edge.us.unr-lcssa:        ; preds = %for.body4.us, %for.cond2.preheader.us
  %indvars.iv.unr = phi i64 [ 0, %for.cond2.preheader.us ], [ %indvars.iv.next.1, %for.body4.us ]
  br i1 %lcmp.mod, label %for.cond2.for.inc5_crit_edge.us, label %for.body4.us.epil

for.body4.us.epil:                                ; preds = %for.cond2.for.inc5_crit_edge.us.unr-lcssa
  %11 = load float, float* %fValue, align 4, !tbaa !47
  %arrayidx.us.epil = getelementptr inbounds float, float* %6, i64 %indvars.iv.unr
  %12 = load float, float* %arrayidx.us.epil, align 4, !tbaa !47
  %div.us.epil = fdiv fast float %12, %11
  store float %div.us.epil, float* %arrayidx.us.epil, align 4, !tbaa !47
  br label %for.cond2.for.inc5_crit_edge.us

for.cond2.for.inc5_crit_edge.us:                  ; preds = %for.body4.us.epil, %for.cond2.for.inc5_crit_edge.us.unr-lcssa
  %indvars.iv.next21 = add nuw nsw i64 %indvars.iv20, 1
  %cmp.us = icmp ult i64 %indvars.iv.next21, %3
  br i1 %cmp.us, label %for.cond2.preheader.us, label %for.end7

for.end7:                                         ; preds = %for.cond2.for.inc5_crit_edge.us, %for.cond2.preheader.lr.ph, %entry
  ret %class.CBFormat* %this
}

; Function Attrs: nounwind uwtable
define void @_ZN17CAmbisonicEncoderC2Ev(%class.CAmbisonicEncoder* nocapture %this) unnamed_addr #3 align 2 {
entry:
  %0 = getelementptr inbounds %class.CAmbisonicEncoder, %class.CAmbisonicEncoder* %this, i64 0, i32 0, i32 0, i32 0
  %1 = getelementptr inbounds %class.CAmbisonicEncoder, %class.CAmbisonicEncoder* %this, i64 0, i32 0, i32 0, i32 1
  store i32 0, i32* %1, align 8, !tbaa !49
  %2 = getelementptr inbounds %class.CAmbisonicEncoder, %class.CAmbisonicEncoder* %this, i64 0, i32 0, i32 0, i32 2
  store i8 0, i8* %2, align 4, !tbaa !52
  %3 = getelementptr inbounds %class.CAmbisonicEncoder, %class.CAmbisonicEncoder* %this, i64 0, i32 0, i32 0, i32 4
  store i32 0, i32* %3, align 8, !tbaa !53
  %4 = getelementptr inbounds %class.CAmbisonicEncoder, %class.CAmbisonicEncoder* %this, i64 0, i32 0, i32 0, i32 5
  store i8 0, i8* %4, align 4, !tbaa !54
  %m_pfCoeff.i = getelementptr inbounds %class.CAmbisonicEncoder, %class.CAmbisonicEncoder* %this, i64 0, i32 0, i32 1
  %fDistance.i = getelementptr inbounds %class.CAmbisonicEncoder, %class.CAmbisonicEncoder* %this, i64 0, i32 0, i32 3, i32 2
  %5 = bitcast %"class.std::vector.0"* %m_pfCoeff.i to i8*
  tail call void @llvm.memset.p0i8.i64(i8* nonnull align 8 %5, i8 0, i64 56, i1 false) #24
  store float 1.000000e+00, float* %fDistance.i, align 8, !tbaa !56
  %m_fGain.i = getelementptr inbounds %class.CAmbisonicEncoder, %class.CAmbisonicEncoder* %this, i64 0, i32 0, i32 4
  store float 1.000000e+00, float* %m_fGain.i, align 4, !tbaa !60
  store i32 (...)** bitcast (i8** getelementptr inbounds ({ [16 x i8*] }, { [16 x i8*] }* @_ZTV17CAmbisonicEncoder, i64 0, inrange i32 0, i64 2) to i32 (...)**), i32 (...)*** %0, align 8, !tbaa !40
  ret void
}

; Function Attrs: nounwind uwtable
define void @_ZN17CAmbisonicEncoderD2Ev(%class.CAmbisonicEncoder* nocapture %this) unnamed_addr #3 align 2 {
entry:
  %0 = getelementptr inbounds %class.CAmbisonicEncoder, %class.CAmbisonicEncoder* %this, i64 0, i32 0, i32 0, i32 0
  store i32 (...)** bitcast (i8** getelementptr inbounds ({ [16 x i8*] }, { [16 x i8*] }* @_ZTV16CAmbisonicSource, i64 0, inrange i32 0, i64 2) to i32 (...)**), i32 (...)*** %0, align 8, !tbaa !40
  %_M_start.i.i.i = getelementptr inbounds %class.CAmbisonicEncoder, %class.CAmbisonicEncoder* %this, i64 0, i32 0, i32 2, i32 0, i32 0, i32 0, i32 0
  %1 = load float*, float** %_M_start.i.i.i, align 8, !tbaa !63
  %tobool.i.i.i.i = icmp eq float* %1, null
  br i1 %tobool.i.i.i.i, label %_ZNSt6vectorIfSaIfEED2Ev.exit.i, label %if.then.i.i.i.i

if.then.i.i.i.i:                                  ; preds = %entry
  %2 = bitcast float* %1 to i8*
  tail call void @_ZdlPv(i8* nonnull %2) #24
  br label %_ZNSt6vectorIfSaIfEED2Ev.exit.i

_ZNSt6vectorIfSaIfEED2Ev.exit.i:                  ; preds = %if.then.i.i.i.i, %entry
  %_M_start.i.i2.i = getelementptr inbounds %class.CAmbisonicEncoder, %class.CAmbisonicEncoder* %this, i64 0, i32 0, i32 1, i32 0, i32 0, i32 0, i32 0
  %3 = load float*, float** %_M_start.i.i2.i, align 8, !tbaa !63
  %tobool.i.i.i3.i = icmp eq float* %3, null
  br i1 %tobool.i.i.i3.i, label %_ZN16CAmbisonicSourceD2Ev.exit, label %if.then.i.i.i4.i

if.then.i.i.i4.i:                                 ; preds = %_ZNSt6vectorIfSaIfEED2Ev.exit.i
  %4 = bitcast float* %3 to i8*
  tail call void @_ZdlPv(i8* nonnull %4) #24
  br label %_ZN16CAmbisonicSourceD2Ev.exit

_ZN16CAmbisonicSourceD2Ev.exit:                   ; preds = %if.then.i.i.i4.i, %_ZNSt6vectorIfSaIfEED2Ev.exit.i
  ret void
}

; Function Attrs: nounwind uwtable
define void @_ZN17CAmbisonicEncoderD0Ev(%class.CAmbisonicEncoder* %this) unnamed_addr #3 align 2 {
entry:
  %0 = getelementptr inbounds %class.CAmbisonicEncoder, %class.CAmbisonicEncoder* %this, i64 0, i32 0, i32 0, i32 0
  store i32 (...)** bitcast (i8** getelementptr inbounds ({ [16 x i8*] }, { [16 x i8*] }* @_ZTV16CAmbisonicSource, i64 0, inrange i32 0, i64 2) to i32 (...)**), i32 (...)*** %0, align 8, !tbaa !40
  %_M_start.i.i.i.i = getelementptr inbounds %class.CAmbisonicEncoder, %class.CAmbisonicEncoder* %this, i64 0, i32 0, i32 2, i32 0, i32 0, i32 0, i32 0
  %1 = load float*, float** %_M_start.i.i.i.i, align 8, !tbaa !63
  %tobool.i.i.i.i.i = icmp eq float* %1, null
  br i1 %tobool.i.i.i.i.i, label %_ZNSt6vectorIfSaIfEED2Ev.exit.i.i, label %if.then.i.i.i.i.i

if.then.i.i.i.i.i:                                ; preds = %entry
  %2 = bitcast float* %1 to i8*
  tail call void @_ZdlPv(i8* nonnull %2) #24
  br label %_ZNSt6vectorIfSaIfEED2Ev.exit.i.i

_ZNSt6vectorIfSaIfEED2Ev.exit.i.i:                ; preds = %if.then.i.i.i.i.i, %entry
  %_M_start.i.i2.i.i = getelementptr inbounds %class.CAmbisonicEncoder, %class.CAmbisonicEncoder* %this, i64 0, i32 0, i32 1, i32 0, i32 0, i32 0, i32 0
  %3 = load float*, float** %_M_start.i.i2.i.i, align 8, !tbaa !63
  %tobool.i.i.i3.i.i = icmp eq float* %3, null
  br i1 %tobool.i.i.i3.i.i, label %_ZN17CAmbisonicEncoderD2Ev.exit, label %if.then.i.i.i4.i.i

if.then.i.i.i4.i.i:                               ; preds = %_ZNSt6vectorIfSaIfEED2Ev.exit.i.i
  %4 = bitcast float* %3 to i8*
  tail call void @_ZdlPv(i8* nonnull %4) #24
  br label %_ZN17CAmbisonicEncoderD2Ev.exit

_ZN17CAmbisonicEncoderD2Ev.exit:                  ; preds = %if.then.i.i.i4.i.i, %_ZNSt6vectorIfSaIfEED2Ev.exit.i.i
  %5 = bitcast %class.CAmbisonicEncoder* %this to i8*
  tail call void @_ZdlPv(i8* %5) #25
  ret void
}

; Function Attrs: nobuiltin nounwind
declare void @_ZdlPv(i8*) local_unnamed_addr #13

; Function Attrs: nounwind uwtable
define zeroext i1 @_ZN17CAmbisonicEncoder9ConfigureEjbj(%class.CAmbisonicEncoder* %this, i32 %nOrder, i1 zeroext %b3D, i32 %nMisc) unnamed_addr #3 align 2 {
entry:
  %0 = getelementptr inbounds %class.CAmbisonicEncoder, %class.CAmbisonicEncoder* %this, i64 0, i32 0
  %call = tail call zeroext i1 @_ZN16CAmbisonicSource9ConfigureEjbj(%class.CAmbisonicSource* %0, i32 %nOrder, i1 zeroext %b3D, i32 undef)
  ret i1 true
}

; Function Attrs: nofree nounwind uwtable
define void @_ZN17CAmbisonicEncoder7RefreshEv(%class.CAmbisonicEncoder* readonly %this) unnamed_addr #8 align 2 {
entry:
  %0 = getelementptr inbounds %class.CAmbisonicEncoder, %class.CAmbisonicEncoder* %this, i64 0, i32 0
  tail call void @_ZN16CAmbisonicSource7RefreshEv(%class.CAmbisonicSource* %0)
  ret void
}

; Function Attrs: nofree norecurse nounwind uwtable
define void @_ZN17CAmbisonicEncoder7ProcessEPfjP8CBFormat(%class.CAmbisonicEncoder* nocapture readonly %this, float* nocapture readonly %pfSrc, i32 %nSamples, %class.CBFormat* nocapture readonly %pfDst) local_unnamed_addr #11 align 2 {
entry:
  %0 = getelementptr inbounds %class.CAmbisonicEncoder, %class.CAmbisonicEncoder* %this, i64 0, i32 0, i32 0, i32 4
  %1 = load i32, i32* %0, align 8, !tbaa !53
  %cmp22 = icmp eq i32 %1, 0
  %cmp320 = icmp eq i32 %nSamples, 0
  %or.cond = or i1 %cmp22, %cmp320
  br i1 %or.cond, label %for.end11, label %for.cond2.preheader.us.preheader

for.cond2.preheader.us.preheader:                 ; preds = %entry
  %_M_head_impl.i.i.i.i.i.i.i = getelementptr inbounds %class.CBFormat, %class.CBFormat* %pfDst, i64 0, i32 4, i32 0, i32 0, i32 0, i32 0, i32 0
  %_M_start.i = getelementptr inbounds %class.CAmbisonicEncoder, %class.CAmbisonicEncoder* %this, i64 0, i32 0, i32 1, i32 0, i32 0, i32 0, i32 0
  %2 = zext i32 %1 to i64
  %.pre = load float*, float** %_M_start.i, align 8, !tbaa !63
  %.pre28 = load float**, float*** %_M_head_impl.i.i.i.i.i.i.i, align 8, !tbaa !43
  %wide.trip.count = zext i32 %nSamples to i64
  %3 = add nsw i64 %wide.trip.count, -1
  %xtraiter = and i64 %wide.trip.count, 3
  %4 = icmp ult i64 %3, 3
  %unroll_iter = sub nsw i64 %wide.trip.count, %xtraiter
  %lcmp.mod = icmp eq i64 %xtraiter, 0
  br label %for.cond2.preheader.us

for.cond2.preheader.us:                           ; preds = %for.cond2.for.inc9_crit_edge.us, %for.cond2.preheader.us.preheader
  %indvars.iv26 = phi i64 [ 0, %for.cond2.preheader.us.preheader ], [ %indvars.iv.next27, %for.cond2.for.inc9_crit_edge.us ]
  %add.ptr.i.us = getelementptr inbounds float, float* %.pre, i64 %indvars.iv26
  %arrayidx.i.us = getelementptr inbounds float*, float** %.pre28, i64 %indvars.iv26
  %5 = load float*, float** %arrayidx.i.us, align 8, !tbaa !43
  br i1 %4, label %for.cond2.for.inc9_crit_edge.us.unr-lcssa, label %for.body4.us

for.body4.us:                                     ; preds = %for.body4.us, %for.cond2.preheader.us
  %indvars.iv = phi i64 [ %indvars.iv.next.3, %for.body4.us ], [ 0, %for.cond2.preheader.us ]
  %niter = phi i64 [ %niter.nsub.3, %for.body4.us ], [ %unroll_iter, %for.cond2.preheader.us ]
  %arrayidx.us = getelementptr inbounds float, float* %pfSrc, i64 %indvars.iv
  %6 = load float, float* %arrayidx.us, align 4, !tbaa !47
  %7 = load float, float* %add.ptr.i.us, align 4, !tbaa !47
  %mul.us = fmul fast float %7, %6
  %arrayidx8.us = getelementptr inbounds float, float* %5, i64 %indvars.iv
  store float %mul.us, float* %arrayidx8.us, align 4, !tbaa !47
  %indvars.iv.next = or i64 %indvars.iv, 1
  %arrayidx.us.1 = getelementptr inbounds float, float* %pfSrc, i64 %indvars.iv.next
  %8 = load float, float* %arrayidx.us.1, align 4, !tbaa !47
  %9 = load float, float* %add.ptr.i.us, align 4, !tbaa !47
  %mul.us.1 = fmul fast float %9, %8
  %arrayidx8.us.1 = getelementptr inbounds float, float* %5, i64 %indvars.iv.next
  store float %mul.us.1, float* %arrayidx8.us.1, align 4, !tbaa !47
  %indvars.iv.next.1 = or i64 %indvars.iv, 2
  %arrayidx.us.2 = getelementptr inbounds float, float* %pfSrc, i64 %indvars.iv.next.1
  %10 = load float, float* %arrayidx.us.2, align 4, !tbaa !47
  %11 = load float, float* %add.ptr.i.us, align 4, !tbaa !47
  %mul.us.2 = fmul fast float %11, %10
  %arrayidx8.us.2 = getelementptr inbounds float, float* %5, i64 %indvars.iv.next.1
  store float %mul.us.2, float* %arrayidx8.us.2, align 4, !tbaa !47
  %indvars.iv.next.2 = or i64 %indvars.iv, 3
  %arrayidx.us.3 = getelementptr inbounds float, float* %pfSrc, i64 %indvars.iv.next.2
  %12 = load float, float* %arrayidx.us.3, align 4, !tbaa !47
  %13 = load float, float* %add.ptr.i.us, align 4, !tbaa !47
  %mul.us.3 = fmul fast float %13, %12
  %arrayidx8.us.3 = getelementptr inbounds float, float* %5, i64 %indvars.iv.next.2
  store float %mul.us.3, float* %arrayidx8.us.3, align 4, !tbaa !47
  %indvars.iv.next.3 = add nuw nsw i64 %indvars.iv, 4
  %niter.nsub.3 = add i64 %niter, -4
  %niter.ncmp.3 = icmp eq i64 %niter.nsub.3, 0
  br i1 %niter.ncmp.3, label %for.cond2.for.inc9_crit_edge.us.unr-lcssa, label %for.body4.us

for.cond2.for.inc9_crit_edge.us.unr-lcssa:        ; preds = %for.body4.us, %for.cond2.preheader.us
  %indvars.iv.unr = phi i64 [ 0, %for.cond2.preheader.us ], [ %indvars.iv.next.3, %for.body4.us ]
  br i1 %lcmp.mod, label %for.cond2.for.inc9_crit_edge.us, label %for.body4.us.epil

for.body4.us.epil:                                ; preds = %for.body4.us.epil, %for.cond2.for.inc9_crit_edge.us.unr-lcssa
  %indvars.iv.epil = phi i64 [ %indvars.iv.next.epil, %for.body4.us.epil ], [ %indvars.iv.unr, %for.cond2.for.inc9_crit_edge.us.unr-lcssa ]
  %epil.iter = phi i64 [ %epil.iter.sub, %for.body4.us.epil ], [ %xtraiter, %for.cond2.for.inc9_crit_edge.us.unr-lcssa ]
  %arrayidx.us.epil = getelementptr inbounds float, float* %pfSrc, i64 %indvars.iv.epil
  %14 = load float, float* %arrayidx.us.epil, align 4, !tbaa !47
  %15 = load float, float* %add.ptr.i.us, align 4, !tbaa !47
  %mul.us.epil = fmul fast float %15, %14
  %arrayidx8.us.epil = getelementptr inbounds float, float* %5, i64 %indvars.iv.epil
  store float %mul.us.epil, float* %arrayidx8.us.epil, align 4, !tbaa !47
  %indvars.iv.next.epil = add nuw nsw i64 %indvars.iv.epil, 1
  %epil.iter.sub = add i64 %epil.iter, -1
  %epil.iter.cmp = icmp eq i64 %epil.iter.sub, 0
  br i1 %epil.iter.cmp, label %for.cond2.for.inc9_crit_edge.us, label %for.body4.us.epil, !llvm.loop !81

for.cond2.for.inc9_crit_edge.us:                  ; preds = %for.body4.us.epil, %for.cond2.for.inc9_crit_edge.us.unr-lcssa
  %indvars.iv.next27 = add nuw nsw i64 %indvars.iv26, 1
  %cmp.us = icmp ult i64 %indvars.iv.next27, %2
  br i1 %cmp.us, label %for.cond2.preheader.us, label %for.end11

for.end11:                                        ; preds = %for.cond2.for.inc9_crit_edge.us, %entry
  ret void
}

; Function Attrs: nounwind uwtable
define void @_ZN21CAmbisonicEncoderDistC2Ev(%class.CAmbisonicEncoderDist* %this) unnamed_addr #3 align 2 {
entry:
  %0 = getelementptr inbounds %class.CAmbisonicEncoderDist, %class.CAmbisonicEncoderDist* %this, i64 0, i32 0, i32 0, i32 0, i32 1
  store i32 0, i32* %0, align 8, !tbaa !49
  %1 = getelementptr inbounds %class.CAmbisonicEncoderDist, %class.CAmbisonicEncoderDist* %this, i64 0, i32 0, i32 0, i32 0, i32 2
  store i8 0, i8* %1, align 4, !tbaa !52
  %2 = getelementptr inbounds %class.CAmbisonicEncoderDist, %class.CAmbisonicEncoderDist* %this, i64 0, i32 0, i32 0, i32 0, i32 4
  store i32 0, i32* %2, align 8, !tbaa !53
  %3 = getelementptr inbounds %class.CAmbisonicEncoderDist, %class.CAmbisonicEncoderDist* %this, i64 0, i32 0, i32 0, i32 0, i32 5
  store i8 0, i8* %3, align 4, !tbaa !54
  %m_pfCoeff.i.i = getelementptr inbounds %class.CAmbisonicEncoderDist, %class.CAmbisonicEncoderDist* %this, i64 0, i32 0, i32 0, i32 1
  %fDistance.i.i = getelementptr inbounds %class.CAmbisonicEncoderDist, %class.CAmbisonicEncoderDist* %this, i64 0, i32 0, i32 0, i32 3, i32 2
  %4 = bitcast %"class.std::vector.0"* %m_pfCoeff.i.i to i8*
  tail call void @llvm.memset.p0i8.i64(i8* nonnull align 8 %4, i8 0, i64 56, i1 false) #24
  store float 1.000000e+00, float* %fDistance.i.i, align 8, !tbaa !56
  %m_fGain.i.i = getelementptr inbounds %class.CAmbisonicEncoderDist, %class.CAmbisonicEncoderDist* %this, i64 0, i32 0, i32 0, i32 4
  store float 1.000000e+00, float* %m_fGain.i.i, align 4, !tbaa !60
  %5 = getelementptr inbounds %class.CAmbisonicEncoderDist, %class.CAmbisonicEncoderDist* %this, i64 0, i32 0, i32 0, i32 0, i32 0
  store i32 (...)** bitcast (i8** getelementptr inbounds ({ [16 x i8*] }, { [16 x i8*] }* @_ZTV21CAmbisonicEncoderDist, i64 0, inrange i32 0, i64 2) to i32 (...)**), i32 (...)*** %5, align 8, !tbaa !40
  %m_nSampleRate = getelementptr inbounds %class.CAmbisonicEncoderDist, %class.CAmbisonicEncoderDist* %this, i64 0, i32 1
  %m_fRoomRadius = getelementptr inbounds %class.CAmbisonicEncoderDist, %class.CAmbisonicEncoderDist* %this, i64 0, i32 9
  %6 = bitcast i32* %m_nSampleRate to i8*
  tail call void @llvm.memset.p0i8.i64(i8* nonnull align 8 %6, i8 0, i64 36, i1 false)
  store float 5.000000e+00, float* %m_fRoomRadius, align 4, !tbaa !82
  %m_fInteriorGain = getelementptr inbounds %class.CAmbisonicEncoderDist, %class.CAmbisonicEncoderDist* %this, i64 0, i32 10
  store float 0.000000e+00, float* %m_fInteriorGain, align 8, !tbaa !84
  %m_fExteriorGain = getelementptr inbounds %class.CAmbisonicEncoderDist, %class.CAmbisonicEncoderDist* %this, i64 0, i32 11
  store float 0.000000e+00, float* %m_fExteriorGain, align 4, !tbaa !85
  %7 = getelementptr inbounds %class.CAmbisonicEncoderDist, %class.CAmbisonicEncoderDist* %this, i64 0, i32 0, i32 0
  %call.i2 = tail call zeroext i1 @_ZN16CAmbisonicSource9ConfigureEjbj(%class.CAmbisonicSource* %7, i32 1, i1 zeroext true, i32 undef) #24
  store i32 44100, i32* %m_nSampleRate, align 8, !tbaa !86
  %m_nDelayBufferLength.i = getelementptr inbounds %class.CAmbisonicEncoderDist, %class.CAmbisonicEncoderDist* %this, i64 0, i32 4
  store i32 19230, i32* %m_nDelayBufferLength.i, align 4, !tbaa !87
  %m_pfDelayBuffer.i = getelementptr inbounds %class.CAmbisonicEncoderDist, %class.CAmbisonicEncoderDist* %this, i64 0, i32 5
  %8 = load float*, float** %m_pfDelayBuffer.i, align 8, !tbaa !88
  %tobool6.i = icmp eq float* %8, null
  br i1 %tobool6.i, label %_ZN21CAmbisonicEncoderDist9ConfigureEjbj.exit, label %delete.notnull.i

delete.notnull.i:                                 ; preds = %entry
  %9 = bitcast float* %8 to i8*
  tail call void @_ZdaPv(i8* %9) #25
  %.pre = load i32, i32* %m_nDelayBufferLength.i, align 4, !tbaa !87
  %phitmp = zext i32 %.pre to i64
  %phitmp3 = shl nuw nsw i64 %phitmp, 2
  br label %_ZN21CAmbisonicEncoderDist9ConfigureEjbj.exit

_ZN21CAmbisonicEncoderDist9ConfigureEjbj.exit:    ; preds = %delete.notnull.i, %entry
  %10 = phi i64 [ 76920, %entry ], [ %phitmp3, %delete.notnull.i ]
  %call12.i = tail call i8* @_Znam(i64 %10) #25
  %11 = bitcast float** %m_pfDelayBuffer.i to i8**
  store i8* %call12.i, i8** %11, align 8, !tbaa !88
  %12 = bitcast %class.CAmbisonicEncoderDist* %this to void (%class.CAmbisonicEncoderDist*)***
  %vtable.i = load void (%class.CAmbisonicEncoderDist*)**, void (%class.CAmbisonicEncoderDist*)*** %12, align 8, !tbaa !40
  %vfn.i = getelementptr inbounds void (%class.CAmbisonicEncoderDist*)*, void (%class.CAmbisonicEncoderDist*)** %vtable.i, i64 3
  %13 = load void (%class.CAmbisonicEncoderDist*)*, void (%class.CAmbisonicEncoderDist*)** %vfn.i, align 8
  tail call void %13(%class.CAmbisonicEncoderDist* nonnull %this) #24
  ret void
}

; Function Attrs: nounwind uwtable
define void @_ZN21CAmbisonicEncoderDistD2Ev(%class.CAmbisonicEncoderDist* nocapture %this) unnamed_addr #3 align 2 {
entry:
  %0 = getelementptr inbounds %class.CAmbisonicEncoderDist, %class.CAmbisonicEncoderDist* %this, i64 0, i32 0, i32 0, i32 0, i32 0
  store i32 (...)** bitcast (i8** getelementptr inbounds ({ [16 x i8*] }, { [16 x i8*] }* @_ZTV21CAmbisonicEncoderDist, i64 0, inrange i32 0, i64 2) to i32 (...)**), i32 (...)*** %0, align 8, !tbaa !40
  %m_pfDelayBuffer = getelementptr inbounds %class.CAmbisonicEncoderDist, %class.CAmbisonicEncoderDist* %this, i64 0, i32 5
  %1 = load float*, float** %m_pfDelayBuffer, align 8, !tbaa !88
  %tobool = icmp eq float* %1, null
  br i1 %tobool, label %if.end, label %delete.notnull

delete.notnull:                                   ; preds = %entry
  %2 = bitcast float* %1 to i8*
  tail call void @_ZdaPv(i8* %2) #25
  br label %if.end

if.end:                                           ; preds = %delete.notnull, %entry
  store i32 (...)** bitcast (i8** getelementptr inbounds ({ [16 x i8*] }, { [16 x i8*] }* @_ZTV16CAmbisonicSource, i64 0, inrange i32 0, i64 2) to i32 (...)**), i32 (...)*** %0, align 8, !tbaa !40
  %_M_start.i.i.i.i = getelementptr inbounds %class.CAmbisonicEncoderDist, %class.CAmbisonicEncoderDist* %this, i64 0, i32 0, i32 0, i32 2, i32 0, i32 0, i32 0, i32 0
  %3 = load float*, float** %_M_start.i.i.i.i, align 8, !tbaa !63
  %tobool.i.i.i.i.i = icmp eq float* %3, null
  br i1 %tobool.i.i.i.i.i, label %_ZNSt6vectorIfSaIfEED2Ev.exit.i.i, label %if.then.i.i.i.i.i

if.then.i.i.i.i.i:                                ; preds = %if.end
  %4 = bitcast float* %3 to i8*
  tail call void @_ZdlPv(i8* nonnull %4) #24
  br label %_ZNSt6vectorIfSaIfEED2Ev.exit.i.i

_ZNSt6vectorIfSaIfEED2Ev.exit.i.i:                ; preds = %if.then.i.i.i.i.i, %if.end
  %_M_start.i.i2.i.i = getelementptr inbounds %class.CAmbisonicEncoderDist, %class.CAmbisonicEncoderDist* %this, i64 0, i32 0, i32 0, i32 1, i32 0, i32 0, i32 0, i32 0
  %5 = load float*, float** %_M_start.i.i2.i.i, align 8, !tbaa !63
  %tobool.i.i.i3.i.i = icmp eq float* %5, null
  br i1 %tobool.i.i.i3.i.i, label %_ZN17CAmbisonicEncoderD2Ev.exit, label %if.then.i.i.i4.i.i

if.then.i.i.i4.i.i:                               ; preds = %_ZNSt6vectorIfSaIfEED2Ev.exit.i.i
  %6 = bitcast float* %5 to i8*
  tail call void @_ZdlPv(i8* nonnull %6) #24
  br label %_ZN17CAmbisonicEncoderD2Ev.exit

_ZN17CAmbisonicEncoderD2Ev.exit:                  ; preds = %if.then.i.i.i4.i.i, %_ZNSt6vectorIfSaIfEED2Ev.exit.i.i
  ret void
}

; Function Attrs: nobuiltin nounwind
declare void @_ZdaPv(i8*) local_unnamed_addr #13

; Function Attrs: nounwind uwtable
define void @_ZN21CAmbisonicEncoderDistD0Ev(%class.CAmbisonicEncoderDist* %this) unnamed_addr #3 align 2 {
entry:
  %0 = getelementptr inbounds %class.CAmbisonicEncoderDist, %class.CAmbisonicEncoderDist* %this, i64 0, i32 0, i32 0, i32 0, i32 0
  store i32 (...)** bitcast (i8** getelementptr inbounds ({ [16 x i8*] }, { [16 x i8*] }* @_ZTV21CAmbisonicEncoderDist, i64 0, inrange i32 0, i64 2) to i32 (...)**), i32 (...)*** %0, align 8, !tbaa !40
  %m_pfDelayBuffer.i = getelementptr inbounds %class.CAmbisonicEncoderDist, %class.CAmbisonicEncoderDist* %this, i64 0, i32 5
  %1 = load float*, float** %m_pfDelayBuffer.i, align 8, !tbaa !88
  %tobool.i = icmp eq float* %1, null
  br i1 %tobool.i, label %if.end.i, label %delete.notnull.i

delete.notnull.i:                                 ; preds = %entry
  %2 = bitcast float* %1 to i8*
  tail call void @_ZdaPv(i8* %2) #25
  br label %if.end.i

if.end.i:                                         ; preds = %delete.notnull.i, %entry
  store i32 (...)** bitcast (i8** getelementptr inbounds ({ [16 x i8*] }, { [16 x i8*] }* @_ZTV16CAmbisonicSource, i64 0, inrange i32 0, i64 2) to i32 (...)**), i32 (...)*** %0, align 8, !tbaa !40
  %_M_start.i.i.i.i.i = getelementptr inbounds %class.CAmbisonicEncoderDist, %class.CAmbisonicEncoderDist* %this, i64 0, i32 0, i32 0, i32 2, i32 0, i32 0, i32 0, i32 0
  %3 = load float*, float** %_M_start.i.i.i.i.i, align 8, !tbaa !63
  %tobool.i.i.i.i.i.i = icmp eq float* %3, null
  br i1 %tobool.i.i.i.i.i.i, label %_ZNSt6vectorIfSaIfEED2Ev.exit.i.i.i, label %if.then.i.i.i.i.i.i

if.then.i.i.i.i.i.i:                              ; preds = %if.end.i
  %4 = bitcast float* %3 to i8*
  tail call void @_ZdlPv(i8* nonnull %4) #24
  br label %_ZNSt6vectorIfSaIfEED2Ev.exit.i.i.i

_ZNSt6vectorIfSaIfEED2Ev.exit.i.i.i:              ; preds = %if.then.i.i.i.i.i.i, %if.end.i
  %_M_start.i.i2.i.i.i = getelementptr inbounds %class.CAmbisonicEncoderDist, %class.CAmbisonicEncoderDist* %this, i64 0, i32 0, i32 0, i32 1, i32 0, i32 0, i32 0, i32 0
  %5 = load float*, float** %_M_start.i.i2.i.i.i, align 8, !tbaa !63
  %tobool.i.i.i3.i.i.i = icmp eq float* %5, null
  br i1 %tobool.i.i.i3.i.i.i, label %_ZN21CAmbisonicEncoderDistD2Ev.exit, label %if.then.i.i.i4.i.i.i

if.then.i.i.i4.i.i.i:                             ; preds = %_ZNSt6vectorIfSaIfEED2Ev.exit.i.i.i
  %6 = bitcast float* %5 to i8*
  tail call void @_ZdlPv(i8* nonnull %6) #24
  br label %_ZN21CAmbisonicEncoderDistD2Ev.exit

_ZN21CAmbisonicEncoderDistD2Ev.exit:              ; preds = %if.then.i.i.i4.i.i.i, %_ZNSt6vectorIfSaIfEED2Ev.exit.i.i.i
  %7 = bitcast %class.CAmbisonicEncoderDist* %this to i8*
  tail call void @_ZdlPv(i8* %7) #25
  ret void
}

; Function Attrs: nounwind uwtable
define zeroext i1 @_ZN21CAmbisonicEncoderDist9ConfigureEjbj(%class.CAmbisonicEncoderDist* %this, i32 %nOrder, i1 zeroext %b3D, i32 %nSampleRate) unnamed_addr #3 align 2 {
entry:
  %0 = getelementptr inbounds %class.CAmbisonicEncoderDist, %class.CAmbisonicEncoderDist* %this, i64 0, i32 0, i32 0
  %call.i = tail call zeroext i1 @_ZN16CAmbisonicSource9ConfigureEjbj(%class.CAmbisonicSource* %0, i32 %nOrder, i1 zeroext %b3D, i32 undef) #24
  %m_nSampleRate = getelementptr inbounds %class.CAmbisonicEncoderDist, %class.CAmbisonicEncoderDist* %this, i64 0, i32 1
  store i32 %nSampleRate, i32* %m_nSampleRate, align 8, !tbaa !86
  %conv = uitofp i32 %nSampleRate to float
  %mul = fmul fast float %conv, 0x3FDBE82FA0000000
  %add = fadd fast float %mul, 5.000000e-01
  %conv5 = fptoui float %add to i32
  %m_nDelayBufferLength = getelementptr inbounds %class.CAmbisonicEncoderDist, %class.CAmbisonicEncoderDist* %this, i64 0, i32 4
  store i32 %conv5, i32* %m_nDelayBufferLength, align 4, !tbaa !87
  %m_pfDelayBuffer = getelementptr inbounds %class.CAmbisonicEncoderDist, %class.CAmbisonicEncoderDist* %this, i64 0, i32 5
  %1 = load float*, float** %m_pfDelayBuffer, align 8, !tbaa !88
  %tobool6 = icmp eq float* %1, null
  br i1 %tobool6, label %if.end9, label %delete.notnull

delete.notnull:                                   ; preds = %entry
  %2 = bitcast float* %1 to i8*
  tail call void @_ZdaPv(i8* %2) #25
  %.pre = load i32, i32* %m_nDelayBufferLength, align 4, !tbaa !87
  br label %if.end9

if.end9:                                          ; preds = %delete.notnull, %entry
  %3 = phi i32 [ %conv5, %entry ], [ %.pre, %delete.notnull ]
  %conv11 = zext i32 %3 to i64
  %4 = shl nuw nsw i64 %conv11, 2
  %call12 = tail call i8* @_Znam(i64 %4) #25
  %5 = bitcast float** %m_pfDelayBuffer to i8**
  store i8* %call12, i8** %5, align 8, !tbaa !88
  %6 = bitcast %class.CAmbisonicEncoderDist* %this to void (%class.CAmbisonicEncoderDist*)***
  %vtable = load void (%class.CAmbisonicEncoderDist*)**, void (%class.CAmbisonicEncoderDist*)*** %6, align 8, !tbaa !40
  %vfn = getelementptr inbounds void (%class.CAmbisonicEncoderDist*)*, void (%class.CAmbisonicEncoderDist*)** %vtable, i64 3
  %7 = load void (%class.CAmbisonicEncoderDist*)*, void (%class.CAmbisonicEncoderDist*)** %vfn, align 8
  tail call void %7(%class.CAmbisonicEncoderDist* nonnull %this) #24
  ret i1 true
}

; Function Attrs: nounwind uwtable
define void @_ZN21CAmbisonicEncoderDist5ResetEv(%class.CAmbisonicEncoderDist* nocapture %this) unnamed_addr #3 align 2 {
entry:
  %m_pfDelayBuffer = getelementptr inbounds %class.CAmbisonicEncoderDist, %class.CAmbisonicEncoderDist* %this, i64 0, i32 5
  %0 = bitcast float** %m_pfDelayBuffer to i8**
  %1 = load i8*, i8** %0, align 8, !tbaa !88
  %m_nDelayBufferLength = getelementptr inbounds %class.CAmbisonicEncoderDist, %class.CAmbisonicEncoderDist* %this, i64 0, i32 4
  %2 = load i32, i32* %m_nDelayBufferLength, align 4, !tbaa !87
  %conv = zext i32 %2 to i64
  %mul = shl nuw nsw i64 %conv, 2
  tail call void @llvm.memset.p0i8.i64(i8* align 4 %1, i8 0, i64 %mul, i1 false)
  %fDistance = getelementptr inbounds %class.CAmbisonicEncoderDist, %class.CAmbisonicEncoderDist* %this, i64 0, i32 0, i32 0, i32 3, i32 2
  %3 = load float, float* %fDistance, align 8, !tbaa !56
  %div = fmul fast float %3, 0x3F67D05F40000000
  %m_nSampleRate = getelementptr inbounds %class.CAmbisonicEncoderDist, %class.CAmbisonicEncoderDist* %this, i64 0, i32 1
  %4 = load i32, i32* %m_nSampleRate, align 8, !tbaa !86
  %conv2 = uitofp i32 %4 to float
  %mul3 = fmul fast float %div, %conv2
  %add = fadd fast float %mul3, 5.000000e-01
  %m_fDelay = getelementptr inbounds %class.CAmbisonicEncoderDist, %class.CAmbisonicEncoderDist* %this, i64 0, i32 2
  %conv5 = fptosi float %add to i32
  %m_nDelay = getelementptr inbounds %class.CAmbisonicEncoderDist, %class.CAmbisonicEncoderDist* %this, i64 0, i32 3
  store i32 %conv5, i32* %m_nDelay, align 8, !tbaa !89
  %conv7 = sitofp i32 %conv5 to float
  %sub = fsub fast float %add, %conv7
  store float %sub, float* %m_fDelay, align 4, !tbaa !90
  %m_nIn = getelementptr inbounds %class.CAmbisonicEncoderDist, %class.CAmbisonicEncoderDist* %this, i64 0, i32 6
  store i32 0, i32* %m_nIn, align 8, !tbaa !91
  %5 = load i32, i32* %m_nDelayBufferLength, align 4, !tbaa !87
  %add13 = sub i32 %5, %conv5
  %rem = urem i32 %add13, %5
  %m_nOutA = getelementptr inbounds %class.CAmbisonicEncoderDist, %class.CAmbisonicEncoderDist* %this, i64 0, i32 7
  store i32 %rem, i32* %m_nOutA, align 4, !tbaa !92
  %add16 = add nuw nsw i32 %rem, 1
  %rem18 = urem i32 %add16, %5
  %m_nOutB = getelementptr inbounds %class.CAmbisonicEncoderDist, %class.CAmbisonicEncoderDist* %this, i64 0, i32 8
  store i32 %rem18, i32* %m_nOutB, align 8, !tbaa !93
  ret void
}

; Function Attrs: nofree nounwind uwtable
define void @_ZN21CAmbisonicEncoderDist7RefreshEv(%class.CAmbisonicEncoderDist* %this) unnamed_addr #8 align 2 {
entry:
  %0 = getelementptr inbounds %class.CAmbisonicEncoderDist, %class.CAmbisonicEncoderDist* %this, i64 0, i32 0, i32 0
  tail call void @_ZN16CAmbisonicSource7RefreshEv(%class.CAmbisonicSource* %0) #24
  %fDistance = getelementptr inbounds %class.CAmbisonicEncoderDist, %class.CAmbisonicEncoderDist* %this, i64 0, i32 0, i32 0, i32 3, i32 2
  %1 = load float, float* %fDistance, align 8, !tbaa !56
  %2 = tail call fast float @llvm.fabs.f32(float %1) #24
  %div = fmul fast float %2, 0x3F67D05F40000000
  %m_nSampleRate = getelementptr inbounds %class.CAmbisonicEncoderDist, %class.CAmbisonicEncoderDist* %this, i64 0, i32 1
  %3 = load i32, i32* %m_nSampleRate, align 8, !tbaa !86
  %conv = uitofp i32 %3 to float
  %mul = fmul fast float %div, %conv
  %m_fDelay = getelementptr inbounds %class.CAmbisonicEncoderDist, %class.CAmbisonicEncoderDist* %this, i64 0, i32 2
  %conv3 = fptosi float %mul to i32
  %m_nDelay = getelementptr inbounds %class.CAmbisonicEncoderDist, %class.CAmbisonicEncoderDist* %this, i64 0, i32 3
  store i32 %conv3, i32* %m_nDelay, align 8, !tbaa !89
  %conv5 = sitofp i32 %conv3 to float
  %sub = fsub fast float %mul, %conv5
  store float %sub, float* %m_fDelay, align 4, !tbaa !90
  %m_nIn = getelementptr inbounds %class.CAmbisonicEncoderDist, %class.CAmbisonicEncoderDist* %this, i64 0, i32 6
  %4 = load i32, i32* %m_nIn, align 8, !tbaa !91
  %sub8 = sub i32 %4, %conv3
  %m_nDelayBufferLength = getelementptr inbounds %class.CAmbisonicEncoderDist, %class.CAmbisonicEncoderDist* %this, i64 0, i32 4
  %5 = load i32, i32* %m_nDelayBufferLength, align 4, !tbaa !87
  %add = add i32 %sub8, %5
  %rem = urem i32 %add, %5
  %m_nOutA = getelementptr inbounds %class.CAmbisonicEncoderDist, %class.CAmbisonicEncoderDist* %this, i64 0, i32 7
  store i32 %rem, i32* %m_nOutA, align 4, !tbaa !92
  %add11 = add nuw nsw i32 %rem, 1
  %rem13 = urem i32 %add11, %5
  %m_nOutB = getelementptr inbounds %class.CAmbisonicEncoderDist, %class.CAmbisonicEncoderDist* %this, i64 0, i32 8
  store i32 %rem13, i32* %m_nOutB, align 8, !tbaa !93
  %m_fRoomRadius = getelementptr inbounds %class.CAmbisonicEncoderDist, %class.CAmbisonicEncoderDist* %this, i64 0, i32 9
  %6 = load float, float* %m_fRoomRadius, align 4, !tbaa !82
  %cmp = fcmp fast ult float %2, %6
  br i1 %cmp, label %if.else, label %if.then

if.then:                                          ; preds = %entry
  %7 = fmul fast float %6, 5.000000e-01
  %div22 = fdiv fast float %7, %2
  br label %if.end

if.else:                                          ; preds = %entry
  %8 = fmul fast float %2, 5.000000e-01
  %9 = fdiv fast float %8, %6
  %div30 = fsub fast float 1.000000e+00, %9
  br label %if.end

if.end:                                           ; preds = %if.else, %if.then
  %div22.sink39 = phi float [ %div30, %if.else ], [ %div22, %if.then ]
  %div22.sink = phi float [ %9, %if.else ], [ %div22, %if.then ]
  %10 = getelementptr inbounds %class.CAmbisonicEncoderDist, %class.CAmbisonicEncoderDist* %this, i64 0, i32 10
  store float %div22.sink39, float* %10, align 8
  %11 = getelementptr inbounds %class.CAmbisonicEncoderDist, %class.CAmbisonicEncoderDist* %this, i64 0, i32 11
  store float %div22.sink, float* %11, align 4
  ret void
}

; Function Attrs: nofree norecurse nounwind uwtable
define void @_ZN21CAmbisonicEncoderDist7ProcessEPfjP8CBFormat(%class.CAmbisonicEncoderDist* nocapture %this, float* nocapture readonly %pfSrc, i32 %nSamples, %class.CBFormat* nocapture readonly %pfDst) local_unnamed_addr #11 align 2 {
entry:
  %cmp62 = icmp eq i32 %nSamples, 0
  br i1 %cmp62, label %for.end44, label %for.body.lr.ph

for.body.lr.ph:                                   ; preds = %entry
  %m_pfDelayBuffer = getelementptr inbounds %class.CAmbisonicEncoderDist, %class.CAmbisonicEncoderDist* %this, i64 0, i32 5
  %0 = load float*, float** %m_pfDelayBuffer, align 8, !tbaa !88
  %m_nIn = getelementptr inbounds %class.CAmbisonicEncoderDist, %class.CAmbisonicEncoderDist* %this, i64 0, i32 6
  %m_nOutA = getelementptr inbounds %class.CAmbisonicEncoderDist, %class.CAmbisonicEncoderDist* %this, i64 0, i32 7
  %m_fDelay = getelementptr inbounds %class.CAmbisonicEncoderDist, %class.CAmbisonicEncoderDist* %this, i64 0, i32 2
  %m_nOutB = getelementptr inbounds %class.CAmbisonicEncoderDist, %class.CAmbisonicEncoderDist* %this, i64 0, i32 8
  %m_fInteriorGain = getelementptr inbounds %class.CAmbisonicEncoderDist, %class.CAmbisonicEncoderDist* %this, i64 0, i32 10
  %_M_start.i = getelementptr inbounds %class.CAmbisonicEncoderDist, %class.CAmbisonicEncoderDist* %this, i64 0, i32 0, i32 0, i32 1, i32 0, i32 0, i32 0, i32 0
  %1 = load float*, float** %_M_start.i, align 8, !tbaa !63
  %_M_head_impl.i.i.i.i.i.i.i59 = getelementptr inbounds %class.CBFormat, %class.CBFormat* %pfDst, i64 0, i32 4, i32 0, i32 0, i32 0, i32 0, i32 0
  %2 = load float**, float*** %_M_head_impl.i.i.i.i.i.i.i59, align 8, !tbaa !43
  %3 = load float*, float** %2, align 8, !tbaa !43
  %m_fExteriorGain = getelementptr inbounds %class.CAmbisonicEncoderDist, %class.CAmbisonicEncoderDist* %this, i64 0, i32 11
  %4 = getelementptr inbounds %class.CAmbisonicEncoderDist, %class.CAmbisonicEncoderDist* %this, i64 0, i32 0, i32 0, i32 0, i32 4
  %5 = load i32, i32* %4, align 8, !tbaa !53
  %cmp1960 = icmp ugt i32 %5, 1
  %m_nDelayBufferLength = getelementptr inbounds %class.CAmbisonicEncoderDist, %class.CAmbisonicEncoderDist* %this, i64 0, i32 4
  %6 = load i32, i32* %m_nDelayBufferLength, align 4, !tbaa !87
  %m_nIn.promoted = load i32, i32* %m_nIn, align 8, !tbaa !91
  %m_nOutA.promoted = load i32, i32* %m_nOutA, align 4, !tbaa !92
  %m_nOutB.promoted = load i32, i32* %m_nOutB, align 8, !tbaa !93
  %wide.trip.count = zext i32 %nSamples to i64
  br i1 %cmp1960, label %for.body.us.preheader, label %for.body

for.body.us.preheader:                            ; preds = %for.body.lr.ph
  %7 = zext i32 %5 to i64
  %8 = add nsw i64 %7, -1
  %9 = add nsw i64 %7, -2
  %xtraiter = and i64 %8, 3
  %10 = icmp ult i64 %9, 3
  %unroll_iter = sub nsw i64 %8, %xtraiter
  %lcmp.mod = icmp eq i64 %xtraiter, 0
  br label %for.body.us

for.body.us:                                      ; preds = %for.cond18.for.end_crit_edge.us, %for.body.us.preheader
  %indvars.iv71 = phi i64 [ 0, %for.body.us.preheader ], [ %indvars.iv.next72, %for.cond18.for.end_crit_edge.us ]
  %rem4066.us = phi i32 [ %m_nOutB.promoted, %for.body.us.preheader ], [ %rem40.us, %for.cond18.for.end_crit_edge.us ]
  %rem3565.us = phi i32 [ %m_nOutA.promoted, %for.body.us.preheader ], [ %rem35.us, %for.cond18.for.end_crit_edge.us ]
  %rem64.us = phi i32 [ %m_nIn.promoted, %for.body.us.preheader ], [ %rem.us, %for.cond18.for.end_crit_edge.us ]
  %arrayidx.us = getelementptr inbounds float, float* %pfSrc, i64 %indvars.iv71
  %11 = bitcast float* %arrayidx.us to i32*
  %12 = load i32, i32* %11, align 4, !tbaa !47
  %idxprom2.us = sext i32 %rem64.us to i64
  %arrayidx3.us = getelementptr inbounds float, float* %0, i64 %idxprom2.us
  %13 = bitcast float* %arrayidx3.us to i32*
  store i32 %12, i32* %13, align 4, !tbaa !47
  %idxprom5.us = sext i32 %rem3565.us to i64
  %arrayidx6.us = getelementptr inbounds float, float* %0, i64 %idxprom5.us
  %14 = load float, float* %arrayidx6.us, align 4, !tbaa !47
  %15 = load float, float* %m_fDelay, align 4, !tbaa !90
  %sub.us = fsub fast float 1.000000e+00, %15
  %mul.us = fmul fast float %sub.us, %14
  %idxprom8.us = sext i32 %rem4066.us to i64
  %arrayidx9.us = getelementptr inbounds float, float* %0, i64 %idxprom8.us
  %16 = load float, float* %arrayidx9.us, align 4, !tbaa !47
  %mul11.us = fmul fast float %16, %15
  %add.us = fadd fast float %mul11.us, %mul.us
  %17 = load float, float* %m_fInteriorGain, align 8, !tbaa !84
  %mul12.us = fmul fast float %add.us, %17
  %18 = load float, float* %1, align 4, !tbaa !47
  %mul13.us = fmul fast float %mul12.us, %18
  %arrayidx16.us = getelementptr inbounds float, float* %3, i64 %indvars.iv71
  store float %mul13.us, float* %arrayidx16.us, align 4, !tbaa !47
  %19 = load float, float* %m_fExteriorGain, align 4, !tbaa !85
  %mul17.us = fmul fast float %19, %add.us
  br i1 %10, label %for.cond18.for.end_crit_edge.us.unr-lcssa, label %for.body20.us

for.body20.us:                                    ; preds = %for.body20.us, %for.body.us
  %indvars.iv = phi i64 [ %indvars.iv.next.3, %for.body20.us ], [ 1, %for.body.us ]
  %niter = phi i64 [ %niter.nsub.3, %for.body20.us ], [ %unroll_iter, %for.body.us ]
  %add.ptr.i.us = getelementptr inbounds float, float* %1, i64 %indvars.iv
  %20 = load float, float* %add.ptr.i.us, align 4, !tbaa !47
  %mul23.us = fmul fast float %mul17.us, %20
  %arrayidx.i.us = getelementptr inbounds float*, float** %2, i64 %indvars.iv
  %21 = load float*, float** %arrayidx.i.us, align 8, !tbaa !43
  %arrayidx28.us = getelementptr inbounds float, float* %21, i64 %indvars.iv71
  store float %mul23.us, float* %arrayidx28.us, align 4, !tbaa !47
  %indvars.iv.next = add nuw nsw i64 %indvars.iv, 1
  %add.ptr.i.us.1 = getelementptr inbounds float, float* %1, i64 %indvars.iv.next
  %22 = load float, float* %add.ptr.i.us.1, align 4, !tbaa !47
  %mul23.us.1 = fmul fast float %mul17.us, %22
  %arrayidx.i.us.1 = getelementptr inbounds float*, float** %2, i64 %indvars.iv.next
  %23 = load float*, float** %arrayidx.i.us.1, align 8, !tbaa !43
  %arrayidx28.us.1 = getelementptr inbounds float, float* %23, i64 %indvars.iv71
  store float %mul23.us.1, float* %arrayidx28.us.1, align 4, !tbaa !47
  %indvars.iv.next.1 = add nuw nsw i64 %indvars.iv, 2
  %add.ptr.i.us.2 = getelementptr inbounds float, float* %1, i64 %indvars.iv.next.1
  %24 = load float, float* %add.ptr.i.us.2, align 4, !tbaa !47
  %mul23.us.2 = fmul fast float %mul17.us, %24
  %arrayidx.i.us.2 = getelementptr inbounds float*, float** %2, i64 %indvars.iv.next.1
  %25 = load float*, float** %arrayidx.i.us.2, align 8, !tbaa !43
  %arrayidx28.us.2 = getelementptr inbounds float, float* %25, i64 %indvars.iv71
  store float %mul23.us.2, float* %arrayidx28.us.2, align 4, !tbaa !47
  %indvars.iv.next.2 = add nuw nsw i64 %indvars.iv, 3
  %add.ptr.i.us.3 = getelementptr inbounds float, float* %1, i64 %indvars.iv.next.2
  %26 = load float, float* %add.ptr.i.us.3, align 4, !tbaa !47
  %mul23.us.3 = fmul fast float %mul17.us, %26
  %arrayidx.i.us.3 = getelementptr inbounds float*, float** %2, i64 %indvars.iv.next.2
  %27 = load float*, float** %arrayidx.i.us.3, align 8, !tbaa !43
  %arrayidx28.us.3 = getelementptr inbounds float, float* %27, i64 %indvars.iv71
  store float %mul23.us.3, float* %arrayidx28.us.3, align 4, !tbaa !47
  %indvars.iv.next.3 = add nuw nsw i64 %indvars.iv, 4
  %niter.nsub.3 = add i64 %niter, -4
  %niter.ncmp.3 = icmp eq i64 %niter.nsub.3, 0
  br i1 %niter.ncmp.3, label %for.cond18.for.end_crit_edge.us.unr-lcssa, label %for.body20.us

for.cond18.for.end_crit_edge.us.unr-lcssa:        ; preds = %for.body20.us, %for.body.us
  %indvars.iv.unr = phi i64 [ 1, %for.body.us ], [ %indvars.iv.next.3, %for.body20.us ]
  br i1 %lcmp.mod, label %for.cond18.for.end_crit_edge.us, label %for.body20.us.epil

for.body20.us.epil:                               ; preds = %for.body20.us.epil, %for.cond18.for.end_crit_edge.us.unr-lcssa
  %indvars.iv.epil = phi i64 [ %indvars.iv.next.epil, %for.body20.us.epil ], [ %indvars.iv.unr, %for.cond18.for.end_crit_edge.us.unr-lcssa ]
  %epil.iter = phi i64 [ %epil.iter.sub, %for.body20.us.epil ], [ %xtraiter, %for.cond18.for.end_crit_edge.us.unr-lcssa ]
  %add.ptr.i.us.epil = getelementptr inbounds float, float* %1, i64 %indvars.iv.epil
  %28 = load float, float* %add.ptr.i.us.epil, align 4, !tbaa !47
  %mul23.us.epil = fmul fast float %mul17.us, %28
  %arrayidx.i.us.epil = getelementptr inbounds float*, float** %2, i64 %indvars.iv.epil
  %29 = load float*, float** %arrayidx.i.us.epil, align 8, !tbaa !43
  %arrayidx28.us.epil = getelementptr inbounds float, float* %29, i64 %indvars.iv71
  store float %mul23.us.epil, float* %arrayidx28.us.epil, align 4, !tbaa !47
  %indvars.iv.next.epil = add nuw nsw i64 %indvars.iv.epil, 1
  %epil.iter.sub = add i64 %epil.iter, -1
  %epil.iter.cmp = icmp eq i64 %epil.iter.sub, 0
  br i1 %epil.iter.cmp, label %for.cond18.for.end_crit_edge.us, label %for.body20.us.epil, !llvm.loop !94

for.cond18.for.end_crit_edge.us:                  ; preds = %for.body20.us.epil, %for.cond18.for.end_crit_edge.us.unr-lcssa
  %add30.us = add nsw i32 %rem64.us, 1
  %rem.us = urem i32 %add30.us, %6
  %add33.us = add nsw i32 %rem3565.us, 1
  %rem35.us = urem i32 %add33.us, %6
  %add38.us = add nsw i32 %rem4066.us, 1
  %rem40.us = urem i32 %add38.us, %6
  %indvars.iv.next72 = add nuw nsw i64 %indvars.iv71, 1
  %exitcond = icmp eq i64 %indvars.iv.next72, %wide.trip.count
  br i1 %exitcond, label %for.cond.for.end44_crit_edge, label %for.body.us

for.body:                                         ; preds = %for.body, %for.body.lr.ph
  %indvars.iv73 = phi i64 [ %indvars.iv.next74, %for.body ], [ 0, %for.body.lr.ph ]
  %rem4066 = phi i32 [ %rem40, %for.body ], [ %m_nOutB.promoted, %for.body.lr.ph ]
  %rem3565 = phi i32 [ %rem35, %for.body ], [ %m_nOutA.promoted, %for.body.lr.ph ]
  %rem64 = phi i32 [ %rem, %for.body ], [ %m_nIn.promoted, %for.body.lr.ph ]
  %arrayidx = getelementptr inbounds float, float* %pfSrc, i64 %indvars.iv73
  %30 = bitcast float* %arrayidx to i32*
  %31 = load i32, i32* %30, align 4, !tbaa !47
  %idxprom2 = sext i32 %rem64 to i64
  %arrayidx3 = getelementptr inbounds float, float* %0, i64 %idxprom2
  %32 = bitcast float* %arrayidx3 to i32*
  store i32 %31, i32* %32, align 4, !tbaa !47
  %idxprom5 = sext i32 %rem3565 to i64
  %arrayidx6 = getelementptr inbounds float, float* %0, i64 %idxprom5
  %33 = load float, float* %arrayidx6, align 4, !tbaa !47
  %34 = load float, float* %m_fDelay, align 4, !tbaa !90
  %sub = fsub fast float 1.000000e+00, %34
  %mul = fmul fast float %sub, %33
  %idxprom8 = sext i32 %rem4066 to i64
  %arrayidx9 = getelementptr inbounds float, float* %0, i64 %idxprom8
  %35 = load float, float* %arrayidx9, align 4, !tbaa !47
  %mul11 = fmul fast float %35, %34
  %add = fadd fast float %mul11, %mul
  %36 = load float, float* %m_fInteriorGain, align 8, !tbaa !84
  %mul12 = fmul fast float %add, %36
  %37 = load float, float* %1, align 4, !tbaa !47
  %mul13 = fmul fast float %mul12, %37
  %arrayidx16 = getelementptr inbounds float, float* %3, i64 %indvars.iv73
  store float %mul13, float* %arrayidx16, align 4, !tbaa !47
  %add30 = add nsw i32 %rem64, 1
  %rem = urem i32 %add30, %6
  %add33 = add nsw i32 %rem3565, 1
  %rem35 = urem i32 %add33, %6
  %add38 = add nsw i32 %rem4066, 1
  %rem40 = urem i32 %add38, %6
  %indvars.iv.next74 = add nuw nsw i64 %indvars.iv73, 1
  %exitcond76 = icmp eq i64 %indvars.iv.next74, %wide.trip.count
  br i1 %exitcond76, label %for.cond.for.end44_crit_edge, label %for.body

for.cond.for.end44_crit_edge:                     ; preds = %for.body, %for.cond18.for.end_crit_edge.us
  %rem40.lcssa = phi i32 [ %rem40.us, %for.cond18.for.end_crit_edge.us ], [ %rem40, %for.body ]
  %rem35.lcssa = phi i32 [ %rem35.us, %for.cond18.for.end_crit_edge.us ], [ %rem35, %for.body ]
  %rem.lcssa = phi i32 [ %rem.us, %for.cond18.for.end_crit_edge.us ], [ %rem, %for.body ]
  store i32 %rem.lcssa, i32* %m_nIn, align 8, !tbaa !91
  store i32 %rem35.lcssa, i32* %m_nOutA, align 4, !tbaa !92
  store i32 %rem40.lcssa, i32* %m_nOutB, align 8, !tbaa !93
  br label %for.end44

for.end44:                                        ; preds = %for.cond.for.end44_crit_edge, %entry
  ret void
}

; Function Attrs: nofree norecurse nounwind uwtable writeonly
define void @_ZN21CAmbisonicEncoderDist13SetRoomRadiusEf(%class.CAmbisonicEncoderDist* nocapture %this, float %fRoomRadius) local_unnamed_addr #5 align 2 {
entry:
  %m_fRoomRadius = getelementptr inbounds %class.CAmbisonicEncoderDist, %class.CAmbisonicEncoderDist* %this, i64 0, i32 9
  store float %fRoomRadius, float* %m_fRoomRadius, align 4, !tbaa !82
  ret void
}

; Function Attrs: norecurse nounwind readonly uwtable
define float @_ZN21CAmbisonicEncoderDist13GetRoomRadiusEv(%class.CAmbisonicEncoderDist* nocapture readonly %this) local_unnamed_addr #6 align 2 {
entry:
  %m_fRoomRadius = getelementptr inbounds %class.CAmbisonicEncoderDist, %class.CAmbisonicEncoderDist* %this, i64 0, i32 9
  %0 = load float, float* %m_fRoomRadius, align 4, !tbaa !82
  ret float %0
}

; Function Attrs: nofree nounwind uwtable writeonly
define void @_ZN19CAmbisonicProcessorC2Ev(%class.CAmbisonicProcessor* nocapture %this) unnamed_addr #14 align 2 {
entry:
  %0 = getelementptr inbounds %class.CAmbisonicProcessor, %class.CAmbisonicProcessor* %this, i64 0, i32 0, i32 0
  %1 = getelementptr inbounds %class.CAmbisonicProcessor, %class.CAmbisonicProcessor* %this, i64 0, i32 0, i32 1
  store i32 0, i32* %1, align 8, !tbaa !49
  %2 = getelementptr inbounds %class.CAmbisonicProcessor, %class.CAmbisonicProcessor* %this, i64 0, i32 0, i32 2
  store i8 0, i8* %2, align 4, !tbaa !52
  %3 = getelementptr inbounds %class.CAmbisonicProcessor, %class.CAmbisonicProcessor* %this, i64 0, i32 0, i32 4
  store i32 0, i32* %3, align 8, !tbaa !53
  %4 = getelementptr inbounds %class.CAmbisonicProcessor, %class.CAmbisonicProcessor* %this, i64 0, i32 0, i32 5
  store i8 0, i8* %4, align 4, !tbaa !54
  store i32 (...)** bitcast (i8** getelementptr inbounds ({ [7 x i8*] }, { [7 x i8*] }* @_ZTV19CAmbisonicProcessor, i64 0, inrange i32 0, i64 2) to i32 (...)**), i32 (...)*** %0, align 8, !tbaa !40
  %fYaw2.i = getelementptr inbounds %class.CAmbisonicProcessor, %class.CAmbisonicProcessor* %this, i64 0, i32 1, i32 0
  %m_ppcpPsychFilters = getelementptr inbounds %class.CAmbisonicProcessor, %class.CAmbisonicProcessor* %this, i64 0, i32 13
  %5 = bitcast float* %fYaw2.i to i8*
  call void @llvm.memset.p0i8.i64(i8* nonnull align 4 %5, i8 0, i64 64, i1 false)
  %6 = bitcast %struct.kiss_fft_cpx*** %m_ppcpPsychFilters to i8*
  call void @llvm.memset.p0i8.i64(i8* nonnull align 8 %6, i8 0, i64 16, i1 false)
  ret void
}

; Function Attrs: nounwind uwtable
define void @_ZN19CAmbisonicProcessorD2Ev(%class.CAmbisonicProcessor* nocapture %this) unnamed_addr #3 align 2 {
entry:
  %0 = getelementptr inbounds %class.CAmbisonicProcessor, %class.CAmbisonicProcessor* %this, i64 0, i32 0, i32 0
  store i32 (...)** bitcast (i8** getelementptr inbounds ({ [7 x i8*] }, { [7 x i8*] }* @_ZTV19CAmbisonicProcessor, i64 0, inrange i32 0, i64 2) to i32 (...)**), i32 (...)*** %0, align 8, !tbaa !40
  %m_pfTempSample = getelementptr inbounds %class.CAmbisonicProcessor, %class.CAmbisonicProcessor* %this, i64 0, i32 2
  %1 = load float*, float** %m_pfTempSample, align 8, !tbaa !95
  %tobool = icmp eq float* %1, null
  br i1 %tobool, label %if.end, label %delete.notnull

delete.notnull:                                   ; preds = %entry
  %2 = bitcast float* %1 to i8*
  tail call void @_ZdaPv(i8* %2) #25
  br label %if.end

if.end:                                           ; preds = %delete.notnull, %entry
  %m_pfScratchBufferA = getelementptr inbounds %class.CAmbisonicProcessor, %class.CAmbisonicProcessor* %this, i64 0, i32 5
  %3 = load float*, float** %m_pfScratchBufferA, align 8, !tbaa !98
  %tobool3 = icmp eq float* %3, null
  br i1 %tobool3, label %if.end9, label %delete.notnull7

delete.notnull7:                                  ; preds = %if.end
  %4 = bitcast float* %3 to i8*
  tail call void @_ZdaPv(i8* %4) #25
  br label %if.end9

if.end9:                                          ; preds = %delete.notnull7, %if.end
  %m_pFFT_psych_cfg = getelementptr inbounds %class.CAmbisonicProcessor, %class.CAmbisonicProcessor* %this, i64 0, i32 3
  %5 = load %struct.kiss_fftr_state*, %struct.kiss_fftr_state** %m_pFFT_psych_cfg, align 8, !tbaa !99
  %tobool10 = icmp eq %struct.kiss_fftr_state* %5, null
  br i1 %tobool10, label %if.end13, label %if.then11

if.then11:                                        ; preds = %if.end9
  %6 = bitcast %struct.kiss_fftr_state* %5 to i8*
  tail call void @free(i8* %6) #24
  br label %if.end13

if.end13:                                         ; preds = %if.then11, %if.end9
  %m_pIFFT_psych_cfg = getelementptr inbounds %class.CAmbisonicProcessor, %class.CAmbisonicProcessor* %this, i64 0, i32 4
  %7 = load %struct.kiss_fftr_state*, %struct.kiss_fftr_state** %m_pIFFT_psych_cfg, align 8, !tbaa !100
  %tobool14 = icmp eq %struct.kiss_fftr_state* %7, null
  br i1 %tobool14, label %if.end17, label %if.then15

if.then15:                                        ; preds = %if.end13
  %8 = bitcast %struct.kiss_fftr_state* %7 to i8*
  tail call void @free(i8* %8) #24
  br label %if.end17

if.end17:                                         ; preds = %if.then15, %if.end13
  %m_ppcpPsychFilters = getelementptr inbounds %class.CAmbisonicProcessor, %class.CAmbisonicProcessor* %this, i64 0, i32 13
  %9 = load %struct.kiss_fft_cpx**, %struct.kiss_fft_cpx*** %m_ppcpPsychFilters, align 8, !tbaa !101
  %tobool18 = icmp eq %struct.kiss_fft_cpx** %9, null
  br i1 %tobool18, label %if.end34, label %for.cond.preheader

for.cond.preheader:                               ; preds = %if.end17
  %10 = getelementptr inbounds %class.CAmbisonicProcessor, %class.CAmbisonicProcessor* %this, i64 0, i32 0, i32 1
  br label %for.body

for.cond.cleanup:                                 ; preds = %for.inc
  %isnull31 = icmp eq %struct.kiss_fft_cpx** %.pr, null
  br i1 %isnull31, label %if.end34, label %delete.notnull32

for.body:                                         ; preds = %for.inc, %for.cond.preheader
  %.pr90 = phi %struct.kiss_fft_cpx** [ %9, %for.cond.preheader ], [ %.pr, %for.inc ]
  %i.089 = phi i32 [ 0, %for.cond.preheader ], [ %inc, %for.inc ]
  %idxprom = zext i32 %i.089 to i64
  %arrayidx = getelementptr inbounds %struct.kiss_fft_cpx*, %struct.kiss_fft_cpx** %.pr90, i64 %idxprom
  %11 = load %struct.kiss_fft_cpx*, %struct.kiss_fft_cpx** %arrayidx, align 8, !tbaa !43
  %tobool21 = icmp eq %struct.kiss_fft_cpx* %11, null
  br i1 %tobool21, label %for.inc, label %delete.notnull27

delete.notnull27:                                 ; preds = %for.body
  %12 = bitcast %struct.kiss_fft_cpx* %11 to i8*
  tail call void @_ZdaPv(i8* %12) #25
  %.pr.pre = load %struct.kiss_fft_cpx**, %struct.kiss_fft_cpx*** %m_ppcpPsychFilters, align 8, !tbaa !101
  br label %for.inc

for.inc:                                          ; preds = %delete.notnull27, %for.body
  %.pr = phi %struct.kiss_fft_cpx** [ %.pr90, %for.body ], [ %.pr.pre, %delete.notnull27 ]
  %inc = add i32 %i.089, 1
  %13 = load i32, i32* %10, align 8, !tbaa !49
  %cmp = icmp ugt i32 %inc, %13
  br i1 %cmp, label %for.cond.cleanup, label %for.body

delete.notnull32:                                 ; preds = %for.cond.cleanup
  %14 = bitcast %struct.kiss_fft_cpx** %.pr to i8*
  tail call void @_ZdaPv(i8* %14) #25
  br label %if.end34

if.end34:                                         ; preds = %delete.notnull32, %for.cond.cleanup, %if.end17
  %m_pcpScratch = getelementptr inbounds %class.CAmbisonicProcessor, %class.CAmbisonicProcessor* %this, i64 0, i32 14
  %15 = load %struct.kiss_fft_cpx*, %struct.kiss_fft_cpx** %m_pcpScratch, align 8, !tbaa !102
  %tobool35 = icmp eq %struct.kiss_fft_cpx* %15, null
  br i1 %tobool35, label %if.end41, label %delete.notnull39

delete.notnull39:                                 ; preds = %if.end34
  %16 = bitcast %struct.kiss_fft_cpx* %15 to i8*
  tail call void @_ZdaPv(i8* %16) #25
  br label %if.end41

if.end41:                                         ; preds = %delete.notnull39, %if.end34
  %m_pfOverlap = getelementptr inbounds %class.CAmbisonicProcessor, %class.CAmbisonicProcessor* %this, i64 0, i32 6
  %17 = load float**, float*** %m_pfOverlap, align 8, !tbaa !103
  %tobool42 = icmp eq float** %17, null
  br i1 %tobool42, label %if.end68, label %for.cond45.preheader

for.cond45.preheader:                             ; preds = %if.end41
  %18 = getelementptr inbounds %class.CAmbisonicProcessor, %class.CAmbisonicProcessor* %this, i64 0, i32 0, i32 4
  %19 = load i32, i32* %18, align 8, !tbaa !53
  %cmp4687 = icmp eq i32 %19, 0
  br i1 %cmp4687, label %delete.notnull66, label %for.body48

for.cond.cleanup47:                               ; preds = %for.inc61
  %isnull65 = icmp eq float** %.pr85, null
  br i1 %isnull65, label %if.end68, label %delete.notnull66

for.body48:                                       ; preds = %for.inc61, %for.cond45.preheader
  %20 = phi i32 [ %23, %for.inc61 ], [ %19, %for.cond45.preheader ]
  %.pr8592 = phi float** [ %.pr85, %for.inc61 ], [ %17, %for.cond45.preheader ]
  %indvars.iv = phi i64 [ %indvars.iv.next, %for.inc61 ], [ 0, %for.cond45.preheader ]
  %arrayidx51 = getelementptr inbounds float*, float** %.pr8592, i64 %indvars.iv
  %21 = load float*, float** %arrayidx51, align 8, !tbaa !43
  %tobool52 = icmp eq float* %21, null
  br i1 %tobool52, label %for.inc61, label %delete.notnull58

delete.notnull58:                                 ; preds = %for.body48
  %22 = bitcast float* %21 to i8*
  tail call void @_ZdaPv(i8* %22) #25
  %.pr85.pre = load float**, float*** %m_pfOverlap, align 8, !tbaa !103
  %.pre = load i32, i32* %18, align 8, !tbaa !53
  br label %for.inc61

for.inc61:                                        ; preds = %delete.notnull58, %for.body48
  %23 = phi i32 [ %20, %for.body48 ], [ %.pre, %delete.notnull58 ]
  %.pr85 = phi float** [ %.pr8592, %for.body48 ], [ %.pr85.pre, %delete.notnull58 ]
  %indvars.iv.next = add nuw nsw i64 %indvars.iv, 1
  %24 = zext i32 %23 to i64
  %cmp46 = icmp ult i64 %indvars.iv.next, %24
  br i1 %cmp46, label %for.body48, label %for.cond.cleanup47

delete.notnull66:                                 ; preds = %for.cond.cleanup47, %for.cond45.preheader
  %.lcssa96 = phi float** [ %.pr85, %for.cond.cleanup47 ], [ %17, %for.cond45.preheader ]
  %25 = bitcast float** %.lcssa96 to i8*
  tail call void @_ZdaPv(i8* %25) #25
  br label %if.end68

if.end68:                                         ; preds = %delete.notnull66, %for.cond.cleanup47, %if.end41
  ret void
}

; Function Attrs: nounwind
declare void @free(i8* nocapture) #1

; Function Attrs: nounwind uwtable
define void @_ZN19CAmbisonicProcessorD0Ev(%class.CAmbisonicProcessor* %this) unnamed_addr #3 align 2 {
entry:
  tail call void @_ZN19CAmbisonicProcessorD2Ev(%class.CAmbisonicProcessor* %this) #24
  %0 = bitcast %class.CAmbisonicProcessor* %this to i8*
  tail call void @_ZdlPv(i8* %0) #25
  ret void
}

; Function Attrs: nounwind uwtable
define zeroext i1 @_ZN19CAmbisonicProcessor9ConfigureEjbjj(%class.CAmbisonicProcessor* %this, i32 %nOrder, i1 zeroext %b3D, i32 %nBlockSize, i32 %nMisc) local_unnamed_addr #3 align 2 {
entry:
  %pfPsychIR = alloca %"class.std::vector.7", align 8
  %ref.tmp = alloca float*, align 8
  %frombool.i = zext i1 %b3D to i8
  %0 = getelementptr inbounds %class.CAmbisonicProcessor, %class.CAmbisonicProcessor* %this, i64 0, i32 0, i32 1
  store i32 %nOrder, i32* %0, align 8, !tbaa !49
  %1 = getelementptr inbounds %class.CAmbisonicProcessor, %class.CAmbisonicProcessor* %this, i64 0, i32 0, i32 2
  store i8 %frombool.i, i8* %1, align 4, !tbaa !52
  %call.i = tail call i32 @_Z17OrderToComponentsjb(i32 %nOrder, i1 zeroext %b3D) #24
  %2 = getelementptr inbounds %class.CAmbisonicProcessor, %class.CAmbisonicProcessor* %this, i64 0, i32 0, i32 4
  store i32 %call.i, i32* %2, align 8, !tbaa !53
  %m_pfTempSample = getelementptr inbounds %class.CAmbisonicProcessor, %class.CAmbisonicProcessor* %this, i64 0, i32 2
  %3 = load float*, float** %m_pfTempSample, align 8, !tbaa !95
  %tobool4 = icmp eq float* %3, null
  br i1 %tobool4, label %if.end7, label %delete.notnull

delete.notnull:                                   ; preds = %entry
  %4 = bitcast float* %3 to i8*
  tail call void @_ZdaPv(i8* %4) #25
  %.pre = load i32, i32* %2, align 8, !tbaa !53
  br label %if.end7

if.end7:                                          ; preds = %delete.notnull, %entry
  %5 = phi i32 [ %call.i, %entry ], [ %.pre, %delete.notnull ]
  %conv = zext i32 %5 to i64
  %6 = shl nuw nsw i64 %conv, 2
  %call8 = tail call i8* @_Znam(i64 %6) #25
  %7 = bitcast float** %m_pfTempSample to i8**
  store i8* %call8, i8** %7, align 8, !tbaa !95
  tail call void @llvm.memset.p0i8.i64(i8* nonnull align 4 %call8, i8 0, i64 %6, i1 false)
  %8 = getelementptr inbounds %class.CAmbisonicProcessor, %class.CAmbisonicProcessor* %this, i64 0, i32 0, i32 5
  store i8 1, i8* %8, align 4, !tbaa !54
  %m_nBlockSize = getelementptr inbounds %class.CAmbisonicProcessor, %class.CAmbisonicProcessor* %this, i64 0, i32 8
  store i32 %nBlockSize, i32* %m_nBlockSize, align 4, !tbaa !104
  %m_nTaps = getelementptr inbounds %class.CAmbisonicProcessor, %class.CAmbisonicProcessor* %this, i64 0, i32 9
  store i32 101, i32* %m_nTaps, align 8, !tbaa !105
  %cmp = icmp ult i32 %nBlockSize, 101
  %sub = add i32 %nBlockSize, -1
  %cond = select i1 %cmp, i32 %sub, i32 100
  %m_nOverlapLength = getelementptr inbounds %class.CAmbisonicProcessor, %class.CAmbisonicProcessor* %this, i64 0, i32 10
  store i32 %cond, i32* %m_nOverlapLength, align 4, !tbaa !106
  %add = add i32 %nBlockSize, 101
  %add22 = add i32 %add, %cond
  br label %while.cond

while.cond:                                       ; preds = %while.cond, %if.end7
  %storemerge = phi i32 [ 1, %if.end7 ], [ %shl, %while.cond ]
  %cmp23 = icmp ult i32 %storemerge, %add22
  %shl = shl i32 %storemerge, 1
  br i1 %cmp23, label %while.cond, label %while.end

while.end:                                        ; preds = %while.cond
  %m_nFFTSize = getelementptr inbounds %class.CAmbisonicProcessor, %class.CAmbisonicProcessor* %this, i64 0, i32 7
  store i32 %storemerge, i32* %m_nFFTSize, align 8, !tbaa !107
  %div = lshr i32 %storemerge, 1
  %add26 = add nuw i32 %div, 1
  %m_nFFTBins = getelementptr inbounds %class.CAmbisonicProcessor, %class.CAmbisonicProcessor* %this, i64 0, i32 11
  store i32 %add26, i32* %m_nFFTBins, align 8, !tbaa !108
  %conv28 = uitofp i32 %storemerge to float
  %div29 = fdiv fast float 1.000000e+00, %conv28
  %m_fFFTScaler = getelementptr inbounds %class.CAmbisonicProcessor, %class.CAmbisonicProcessor* %this, i64 0, i32 12
  store float %div29, float* %m_fFFTScaler, align 4, !tbaa !109
  %9 = shl nuw nsw i64 %conv, 3
  %call32 = tail call i8* @_Znam(i64 %9) #25
  %m_pfOverlap = getelementptr inbounds %class.CAmbisonicProcessor, %class.CAmbisonicProcessor* %this, i64 0, i32 6
  %10 = bitcast float*** %m_pfOverlap to i8**
  store i8* %call32, i8** %10, align 8, !tbaa !103
  %cmp34274 = icmp eq i32 %5, 0
  br i1 %cmp34274, label %for.cond.cleanup, label %for.body.lr.ph

for.body.lr.ph:                                   ; preds = %while.end
  %conv36 = zext i32 %cond to i64
  %11 = shl nuw nsw i64 %conv36, 2
  br label %for.body

for.cond.cleanup:                                 ; preds = %for.body, %while.end
  %conv40 = zext i32 %storemerge to i64
  %12 = shl nuw nsw i64 %conv40, 2
  %call41 = tail call i8* @_Znam(i64 %12) #25
  %m_pfScratchBufferA = getelementptr inbounds %class.CAmbisonicProcessor, %class.CAmbisonicProcessor* %this, i64 0, i32 5
  %13 = bitcast float** %m_pfScratchBufferA to i8**
  store i8* %call41, i8** %13, align 8, !tbaa !98
  %14 = load i32, i32* %0, align 8, !tbaa !49
  %add42 = add i32 %14, 1
  %conv43 = zext i32 %add42 to i64
  %15 = shl nuw nsw i64 %conv43, 3
  %call44 = tail call i8* @_Znam(i64 %15) #25
  %m_ppcpPsychFilters = getelementptr inbounds %class.CAmbisonicProcessor, %class.CAmbisonicProcessor* %this, i64 0, i32 13
  %16 = bitcast %struct.kiss_fft_cpx*** %m_ppcpPsychFilters to i8**
  store i8* %call44, i8** %16, align 8, !tbaa !101
  %conv61 = zext i32 %add26 to i64
  %17 = shl nuw nsw i64 %conv61, 3
  %call62271 = tail call i8* @_Znam(i64 %17) #25
  %18 = bitcast i8* %call44 to i8**
  store i8* %call62271, i8** %18, align 8, !tbaa !43
  %cmp48290 = icmp eq i32 %14, 0
  %call62291 = tail call i8* @_Znam(i64 %17) #25
  br i1 %cmp48290, label %for.cond.cleanup49, label %for.body50.for.body50_crit_edge

for.body:                                         ; preds = %for.body, %for.body.lr.ph
  %indvars.iv280 = phi i64 [ 0, %for.body.lr.ph ], [ %indvars.iv.next281, %for.body ]
  %call37 = tail call i8* @_Znam(i64 %11) #25
  %19 = load float**, float*** %m_pfOverlap, align 8, !tbaa !103
  %arrayidx = getelementptr inbounds float*, float** %19, i64 %indvars.iv280
  %20 = bitcast float** %arrayidx to i8**
  store i8* %call37, i8** %20, align 8, !tbaa !43
  %indvars.iv.next281 = add nuw nsw i64 %indvars.iv280, 1
  %exitcond = icmp eq i64 %indvars.iv.next281, %conv
  br i1 %exitcond, label %for.cond.cleanup, label %for.body

for.cond.cleanup49:                               ; preds = %for.body50.for.body50_crit_edge, %for.cond.cleanup
  %call62.lcssa = phi i8* [ %call62291, %for.cond.cleanup ], [ %call62, %for.body50.for.body50_crit_edge ]
  %m_pcpScratch = getelementptr inbounds %class.CAmbisonicProcessor, %class.CAmbisonicProcessor* %this, i64 0, i32 14
  %21 = bitcast %struct.kiss_fft_cpx** %m_pcpScratch to i8**
  store i8* %call62.lcssa, i8** %21, align 8, !tbaa !102
  %22 = bitcast %"class.std::vector.7"* %pfPsychIR to i8*
  call void @llvm.lifetime.start.p0i8(i64 24, i8* nonnull %22) #24
  call void @llvm.memset.p0i8.i64(i8* nonnull align 8 %22, i8 0, i64 24, i1 false) #24
  %23 = bitcast float** %ref.tmp to i8*
  %24 = bitcast float** %ref.tmp to i8**
  %_M_finish.i264 = getelementptr inbounds %"class.std::vector.7", %"class.std::vector.7"* %pfPsychIR, i64 0, i32 0, i32 0, i32 0, i32 1
  %_M_end_of_storage.i = getelementptr inbounds %"class.std::vector.7", %"class.std::vector.7"* %pfPsychIR, i64 0, i32 0, i32 0, i32 0, i32 2
  br label %for.body68

for.body50.for.body50_crit_edge:                  ; preds = %for.body50.for.body50_crit_edge, %for.cond.cleanup
  %call62293 = phi i8* [ %call62, %for.body50.for.body50_crit_edge ], [ %call62291, %for.cond.cleanup ]
  %inc58292 = phi i32 [ %inc58, %for.body50.for.body50_crit_edge ], [ 1, %for.cond.cleanup ]
  %.pre282 = load %struct.kiss_fft_cpx**, %struct.kiss_fft_cpx*** %m_ppcpPsychFilters, align 8, !tbaa !101
  %idxprom55 = zext i32 %inc58292 to i64
  %arrayidx56 = getelementptr inbounds %struct.kiss_fft_cpx*, %struct.kiss_fft_cpx** %.pre282, i64 %idxprom55
  %25 = bitcast %struct.kiss_fft_cpx** %arrayidx56 to i8**
  store i8* %call62293, i8** %25, align 8, !tbaa !43
  %inc58 = add i32 %inc58292, 1
  %cmp48 = icmp ugt i32 %inc58, %14
  %call62 = tail call i8* @_Znam(i64 %17) #25
  br i1 %cmp48, label %for.cond.cleanup49, label %for.body50.for.body50_crit_edge

for.cond.cleanup67:                               ; preds = %_ZNSt6vectorISt10unique_ptrIA_fSt14default_deleteIS1_EESaIS4_EE12emplace_backIJPfEEEvDpOT_.exit
  %26 = bitcast %class.CAmbisonicProcessor* %this to void (%class.CAmbisonicProcessor*)***
  %vtable = load void (%class.CAmbisonicProcessor*)**, void (%class.CAmbisonicProcessor*)*** %26, align 8, !tbaa !40
  %vfn = getelementptr inbounds void (%class.CAmbisonicProcessor*)*, void (%class.CAmbisonicProcessor*)** %vtable, i64 3
  %27 = load void (%class.CAmbisonicProcessor*)*, void (%class.CAmbisonicProcessor*)** %vfn, align 8
  call void %27(%class.CAmbisonicProcessor* nonnull %this) #24
  %28 = load i32, i32* %m_nFFTSize, align 8, !tbaa !107
  %call76 = call %struct.kiss_fftr_state* @kiss_fftr_alloc(i32 %28, i32 0, i8* null, i64* null) #24
  %m_pFFT_psych_cfg = getelementptr inbounds %class.CAmbisonicProcessor, %class.CAmbisonicProcessor* %this, i64 0, i32 3
  store %struct.kiss_fftr_state* %call76, %struct.kiss_fftr_state** %m_pFFT_psych_cfg, align 8, !tbaa !99
  %29 = load i32, i32* %m_nFFTSize, align 8, !tbaa !107
  %call78 = call %struct.kiss_fftr_state* @kiss_fftr_alloc(i32 %29, i32 1, i8* null, i64* null) #24
  %m_pIFFT_psych_cfg = getelementptr inbounds %class.CAmbisonicProcessor, %class.CAmbisonicProcessor* %this, i64 0, i32 4
  store %struct.kiss_fftr_state* %call78, %struct.kiss_fftr_state** %m_pIFFT_psych_cfg, align 8, !tbaa !100
  %30 = load i32, i32* %0, align 8, !tbaa !49
  %_M_start.i251 = getelementptr inbounds %"class.std::vector.7", %"class.std::vector.7"* %pfPsychIR, i64 0, i32 0, i32 0, i32 0, i32 0
  br label %for.cond85.preheader

for.body68:                                       ; preds = %_ZNSt6vectorISt10unique_ptrIA_fSt14default_deleteIS1_EESaIS4_EE12emplace_backIJPfEEEvDpOT_.exit.for.body68_crit_edge, %for.cond.cleanup49
  %31 = phi i32 [ %14, %for.cond.cleanup49 ], [ %39, %_ZNSt6vectorISt10unique_ptrIA_fSt14default_deleteIS1_EESaIS4_EE12emplace_backIJPfEEEvDpOT_.exit.for.body68_crit_edge ]
  %32 = phi %"class.std::unique_ptr.12"* [ null, %for.cond.cleanup49 ], [ %.pre285, %_ZNSt6vectorISt10unique_ptrIA_fSt14default_deleteIS1_EESaIS4_EE12emplace_backIJPfEEEvDpOT_.exit.for.body68_crit_edge ]
  %33 = phi %"class.std::unique_ptr.12"* [ null, %for.cond.cleanup49 ], [ %.pre284, %_ZNSt6vectorISt10unique_ptrIA_fSt14default_deleteIS1_EESaIS4_EE12emplace_backIJPfEEEvDpOT_.exit.for.body68_crit_edge ]
  %34 = phi i32 [ 101, %for.cond.cleanup49 ], [ %.pre283, %_ZNSt6vectorISt10unique_ptrIA_fSt14default_deleteIS1_EESaIS4_EE12emplace_backIJPfEEEvDpOT_.exit.for.body68_crit_edge ]
  %i63.0270 = phi i32 [ 0, %for.cond.cleanup49 ], [ %inc73, %_ZNSt6vectorISt10unique_ptrIA_fSt14default_deleteIS1_EESaIS4_EE12emplace_backIJPfEEEvDpOT_.exit.for.body68_crit_edge ]
  call void @llvm.lifetime.start.p0i8(i64 8, i8* nonnull %23) #24
  %conv70 = zext i32 %34 to i64
  %35 = shl nuw nsw i64 %conv70, 2
  %call71 = call i8* @_Znam(i64 %35) #25
  store i8* %call71, i8** %24, align 8, !tbaa !43
  %cmp.i = icmp eq %"class.std::unique_ptr.12"* %33, %32
  br i1 %cmp.i, label %if.else.i, label %if.then.i

if.then.i:                                        ; preds = %for.body68
  %36 = ptrtoint i8* %call71 to i64
  %37 = bitcast %"class.std::unique_ptr.12"* %33 to i64*
  store i64 %36, i64* %37, align 8, !tbaa !43
  %38 = load %"class.std::unique_ptr.12"*, %"class.std::unique_ptr.12"** %_M_finish.i264, align 8, !tbaa !110
  %incdec.ptr.i = getelementptr inbounds %"class.std::unique_ptr.12", %"class.std::unique_ptr.12"* %38, i64 1
  store %"class.std::unique_ptr.12"* %incdec.ptr.i, %"class.std::unique_ptr.12"** %_M_finish.i264, align 8, !tbaa !110
  br label %_ZNSt6vectorISt10unique_ptrIA_fSt14default_deleteIS1_EESaIS4_EE12emplace_backIJPfEEEvDpOT_.exit

if.else.i:                                        ; preds = %for.body68
  call void @_ZNSt6vectorISt10unique_ptrIA_fSt14default_deleteIS1_EESaIS4_EE17_M_realloc_insertIJPfEEEvN9__gnu_cxx17__normal_iteratorIPS4_S6_EEDpOT_(%"class.std::vector.7"* nonnull %pfPsychIR, %"class.std::unique_ptr.12"* %32, float** nonnull dereferenceable(8) %ref.tmp) #24
  %.pre286 = load i32, i32* %0, align 8, !tbaa !49
  br label %_ZNSt6vectorISt10unique_ptrIA_fSt14default_deleteIS1_EESaIS4_EE12emplace_backIJPfEEEvDpOT_.exit

_ZNSt6vectorISt10unique_ptrIA_fSt14default_deleteIS1_EESaIS4_EE12emplace_backIJPfEEEvDpOT_.exit: ; preds = %if.else.i, %if.then.i
  %39 = phi i32 [ %31, %if.then.i ], [ %.pre286, %if.else.i ]
  call void @llvm.lifetime.end.p0i8(i64 8, i8* nonnull %23) #24
  %inc73 = add i32 %i63.0270, 1
  %cmp66 = icmp ugt i32 %inc73, %39
  br i1 %cmp66, label %for.cond.cleanup67, label %_ZNSt6vectorISt10unique_ptrIA_fSt14default_deleteIS1_EESaIS4_EE12emplace_backIJPfEEEvDpOT_.exit.for.body68_crit_edge

_ZNSt6vectorISt10unique_ptrIA_fSt14default_deleteIS1_EESaIS4_EE12emplace_backIJPfEEEvDpOT_.exit.for.body68_crit_edge: ; preds = %_ZNSt6vectorISt10unique_ptrIA_fSt14default_deleteIS1_EESaIS4_EE12emplace_backIJPfEEEvDpOT_.exit
  %.pre283 = load i32, i32* %m_nTaps, align 8, !tbaa !105
  %.pre284 = load %"class.std::unique_ptr.12"*, %"class.std::unique_ptr.12"** %_M_finish.i264, align 8, !tbaa !110
  %.pre285 = load %"class.std::unique_ptr.12"*, %"class.std::unique_ptr.12"** %_M_end_of_storage.i, align 8, !tbaa !112
  br label %for.body68

for.cond85.preheader:                             ; preds = %for.cond.cleanup88, %for.cond.cleanup67
  %40 = phi i32 [ %30, %for.cond.cleanup67 ], [ %65, %for.cond.cleanup88 ]
  %i_m.0268 = phi i32 [ 0, %for.cond.cleanup67 ], [ %inc198, %for.cond.cleanup88 ]
  %41 = load i32, i32* %m_nTaps, align 8, !tbaa !105
  %cmp87265 = icmp eq i32 %41, 0
  br i1 %cmp87265, label %for.cond85.preheader.for.cond.cleanup88_crit_edge, label %for.body89.lr.ph

for.cond85.preheader.for.cond.cleanup88_crit_edge: ; preds = %for.cond85.preheader
  %.pre287 = zext i32 %i_m.0268 to i64
  br label %for.cond.cleanup88

for.body89.lr.ph:                                 ; preds = %for.cond85.preheader
  %42 = load i8, i8* %1, align 4, !tbaa !52, !range !55
  %tobool90 = icmp eq i8 %42, 0
  %idxprom119 = zext i32 %i_m.0268 to i64
  %43 = load %"class.std::unique_ptr.12"*, %"class.std::unique_ptr.12"** %_M_start.i251, align 8
  %_M_head_impl.i.i.i.i.i.i.i249 = getelementptr inbounds %"class.std::unique_ptr.12", %"class.std::unique_ptr.12"* %43, i64 %idxprom119, i32 0, i32 0, i32 0, i32 0, i32 0
  %44 = zext i32 %41 to i64
  br i1 %tobool90, label %for.body89.us, label %for.body89

for.body89.us:                                    ; preds = %for.inc173.us, %for.body89.lr.ph
  %indvars.iv278 = phi i64 [ %indvars.iv.next279, %for.inc173.us ], [ 0, %for.body89.lr.ph ]
  switch i32 %40, label %for.inc173.us [
    i32 1, label %sw.bb132.us
    i32 2, label %sw.bb145.us
    i32 3, label %sw.bb158.us
  ]

sw.bb158.us:                                      ; preds = %for.body89.us
  %arrayidx162.us = getelementptr inbounds [4 x [101 x i16]], [4 x [101 x i16]]* @_ZL14third_order_2D, i64 0, i64 %idxprom119, i64 %indvars.iv278
  br label %for.inc173.us.sink.split

sw.bb145.us:                                      ; preds = %for.body89.us
  %arrayidx149.us = getelementptr inbounds [3 x [101 x i16]], [3 x [101 x i16]]* @_ZL15second_order_2D, i64 0, i64 %idxprom119, i64 %indvars.iv278
  br label %for.inc173.us.sink.split

sw.bb132.us:                                      ; preds = %for.body89.us
  %arrayidx136.us = getelementptr inbounds [2 x [101 x i16]], [2 x [101 x i16]]* @_ZL14first_order_2D, i64 0, i64 %idxprom119, i64 %indvars.iv278
  br label %for.inc173.us.sink.split

for.inc173.us.sink.split:                         ; preds = %sw.bb132.us, %sw.bb145.us, %sw.bb158.us
  %arrayidx136.us.sink = phi i16* [ %arrayidx136.us, %sw.bb132.us ], [ %arrayidx149.us, %sw.bb145.us ], [ %arrayidx162.us, %sw.bb158.us ]
  %45 = load i16, i16* %arrayidx136.us.sink, align 2, !tbaa !45
  %conv138.us = sitofp i16 %45 to float
  %div140.us = fmul fast float %conv138.us, 0x3F10002000000000
  %46 = load float*, float** %_M_head_impl.i.i.i.i.i.i.i249, align 8, !tbaa !43
  %arrayidx.i246.us = getelementptr inbounds float, float* %46, i64 %indvars.iv278
  store float %div140.us, float* %arrayidx.i246.us, align 4, !tbaa !47
  br label %for.inc173.us

for.inc173.us:                                    ; preds = %for.inc173.us.sink.split, %for.body89.us
  %indvars.iv.next279 = add nuw nsw i64 %indvars.iv278, 1
  %cmp87.us = icmp ult i64 %indvars.iv.next279, %44
  br i1 %cmp87.us, label %for.body89.us, label %for.cond.cleanup88

for.cond.cleanup82:                               ; preds = %for.cond.cleanup88
  %47 = load %"class.std::unique_ptr.12"*, %"class.std::unique_ptr.12"** %_M_start.i251, align 8, !tbaa !113
  %48 = load %"class.std::unique_ptr.12"*, %"class.std::unique_ptr.12"** %_M_finish.i264, align 8, !tbaa !110
  %cmp3.i.i.i.i = icmp eq %"class.std::unique_ptr.12"* %47, %48
  br i1 %cmp3.i.i.i.i, label %_ZSt8_DestroyIPSt10unique_ptrIA_fSt14default_deleteIS1_EES4_EvT_S6_RSaIT0_E.exit.i, label %for.body.i.i.i.i

for.body.i.i.i.i:                                 ; preds = %_ZSt8_DestroyISt10unique_ptrIA_fSt14default_deleteIS1_EEEvPT_.exit.i.i.i.i, %for.cond.cleanup82
  %__first.addr.04.i.i.i.i = phi %"class.std::unique_ptr.12"* [ %incdec.ptr.i.i.i.i, %_ZSt8_DestroyISt10unique_ptrIA_fSt14default_deleteIS1_EEEvPT_.exit.i.i.i.i ], [ %47, %for.cond.cleanup82 ]
  %_M_head_impl.i.i.i.i.i.i.i.i.i.i.i = getelementptr inbounds %"class.std::unique_ptr.12", %"class.std::unique_ptr.12"* %__first.addr.04.i.i.i.i, i64 0, i32 0, i32 0, i32 0, i32 0, i32 0
  %49 = load float*, float** %_M_head_impl.i.i.i.i.i.i.i.i.i.i.i, align 8, !tbaa !43
  %cmp.i.i.i.i.i.i = icmp eq float* %49, null
  br i1 %cmp.i.i.i.i.i.i, label %_ZSt8_DestroyISt10unique_ptrIA_fSt14default_deleteIS1_EEEvPT_.exit.i.i.i.i, label %_ZNKSt14default_deleteIA_fEclIfEENSt9enable_ifIXsr14is_convertibleIPA_T_PS0_EE5valueEvE4typeEPS4_.exit.i.i.i.i.i.i

_ZNKSt14default_deleteIA_fEclIfEENSt9enable_ifIXsr14is_convertibleIPA_T_PS0_EE5valueEvE4typeEPS4_.exit.i.i.i.i.i.i: ; preds = %for.body.i.i.i.i
  %50 = bitcast float* %49 to i8*
  call void @_ZdaPv(i8* %50) #25
  br label %_ZSt8_DestroyISt10unique_ptrIA_fSt14default_deleteIS1_EEEvPT_.exit.i.i.i.i

_ZSt8_DestroyISt10unique_ptrIA_fSt14default_deleteIS1_EEEvPT_.exit.i.i.i.i: ; preds = %_ZNKSt14default_deleteIA_fEclIfEENSt9enable_ifIXsr14is_convertibleIPA_T_PS0_EE5valueEvE4typeEPS4_.exit.i.i.i.i.i.i, %for.body.i.i.i.i
  store float* null, float** %_M_head_impl.i.i.i.i.i.i.i.i.i.i.i, align 8, !tbaa !43
  %incdec.ptr.i.i.i.i = getelementptr inbounds %"class.std::unique_ptr.12", %"class.std::unique_ptr.12"* %__first.addr.04.i.i.i.i, i64 1
  %cmp.i.i.i.i = icmp eq %"class.std::unique_ptr.12"* %incdec.ptr.i.i.i.i, %48
  br i1 %cmp.i.i.i.i, label %_ZSt8_DestroyIPSt10unique_ptrIA_fSt14default_deleteIS1_EES4_EvT_S6_RSaIT0_E.exit.loopexit.i, label %for.body.i.i.i.i

_ZSt8_DestroyIPSt10unique_ptrIA_fSt14default_deleteIS1_EES4_EvT_S6_RSaIT0_E.exit.loopexit.i: ; preds = %_ZSt8_DestroyISt10unique_ptrIA_fSt14default_deleteIS1_EEEvPT_.exit.i.i.i.i
  %.pre.i = load %"class.std::unique_ptr.12"*, %"class.std::unique_ptr.12"** %_M_start.i251, align 8, !tbaa !113
  br label %_ZSt8_DestroyIPSt10unique_ptrIA_fSt14default_deleteIS1_EES4_EvT_S6_RSaIT0_E.exit.i

_ZSt8_DestroyIPSt10unique_ptrIA_fSt14default_deleteIS1_EES4_EvT_S6_RSaIT0_E.exit.i: ; preds = %_ZSt8_DestroyIPSt10unique_ptrIA_fSt14default_deleteIS1_EES4_EvT_S6_RSaIT0_E.exit.loopexit.i, %for.cond.cleanup82
  %51 = phi %"class.std::unique_ptr.12"* [ %.pre.i, %_ZSt8_DestroyIPSt10unique_ptrIA_fSt14default_deleteIS1_EES4_EvT_S6_RSaIT0_E.exit.loopexit.i ], [ %47, %for.cond.cleanup82 ]
  %tobool.i.i.i = icmp eq %"class.std::unique_ptr.12"* %51, null
  br i1 %tobool.i.i.i, label %_ZNSt6vectorISt10unique_ptrIA_fSt14default_deleteIS1_EESaIS4_EED2Ev.exit, label %if.then.i.i.i

if.then.i.i.i:                                    ; preds = %_ZSt8_DestroyIPSt10unique_ptrIA_fSt14default_deleteIS1_EES4_EvT_S6_RSaIT0_E.exit.i
  %52 = bitcast %"class.std::unique_ptr.12"* %51 to i8*
  call void @_ZdlPv(i8* nonnull %52) #24
  br label %_ZNSt6vectorISt10unique_ptrIA_fSt14default_deleteIS1_EESaIS4_EED2Ev.exit

_ZNSt6vectorISt10unique_ptrIA_fSt14default_deleteIS1_EESaIS4_EED2Ev.exit: ; preds = %if.then.i.i.i, %_ZSt8_DestroyIPSt10unique_ptrIA_fSt14default_deleteIS1_EES4_EvT_S6_RSaIT0_E.exit.i
  call void @llvm.lifetime.end.p0i8(i64 24, i8* nonnull %22) #24
  ret i1 true

for.cond.cleanup88:                               ; preds = %for.inc173, %for.inc173.us, %for.cond85.preheader.for.cond.cleanup88_crit_edge
  %conv177.pre-phi = phi i64 [ %.pre287, %for.cond85.preheader.for.cond.cleanup88_crit_edge ], [ %idxprom119, %for.inc173.us ], [ %idxprom119, %for.inc173 ]
  %53 = load i8*, i8** %13, align 8, !tbaa !98
  %54 = load %"class.std::unique_ptr.12"*, %"class.std::unique_ptr.12"** %_M_start.i251, align 8, !tbaa !113
  %_M_head_impl.i.i.i.i.i.i = getelementptr inbounds %"class.std::unique_ptr.12", %"class.std::unique_ptr.12"* %54, i64 %conv177.pre-phi, i32 0, i32 0, i32 0, i32 0, i32 0
  %55 = bitcast float** %_M_head_impl.i.i.i.i.i.i to i8**
  %56 = load i8*, i8** %55, align 8, !tbaa !43
  %conv181 = zext i32 %41 to i64
  %mul182 = shl nuw nsw i64 %conv181, 2
  call void @llvm.memcpy.p0i8.p0i8.i64(i8* align 4 %53, i8* align 4 %56, i64 %mul182, i1 false)
  %57 = load float*, float** %m_pfScratchBufferA, align 8, !tbaa !98
  %58 = load i32, i32* %m_nTaps, align 8, !tbaa !105
  %idxprom185 = zext i32 %58 to i64
  %arrayidx186 = getelementptr inbounds float, float* %57, i64 %idxprom185
  %59 = bitcast float* %arrayidx186 to i8*
  %60 = load i32, i32* %m_nFFTSize, align 8, !tbaa !107
  %sub189 = sub i32 %60, %58
  %conv190 = zext i32 %sub189 to i64
  %mul191 = shl nuw nsw i64 %conv190, 2
  call void @llvm.memset.p0i8.i64(i8* align 4 %59, i8 0, i64 %mul191, i1 false)
  %61 = load %struct.kiss_fftr_state*, %struct.kiss_fftr_state** %m_pFFT_psych_cfg, align 8, !tbaa !99
  %62 = load float*, float** %m_pfScratchBufferA, align 8, !tbaa !98
  %63 = load %struct.kiss_fft_cpx**, %struct.kiss_fft_cpx*** %m_ppcpPsychFilters, align 8, !tbaa !101
  %arrayidx196 = getelementptr inbounds %struct.kiss_fft_cpx*, %struct.kiss_fft_cpx** %63, i64 %conv177.pre-phi
  %64 = load %struct.kiss_fft_cpx*, %struct.kiss_fft_cpx** %arrayidx196, align 8, !tbaa !43
  call void @kiss_fftr(%struct.kiss_fftr_state* %61, float* %62, %struct.kiss_fft_cpx* %64) #24
  %inc198 = add i32 %i_m.0268, 1
  %65 = load i32, i32* %0, align 8, !tbaa !49
  %cmp81 = icmp ugt i32 %inc198, %65
  br i1 %cmp81, label %for.cond.cleanup82, label %for.cond85.preheader

for.body89:                                       ; preds = %for.inc173, %for.body89.lr.ph
  %indvars.iv = phi i64 [ %indvars.iv.next, %for.inc173 ], [ 0, %for.body89.lr.ph ]
  switch i32 %40, label %for.inc173 [
    i32 1, label %sw.bb
    i32 2, label %sw.bb105
    i32 3, label %sw.bb118
  ]

sw.bb:                                            ; preds = %for.body89
  %arrayidx96 = getelementptr inbounds [2 x [101 x i16]], [2 x [101 x i16]]* @_ZL14first_order_3D, i64 0, i64 %idxprom119, i64 %indvars.iv
  br label %for.inc173.sink.split

sw.bb105:                                         ; preds = %for.body89
  %arrayidx109 = getelementptr inbounds [3 x [101 x i16]], [3 x [101 x i16]]* @_ZL15second_order_3D, i64 0, i64 %idxprom119, i64 %indvars.iv
  br label %for.inc173.sink.split

sw.bb118:                                         ; preds = %for.body89
  %arrayidx122 = getelementptr inbounds [4 x [101 x i16]], [4 x [101 x i16]]* bitcast (<{ [101 x i16], [101 x i16], <{ [89 x i16], [12 x i16] }>, [101 x i16] }>* @_ZL14third_order_3D to [4 x [101 x i16]]*), i64 0, i64 %idxprom119, i64 %indvars.iv
  br label %for.inc173.sink.split

for.inc173.sink.split:                            ; preds = %sw.bb118, %sw.bb105, %sw.bb
  %arrayidx122.sink = phi i16* [ %arrayidx122, %sw.bb118 ], [ %arrayidx109, %sw.bb105 ], [ %arrayidx96, %sw.bb ]
  %66 = load i16, i16* %arrayidx122.sink, align 2, !tbaa !45
  %conv124 = sitofp i16 %66 to float
  %div126 = fmul fast float %conv124, 0x3F10002000000000
  %67 = load float*, float** %_M_head_impl.i.i.i.i.i.i.i249, align 8, !tbaa !43
  %arrayidx.i250 = getelementptr inbounds float, float* %67, i64 %indvars.iv
  store float %div126, float* %arrayidx.i250, align 4, !tbaa !47
  br label %for.inc173

for.inc173:                                       ; preds = %for.inc173.sink.split, %for.body89
  %indvars.iv.next = add nuw nsw i64 %indvars.iv, 1
  %cmp87 = icmp ult i64 %indvars.iv.next, %44
  br i1 %cmp87, label %for.body89, label %for.cond.cleanup88
}

declare %struct.kiss_fftr_state* @kiss_fftr_alloc(i32, i32, i8*, i64*) local_unnamed_addr #0

declare void @kiss_fftr(%struct.kiss_fftr_state*, float*, %struct.kiss_fft_cpx*) local_unnamed_addr #0

; Function Attrs: nounwind uwtable
define void @_ZN19CAmbisonicProcessor5ResetEv(%class.CAmbisonicProcessor* nocapture readonly %this) unnamed_addr #3 align 2 {
entry:
  %0 = getelementptr inbounds %class.CAmbisonicProcessor, %class.CAmbisonicProcessor* %this, i64 0, i32 0, i32 4
  %1 = load i32, i32* %0, align 8, !tbaa !53
  %cmp5 = icmp eq i32 %1, 0
  br i1 %cmp5, label %for.cond.cleanup, label %for.body.lr.ph

for.body.lr.ph:                                   ; preds = %entry
  %m_pfOverlap = getelementptr inbounds %class.CAmbisonicProcessor, %class.CAmbisonicProcessor* %this, i64 0, i32 6
  %m_nOverlapLength = getelementptr inbounds %class.CAmbisonicProcessor, %class.CAmbisonicProcessor* %this, i64 0, i32 10
  br label %for.body

for.cond.cleanup:                                 ; preds = %for.body, %entry
  ret void

for.body:                                         ; preds = %for.body, %for.body.lr.ph
  %indvars.iv = phi i64 [ 0, %for.body.lr.ph ], [ %indvars.iv.next, %for.body ]
  %2 = load float**, float*** %m_pfOverlap, align 8, !tbaa !103
  %arrayidx = getelementptr inbounds float*, float** %2, i64 %indvars.iv
  %3 = bitcast float** %arrayidx to i8**
  %4 = load i8*, i8** %3, align 8, !tbaa !43
  %5 = load i32, i32* %m_nOverlapLength, align 4, !tbaa !106
  %conv = zext i32 %5 to i64
  %mul = shl nuw nsw i64 %conv, 2
  tail call void @llvm.memset.p0i8.i64(i8* align 4 %4, i8 0, i64 %mul, i1 false)
  %indvars.iv.next = add nuw nsw i64 %indvars.iv, 1
  %6 = load i32, i32* %0, align 8, !tbaa !53
  %7 = zext i32 %6 to i64
  %cmp = icmp ult i64 %indvars.iv.next, %7
  br i1 %cmp, label %for.body, label %for.cond.cleanup
}

; Function Attrs: nofree nounwind uwtable
define void @_ZN19CAmbisonicProcessor7RefreshEv(%class.CAmbisonicProcessor* %this) unnamed_addr #8 align 2 {
entry:
  %fAlpha = getelementptr inbounds %class.CAmbisonicProcessor, %class.CAmbisonicProcessor* %this, i64 0, i32 1, i32 3
  %0 = load float, float* %fAlpha, align 4, !tbaa !114
  %1 = tail call fast float @llvm.cos.f32(float %0)
  %m_fCosAlpha = getelementptr inbounds %class.CAmbisonicProcessor, %class.CAmbisonicProcessor* %this, i64 0, i32 15
  store float %1, float* %m_fCosAlpha, align 8, !tbaa !115
  %2 = tail call fast float @llvm.sin.f32(float %0)
  %m_fSinAlpha = getelementptr inbounds %class.CAmbisonicProcessor, %class.CAmbisonicProcessor* %this, i64 0, i32 16
  store float %2, float* %m_fSinAlpha, align 4, !tbaa !116
  %fBeta = getelementptr inbounds %class.CAmbisonicProcessor, %class.CAmbisonicProcessor* %this, i64 0, i32 1, i32 4
  %3 = load float, float* %fBeta, align 8, !tbaa !117
  %4 = tail call fast float @llvm.cos.f32(float %3)
  %m_fCosBeta = getelementptr inbounds %class.CAmbisonicProcessor, %class.CAmbisonicProcessor* %this, i64 0, i32 17
  store float %4, float* %m_fCosBeta, align 8, !tbaa !118
  %5 = tail call fast float @llvm.sin.f32(float %3)
  %m_fSinBeta = getelementptr inbounds %class.CAmbisonicProcessor, %class.CAmbisonicProcessor* %this, i64 0, i32 18
  store float %5, float* %m_fSinBeta, align 4, !tbaa !119
  %fGamma = getelementptr inbounds %class.CAmbisonicProcessor, %class.CAmbisonicProcessor* %this, i64 0, i32 1, i32 5
  %6 = load float, float* %fGamma, align 4, !tbaa !120
  %7 = tail call fast float @llvm.cos.f32(float %6)
  %m_fCosGamma = getelementptr inbounds %class.CAmbisonicProcessor, %class.CAmbisonicProcessor* %this, i64 0, i32 19
  store float %7, float* %m_fCosGamma, align 8, !tbaa !121
  %8 = tail call fast float @llvm.sin.f32(float %6)
  %m_fSinGamma = getelementptr inbounds %class.CAmbisonicProcessor, %class.CAmbisonicProcessor* %this, i64 0, i32 20
  store float %8, float* %m_fSinGamma, align 4, !tbaa !122
  %mul = fmul fast float %0, 2.000000e+00
  %9 = tail call fast float @llvm.cos.f32(float %mul)
  %m_fCos2Alpha = getelementptr inbounds %class.CAmbisonicProcessor, %class.CAmbisonicProcessor* %this, i64 0, i32 21
  store float %9, float* %m_fCos2Alpha, align 8, !tbaa !123
  %10 = tail call fast float @llvm.sin.f32(float %mul)
  %m_fSin2Alpha = getelementptr inbounds %class.CAmbisonicProcessor, %class.CAmbisonicProcessor* %this, i64 0, i32 22
  store float %10, float* %m_fSin2Alpha, align 4, !tbaa !124
  %mul17 = fmul fast float %3, 2.000000e+00
  %11 = tail call fast float @llvm.cos.f32(float %mul17)
  %m_fCos2Beta = getelementptr inbounds %class.CAmbisonicProcessor, %class.CAmbisonicProcessor* %this, i64 0, i32 23
  store float %11, float* %m_fCos2Beta, align 8, !tbaa !125
  %12 = tail call fast float @llvm.sin.f32(float %mul17)
  %m_fSin2Beta = getelementptr inbounds %class.CAmbisonicProcessor, %class.CAmbisonicProcessor* %this, i64 0, i32 24
  store float %12, float* %m_fSin2Beta, align 4, !tbaa !126
  %mul23 = fmul fast float %6, 2.000000e+00
  %13 = tail call fast float @llvm.cos.f32(float %mul23)
  %m_fCos2Gamma = getelementptr inbounds %class.CAmbisonicProcessor, %class.CAmbisonicProcessor* %this, i64 0, i32 25
  store float %13, float* %m_fCos2Gamma, align 8, !tbaa !127
  %14 = tail call fast float @llvm.sin.f32(float %mul23)
  %m_fSin2Gamma = getelementptr inbounds %class.CAmbisonicProcessor, %class.CAmbisonicProcessor* %this, i64 0, i32 26
  store float %14, float* %m_fSin2Gamma, align 4, !tbaa !128
  %mul29 = fmul fast float %0, 3.000000e+00
  %15 = tail call fast float @llvm.cos.f32(float %mul29)
  %m_fCos3Alpha = getelementptr inbounds %class.CAmbisonicProcessor, %class.CAmbisonicProcessor* %this, i64 0, i32 27
  store float %15, float* %m_fCos3Alpha, align 8, !tbaa !129
  %16 = tail call fast float @llvm.sin.f32(float %mul29)
  %m_fSin3Alpha = getelementptr inbounds %class.CAmbisonicProcessor, %class.CAmbisonicProcessor* %this, i64 0, i32 28
  store float %16, float* %m_fSin3Alpha, align 4, !tbaa !130
  %mul35 = fmul fast float %3, 3.000000e+00
  %17 = tail call fast float @llvm.cos.f32(float %mul35)
  %m_fCos3Beta = getelementptr inbounds %class.CAmbisonicProcessor, %class.CAmbisonicProcessor* %this, i64 0, i32 29
  store float %17, float* %m_fCos3Beta, align 8, !tbaa !131
  %18 = tail call fast float @llvm.sin.f32(float %mul35)
  %m_fSin3Beta = getelementptr inbounds %class.CAmbisonicProcessor, %class.CAmbisonicProcessor* %this, i64 0, i32 30
  store float %18, float* %m_fSin3Beta, align 4, !tbaa !132
  %mul41 = fmul fast float %6, 3.000000e+00
  %19 = tail call fast float @llvm.cos.f32(float %mul41)
  %m_fCos3Gamma = getelementptr inbounds %class.CAmbisonicProcessor, %class.CAmbisonicProcessor* %this, i64 0, i32 31
  store float %19, float* %m_fCos3Gamma, align 8, !tbaa !133
  %20 = tail call fast float @llvm.sin.f32(float %mul41)
  %m_fSin3Gamma = getelementptr inbounds %class.CAmbisonicProcessor, %class.CAmbisonicProcessor* %this, i64 0, i32 32
  store float %20, float* %m_fSin3Gamma, align 4, !tbaa !134
  ret void
}

; Function Attrs: nounwind uwtable
define void @_ZN19CAmbisonicProcessor14SetOrientationE11Orientation(%class.CAmbisonicProcessor* nocapture %this, %class.Orientation* nocapture readonly byval(%class.Orientation) align 8 %orientation) local_unnamed_addr #3 align 2 {
entry:
  %m_orientation = getelementptr inbounds %class.CAmbisonicProcessor, %class.CAmbisonicProcessor* %this, i64 0, i32 1
  %0 = bitcast %class.Orientation* %m_orientation to i8*
  %1 = bitcast %class.Orientation* %orientation to i8*
  call void @llvm.memcpy.p0i8.p0i8.i64(i8* nonnull align 8 %0, i8* nonnull align 8 %1, i64 24, i1 false), !tbaa.struct !135
  ret void
}

; Function Attrs: nounwind uwtable
define void @_ZN19CAmbisonicProcessor14GetOrientationEv(%class.Orientation* noalias nocapture sret %agg.result, %class.CAmbisonicProcessor* nocapture readonly %this) local_unnamed_addr #3 align 2 {
entry:
  %m_orientation = getelementptr inbounds %class.CAmbisonicProcessor, %class.CAmbisonicProcessor* %this, i64 0, i32 1
  %0 = bitcast %class.Orientation* %agg.result to i8*
  %1 = bitcast %class.Orientation* %m_orientation to i8*
  tail call void @llvm.memcpy.p0i8.p0i8.i64(i8* align 4 %0, i8* nonnull align 8 %1, i64 24, i1 false), !tbaa.struct !135
  ret void
}

; Function Attrs: nounwind uwtable
define void @_ZN19CAmbisonicProcessor7ProcessEP8CBFormatj(%class.CAmbisonicProcessor* readonly %this, %class.CBFormat* readonly %pBFSrcDst, i32 %nSamples) local_unnamed_addr #3 align 2 {
entry:
  %0 = getelementptr inbounds %class.CAmbisonicProcessor, %class.CAmbisonicProcessor* %this, i64 0, i32 0, i32 5
  %1 = load i8, i8* %0, align 4, !tbaa !54, !range !55
  %tobool = icmp eq i8 %1, 0
  br i1 %tobool, label %if.end, label %if.then

if.then:                                          ; preds = %entry
  tail call void @_ZN19CAmbisonicProcessor16ShelfFilterOrderEP8CBFormatj(%class.CAmbisonicProcessor* nonnull %this, %class.CBFormat* %pBFSrcDst, i32 undef)
  br label %if.end

if.end:                                           ; preds = %if.then, %entry
  %2 = getelementptr inbounds %class.CAmbisonicProcessor, %class.CAmbisonicProcessor* %this, i64 0, i32 0, i32 1
  %3 = load i32, i32* %2, align 8, !tbaa !49
  %cmp = icmp eq i32 %3, 0
  br i1 %cmp, label %if.end11, label %if.end3

if.end3:                                          ; preds = %if.end
  tail call void @_ZN19CAmbisonicProcessor16ProcessOrder1_3DEP8CBFormatj(%class.CAmbisonicProcessor* nonnull %this, %class.CBFormat* %pBFSrcDst, i32 %nSamples)
  %.pr = load i32, i32* %2, align 8, !tbaa !49
  %cmp5 = icmp ugt i32 %.pr, 1
  br i1 %cmp5, label %if.end7, label %if.end11

if.end7:                                          ; preds = %if.end3
  tail call void @_ZN19CAmbisonicProcessor16ProcessOrder2_3DEP8CBFormatj(%class.CAmbisonicProcessor* nonnull %this, %class.CBFormat* %pBFSrcDst, i32 %nSamples)
  %.pr19 = load i32, i32* %2, align 8, !tbaa !49
  %cmp9 = icmp ugt i32 %.pr19, 2
  br i1 %cmp9, label %if.then10, label %if.end11

if.then10:                                        ; preds = %if.end7
  tail call void @_ZN19CAmbisonicProcessor16ProcessOrder3_3DEP8CBFormatj(%class.CAmbisonicProcessor* nonnull %this, %class.CBFormat* %pBFSrcDst, i32 %nSamples)
  br label %if.end11

if.end11:                                         ; preds = %if.then10, %if.end7, %if.end3, %if.end
  ret void
}

; Function Attrs: nounwind uwtable
define void @_ZN19CAmbisonicProcessor16ShelfFilterOrderEP8CBFormatj(%class.CAmbisonicProcessor* nocapture readonly %this, %class.CBFormat* nocapture readonly %pBFSrcDst, i32 %nSamples) local_unnamed_addr #3 align 2 {
entry:
  %m_pfScratchBufferA = getelementptr inbounds %class.CAmbisonicProcessor, %class.CAmbisonicProcessor* %this, i64 0, i32 5
  %0 = bitcast float** %m_pfScratchBufferA to i8**
  %1 = load i8*, i8** %0, align 8, !tbaa !98
  %m_nFFTSize = getelementptr inbounds %class.CAmbisonicProcessor, %class.CAmbisonicProcessor* %this, i64 0, i32 7
  %2 = load i32, i32* %m_nFFTSize, align 8, !tbaa !107
  %conv = zext i32 %2 to i64
  %mul = shl nuw nsw i64 %conv, 2
  tail call void @llvm.memset.p0i8.i64(i8* align 4 %1, i8 0, i64 %mul, i1 false)
  %3 = getelementptr inbounds %class.CAmbisonicProcessor, %class.CAmbisonicProcessor* %this, i64 0, i32 0, i32 4
  %4 = load i32, i32* %3, align 8, !tbaa !53
  %cmp167 = icmp eq i32 %4, 0
  br i1 %cmp167, label %for.cond.cleanup, label %for.body.lr.ph

for.body.lr.ph:                                   ; preds = %entry
  %_M_head_impl.i.i.i.i.i.i.i156 = getelementptr inbounds %class.CBFormat, %class.CBFormat* %pBFSrcDst, i64 0, i32 4, i32 0, i32 0, i32 0, i32 0, i32 0
  %m_nBlockSize = getelementptr inbounds %class.CAmbisonicProcessor, %class.CAmbisonicProcessor* %this, i64 0, i32 8
  %m_pFFT_psych_cfg = getelementptr inbounds %class.CAmbisonicProcessor, %class.CAmbisonicProcessor* %this, i64 0, i32 3
  %m_pcpScratch = getelementptr inbounds %class.CAmbisonicProcessor, %class.CAmbisonicProcessor* %this, i64 0, i32 14
  %m_nFFTBins = getelementptr inbounds %class.CAmbisonicProcessor, %class.CAmbisonicProcessor* %this, i64 0, i32 11
  %m_ppcpPsychFilters = getelementptr inbounds %class.CAmbisonicProcessor, %class.CAmbisonicProcessor* %this, i64 0, i32 13
  %m_pIFFT_psych_cfg = getelementptr inbounds %class.CAmbisonicProcessor, %class.CAmbisonicProcessor* %this, i64 0, i32 4
  %m_fFFTScaler = getelementptr inbounds %class.CAmbisonicProcessor, %class.CAmbisonicProcessor* %this, i64 0, i32 12
  %m_nOverlapLength = getelementptr inbounds %class.CAmbisonicProcessor, %class.CAmbisonicProcessor* %this, i64 0, i32 10
  %m_pfOverlap = getelementptr inbounds %class.CAmbisonicProcessor, %class.CAmbisonicProcessor* %this, i64 0, i32 6
  br label %for.body

for.cond.cleanup:                                 ; preds = %for.cond.cleanup91, %entry
  ret void

for.body:                                         ; preds = %for.cond.cleanup91, %for.body.lr.ph
  %indvars.iv173 = phi i64 [ 0, %for.body.lr.ph ], [ %indvars.iv.next174, %for.cond.cleanup91 ]
  %5 = load i8*, i8** %0, align 8, !tbaa !98
  %6 = load float**, float*** %_M_head_impl.i.i.i.i.i.i.i156, align 8, !tbaa !43
  %arrayidx.i157 = getelementptr inbounds float*, float** %6, i64 %indvars.iv173
  %7 = bitcast float** %arrayidx.i157 to i8**
  %8 = load i8*, i8** %7, align 8, !tbaa !43
  %9 = load i32, i32* %m_nBlockSize, align 4, !tbaa !104
  %conv6 = zext i32 %9 to i64
  %mul7 = shl nuw nsw i64 %conv6, 2
  tail call void @llvm.memcpy.p0i8.p0i8.i64(i8* align 4 %5, i8* align 4 %8, i64 %mul7, i1 false)
  %10 = load float*, float** %m_pfScratchBufferA, align 8, !tbaa !98
  %11 = load i32, i32* %m_nBlockSize, align 4, !tbaa !104
  %idxprom = zext i32 %11 to i64
  %arrayidx = getelementptr inbounds float, float* %10, i64 %idxprom
  %12 = bitcast float* %arrayidx to i8*
  %13 = load i32, i32* %m_nFFTSize, align 8, !tbaa !107
  %sub = sub i32 %13, %11
  %conv12 = zext i32 %sub to i64
  %mul13 = shl nuw nsw i64 %conv12, 2
  tail call void @llvm.memset.p0i8.i64(i8* align 4 %12, i8 0, i64 %mul13, i1 false)
  %14 = load %struct.kiss_fftr_state*, %struct.kiss_fftr_state** %m_pFFT_psych_cfg, align 8, !tbaa !99
