; ModuleID = 'src/main.cpp'
source_filename = "src/main.cpp"
target datalayout = "e-m:e-i64:64-f80:128-n8:16:32:64-S128"
target triple = "x86_64-unknown-linux-gnu"

%"class.std::ios_base::Init" = type { i8 }
%struct.PolarPoint = type { float, float, float }
%"class.std::basic_ostream" = type { i32 (...)**, %"class.std::basic_ios" }
%"class.std::basic_ios" = type { %"class.std::ios_base", %"class.std::basic_ostream"*, i8, i8, %"class.std::basic_streambuf"*, %"class.std::ctype"*, %"class.std::num_put"*, %"class.std::num_get"* }
%"class.std::ios_base" = type { i32 (...)**, i64, i64, i32, i32, i32, %"struct.std::ios_base::_Callback_list"*, %"struct.std::ios_base::_Words", [8 x %"struct.std::ios_base::_Words"], i32, %"struct.std::ios_base::_Words"*, %"class.std::locale" }
%"struct.std::ios_base::_Callback_list" = type { %"struct.std::ios_base::_Callback_list"*, void (i32, %"class.std::ios_base"*, i32)*, i32, i32 }
%"struct.std::ios_base::_Words" = type { i8*, i64 }
%"class.std::locale" = type { %"class.std::locale::_Impl"* }
%"class.std::locale::_Impl" = type { i32, %"class.std::locale::facet"**, i64, %"class.std::locale::facet"**, i8** }
%"class.std::locale::facet" = type <{ i32 (...)**, i32, [4 x i8] }>
%"class.std::basic_streambuf" = type { i32 (...)**, i8*, i8*, i8*, i8*, i8*, i8*, %"class.std::locale" }
%"class.std::ctype" = type <{ %"class.std::locale::facet.base", [4 x i8], %struct.__locale_struct*, i8, [7 x i8], i32*, i32*, i16*, i8, [256 x i8], [256 x i8], i8, [6 x i8] }>
%"class.std::locale::facet.base" = type <{ i32 (...)**, i32 }>
%struct.__locale_struct = type { [13 x %struct.__locale_data*], i16*, i32*, i32*, [13 x i8*] }
%struct.__locale_data = type opaque
%"class.std::num_put" = type { %"class.std::locale::facet.base", [4 x i8] }
%"class.std::num_get" = type { %"class.std::locale::facet.base", [4 x i8] }
%class.MIT_HRTF = type { %class.HRTF }
%class.HRTF = type { i32 (...)**, i32, i32 }
%class.CAmbisonicSource = type { %class.CAmbisonicBase.base, %"class.std::vector.0", %"class.std::vector.0", %struct.PolarPoint, float }
%class.CAmbisonicBase.base = type <{ i32 (...)**, i32, i8, [3 x i8], i32, i8 }>
%"class.std::vector.0" = type { %"struct.std::_Vector_base.1" }
%"struct.std::_Vector_base.1" = type { %"struct.std::_Vector_base<float, std::allocator<float> >::_Vector_impl" }
%"struct.std::_Vector_base<float, std::allocator<float> >::_Vector_impl" = type { float*, float*, float* }
%class.CBFormat = type { %class.CAmbisonicBase.base, i32, i32, %"class.std::vector.0", %"class.std::unique_ptr" }
%"class.std::unique_ptr" = type { %"class.std::tuple" }
%"class.std::tuple" = type { %"struct.std::_Tuple_impl" }
%"struct.std::_Tuple_impl" = type { %"struct.std::_Head_base.6" }
%"struct.std::_Head_base.6" = type { float** }
%class.CAmbisonicEncoder = type { %class.CAmbisonicSource }
%class.CAmbisonicEncoderDist = type { %class.CAmbisonicEncoder, i32, float, i32, i32, float*, i32, i32, i32, float, float, float }
%class.CAmbisonicProcessor = type { %class.CAmbisonicBase.base, %class.Orientation, float*, %struct.kiss_fftr_state*, %struct.kiss_fftr_state*, float*, float**, i32, i32, i32, i32, i32, float, %struct.kiss_fft_cpx**, %struct.kiss_fft_cpx*, float, float, float, float, float, float, float, float, float, float, float, float, float, float, float, float, float, float }
%class.Orientation = type { float, float, float, float, float, float }
%struct.kiss_fftr_state = type opaque
%struct.kiss_fft_cpx = type { float, float }
%class.CAmbisonicSpeaker = type { %class.CAmbisonicSource }
%class.CAmbisonicDecoder = type { %class.CAmbisonicBase.base, i32, i32, %class.CAmbisonicSpeaker* }
%class.CAmbisonicZoomer = type { %class.CAmbisonicBase.base, %class.CAmbisonicDecoder, %"class.std::unique_ptr.12", %"class.std::unique_ptr.12", %"class.std::unique_ptr.12", float, float, float, float }
%"class.std::unique_ptr.12" = type { %"class.std::tuple.13" }
%"class.std::tuple.13" = type { %"struct.std::_Tuple_impl.14" }
%"struct.std::_Tuple_impl.14" = type { %"struct.std::_Head_base.19" }
%"struct.std::_Head_base.19" = type { float* }
%class.CAmbisonicBinauralizer = type { %class.CAmbisonicBase.base, %class.CAmbisonicDecoder, i32, i32, i32, i32, float, i32, %"class.std::unique_ptr.20", %"class.std::unique_ptr.20", [2 x %"class.std::vector.26"], %"class.std::unique_ptr.31", %"class.std::vector.0", %"class.std::vector.0", %"class.std::vector.0", [2 x %"class.std::vector.0"] }
%"class.std::unique_ptr.20" = type { %"class.std::tuple.21" }
%"class.std::tuple.21" = type { %"struct.std::_Tuple_impl.22" }
%"struct.std::_Tuple_impl.22" = type { %"struct.std::_Tuple_impl.23", %"struct.std::_Head_base.25" }
%"struct.std::_Tuple_impl.23" = type { %"struct.std::_Head_base.24" }
%"struct.std::_Head_base.24" = type { void (i8*)* }
%"struct.std::_Head_base.25" = type { %struct.kiss_fftr_state* }
%"class.std::vector.26" = type { %"struct.std::_Vector_base.27" }
%"struct.std::_Vector_base.27" = type { %"struct.std::_Vector_base<std::unique_ptr<kiss_fft_cpx [], std::default_delete<kiss_fft_cpx []> >, std::allocator<std::unique_ptr<kiss_fft_cpx [], std::default_delete<kiss_fft_cpx []> > > >::_Vector_impl" }
%"struct.std::_Vector_base<std::unique_ptr<kiss_fft_cpx [], std::default_delete<kiss_fft_cpx []> >, std::allocator<std::unique_ptr<kiss_fft_cpx [], std::default_delete<kiss_fft_cpx []> > > >::_Vector_impl" = type { %"class.std::unique_ptr.31"*, %"class.std::unique_ptr.31"*, %"class.std::unique_ptr.31"* }
%"class.std::unique_ptr.31" = type { %"class.std::tuple.32" }
%"class.std::tuple.32" = type { %"struct.std::_Tuple_impl.33" }
%"struct.std::_Tuple_impl.33" = type { %"struct.std::_Head_base.38" }
%"struct.std::_Head_base.38" = type { %struct.kiss_fft_cpx* }
%"class.ILLIXR_AUDIO::Sound" = type { %"class.std::basic_fstream"*, [1024 x float], %class.CBFormat*, %class.CAmbisonicEncoderDist*, %struct.PolarPoint, float }
%"class.std::basic_fstream" = type { %"class.std::basic_iostream.base", %"class.std::basic_filebuf", %"class.std::basic_ios" }
%"class.std::basic_iostream.base" = type { %"class.std::basic_istream.base", %"class.std::basic_ostream.base" }
%"class.std::basic_istream.base" = type { i32 (...)**, i64 }
%"class.std::basic_ostream.base" = type { i32 (...)** }
%"class.std::basic_filebuf" = type { %"class.std::basic_streambuf", %union.pthread_mutex_t, %"class.std::__basic_file", i32, %struct.__mbstate_t, %struct.__mbstate_t, %struct.__mbstate_t, i8*, i64, i8, i8, i8, i8, i8*, i8*, i8, %"class.std::codecvt"*, i8*, i64, i8*, i8* }
%union.pthread_mutex_t = type { %"struct.(anonymous union)::__pthread_mutex_s" }
%"struct.(anonymous union)::__pthread_mutex_s" = type { i32, i32, i32, i32, i32, i16, i16, %struct.__pthread_internal_list }
%struct.__pthread_internal_list = type { %struct.__pthread_internal_list*, %struct.__pthread_internal_list* }
%"class.std::__basic_file" = type <{ %struct._IO_FILE*, i8, [7 x i8] }>
%struct._IO_FILE = type { i32, i8*, i8*, i8*, i8*, i8*, i8*, i8*, i8*, i8*, i8*, i8*, %struct._IO_marker*, %struct._IO_FILE*, i32, i32, i64, i16, i8, [1 x i8], i8*, i64, i8*, i8*, i8*, i8*, i64, i32, [20 x i8] }
%struct._IO_marker = type { %struct._IO_marker*, %struct._IO_FILE*, i32 }
%struct.__mbstate_t = type { i32, %union.anon.42 }
%union.anon.42 = type { i32 }
%"class.std::codecvt" = type { %"class.std::__codecvt_abstract_base.base", %struct.__locale_struct* }
%"class.std::__codecvt_abstract_base.base" = type { %"class.std::locale::facet.base" }
%"class.std::__cxx11::basic_string" = type { %"struct.std::__cxx11::basic_string<char, std::char_traits<char>, std::allocator<char> >::_Alloc_hider", i64, %union.anon }
%"struct.std::__cxx11::basic_string<char, std::char_traits<char>, std::allocator<char> >::_Alloc_hider" = type { i8* }
%union.anon = type { i64, [8 x i8] }
%"class.ILLIXR_AUDIO::ABAudio" = type { i32, %"class.std::vector.43"*, %"class.std::basic_ofstream"*, %class.CAmbisonicBinauralizer*, %class.CAmbisonicBinauralizer*, %class.CAmbisonicProcessor*, %class.CAmbisonicZoomer* }
%"class.std::vector.43" = type { %"struct.std::_Vector_base.44" }
%"struct.std::_Vector_base.44" = type { %"struct.std::_Vector_base<ILLIXR_AUDIO::Sound *, std::allocator<ILLIXR_AUDIO::Sound *> >::_Vector_impl" }
%"struct.std::_Vector_base<ILLIXR_AUDIO::Sound *, std::allocator<ILLIXR_AUDIO::Sound *> >::_Vector_impl" = type { %"class.ILLIXR_AUDIO::Sound"**, %"class.ILLIXR_AUDIO::Sound"**, %"class.ILLIXR_AUDIO::Sound"** }
%"class.std::basic_ofstream" = type { %"class.std::basic_ostream.base", %"class.std::basic_filebuf", %"class.std::basic_ios" }
%"class.std::vector" = type { %"struct.std::_Vector_base" }
%"struct.std::_Vector_base" = type { %"struct.std::_Vector_base<short, std::allocator<short> >::_Vector_impl" }
%"struct.std::_Vector_base<short, std::allocator<short> >::_Vector_impl" = type { i16*, i16*, i16* }
%"class.std::allocator" = type { i8 }
%"class.__gnu_cxx::new_allocator" = type { i8 }
%class.CAmbisonicBase = type <{ i32 (...)**, i32, i8, [3 x i8], i32, i8, [3 x i8] }>
%"class.__gnu_cxx::__normal_iterator.48" = type { float* }
%"class.__gnu_cxx::__normal_iterator" = type { float* }
%"struct.std::default_delete" = type { i8 }
%"class.std::vector.7" = type { %"struct.std::_Vector_base.8" }
%"struct.std::_Vector_base.8" = type { %"struct.std::_Vector_base<std::unique_ptr<float [], std::default_delete<float []> >, std::allocator<std::unique_ptr<float [], std::default_delete<float []> > > >::_Vector_impl" }
%"struct.std::_Vector_base<std::unique_ptr<float [], std::default_delete<float []> >, std::allocator<std::unique_ptr<float [], std::default_delete<float []> > > >::_Vector_impl" = type { %"class.std::unique_ptr.12"*, %"class.std::unique_ptr.12"*, %"class.std::unique_ptr.12"* }
%"class.std::allocator.9" = type { i8 }
%"struct.std::default_delete.17" = type { i8 }
%"struct.std::default_delete.36" = type { i8 }
%"class.std::basic_istream" = type { i32 (...)**, i64, %"class.std::basic_ios" }
%"class.std::allocator.39" = type { i8 }
%"struct.ILLIXR_AUDIO::WAVHeader_t" = type { i32, i32, i32, i32, i32, i16, i16, i32, i32, i16, i16, i32, i32 }
%"class.std::allocator.45" = type { i8 }
%struct.RootArg = type <{ %class.CAmbisonicProcessor*, i64, %class.CBFormat*, i64, %class.CAmbisonicZoomer*, i64, %class.CAmbisonicBinauralizer*, i64, float*, i64, i32, float**, i64, float**, i64, float**, i64, %class.CAmbisonicBinauralizer*, i64, float*, i64 }>
%"struct.std::_Tuple_impl.5" = type { i8 }
%"struct.std::_Head_base" = type { i8 }
%"class.std::allocator.2" = type { i8 }
%"class.__gnu_cxx::new_allocator.3" = type { i8 }
%"struct.std::_Tuple_impl.15" = type { i8 }
%"struct.std::_Head_base.16" = type { i8 }
%"struct.std::_Tuple_impl.34" = type { i8 }
%"struct.std::_Head_base.35" = type { i8 }
%"class.std::allocator.28" = type { i8 }
%"class.__gnu_cxx::new_allocator.29" = type { i8 }
%"class.std::move_iterator" = type { float* }
%"class.__gnu_cxx::new_allocator.10" = type { i8 }
%"class.std::move_iterator.49" = type { %"class.std::unique_ptr.12"* }
%"class.std::move_iterator.50" = type { %"class.std::unique_ptr.31"* }
%"class.__gnu_cxx::new_allocator.46" = type { i8 }
%"class.std::move_iterator.51" = type { %"class.ILLIXR_AUDIO::Sound"** }

$_ZN4HRTFC2Ej = comdat any

$_ZNSaIsEC2Ev = comdat any

$_ZNSt6vectorIsSaIsEEC2EmRKS0_ = comdat any

$_ZNSaIsED2Ev = comdat any

$_ZNSt6vectorIsSaIsEED2Ev = comdat any

$_ZNSt6vectorIsSaIsEE4dataEv = comdat any

$_ZNSt6vectorIsSaIsEEixEm = comdat any

$_ZNSt6vectorIfSaIfEEC2Ev = comdat any

$_ZNSt6vectorIfSaIfEE6resizeEmRKf = comdat any

$_ZNSt6vectorIfSaIfEEixEm = comdat any

$_ZNSt10unique_ptrIA_PfSt14default_deleteIS1_EEC2Ev = comdat any

$_ZNSt6vectorIfSaIfEE6resizeEm = comdat any

$_ZNSt6vectorIfSaIfEE4dataEv = comdat any

$_ZNSt10unique_ptrIA_PfSt14default_deleteIS1_EE5resetEPS0_ = comdat any

$_ZNKSt10unique_ptrIA_PfSt14default_deleteIS1_EEixEm = comdat any

$_ZNKSt6vectorIfSaIfEE4dataEv = comdat any

$_ZN11OrientationC2Efff = comdat any

$_ZNSt6vectorISt10unique_ptrIA_fSt14default_deleteIS1_EESaIS4_EEC2Ev = comdat any

$_ZNSt6vectorISt10unique_ptrIA_fSt14default_deleteIS1_EESaIS4_EE12emplace_backIJPfEEEvDpOT_ = comdat any

$_ZNSt6vectorISt10unique_ptrIA_fSt14default_deleteIS1_EESaIS4_EEixEm = comdat any

$_ZNKSt10unique_ptrIA_fSt14default_deleteIS0_EEixEm = comdat any

$_ZNKSt10unique_ptrIA_fSt14default_deleteIS0_EE3getEv = comdat any

$_ZNSt6vectorISt10unique_ptrIA_fSt14default_deleteIS1_EESaIS4_EED2Ev = comdat any

$_ZNSt10unique_ptrIA_fSt14default_deleteIS0_EEC2Ev = comdat any

$_ZNSt10unique_ptrIA_fSt14default_deleteIS0_EE5resetEPf = comdat any

$_ZSt3minIfERKT_S2_S2_ = comdat any

$_ZSt3absf = comdat any

$_ZSt4fabsf = comdat any

$_ZNSt10unique_ptrI15kiss_fftr_statePFvPvEEC2EPS0_OS3_ = comdat any

$_ZNSt6vectorISt10unique_ptrIA_12kiss_fft_cpxSt14default_deleteIS2_EESaIS5_EEC2Ev = comdat any

$_ZNSt10unique_ptrIA_12kiss_fft_cpxSt14default_deleteIS1_EEC2Ev = comdat any

$_ZN4HRTF10getHRTFLenEv = comdat any

$_ZNKSt10unique_ptrI15kiss_fftr_statePFvPvEE3getEv = comdat any

$_ZNSt6vectorISt10unique_ptrIA_12kiss_fft_cpxSt14default_deleteIS2_EESaIS5_EEixEm = comdat any

$_ZNKSt10unique_ptrIA_12kiss_fft_cpxSt14default_deleteIS1_EE3getEv = comdat any

$_ZNKSt10unique_ptrIA_12kiss_fft_cpxSt14default_deleteIS1_EEixEm = comdat any

$_ZN4HRTF8isLoadedEv = comdat any

$_ZNSt10unique_ptrI15kiss_fftr_statePFvPvEE5resetEPS0_ = comdat any

$_ZNSt6vectorISt10unique_ptrIA_12kiss_fft_cpxSt14default_deleteIS2_EESaIS5_EE6resizeEm = comdat any

$_ZNSt10unique_ptrIA_12kiss_fft_cpxSt14default_deleteIS1_EE5resetEPS0_ = comdat any

$__clang_call_terminate = comdat any

$_ZStorSt13_Ios_OpenmodeS_ = comdat any

$_ZNSt6vectorIPN12ILLIXR_AUDIO5SoundESaIS2_EEC2Ev = comdat any

$_ZNKSt6vectorIPN12ILLIXR_AUDIO5SoundESaIS2_EE4sizeEv = comdat any

$_ZNSt6vectorIPN12ILLIXR_AUDIO5SoundESaIS2_EEixEm = comdat any

$_ZNSt6vectorIPN12ILLIXR_AUDIO5SoundESaIS2_EE9push_backERKS2_ = comdat any

$_ZN8CBFormatD2Ev = comdat any

$_ZSt3maxIfERKT_S2_S2_ = comdat any

$_ZN12ILLIXR_AUDIO11WAVHeader_tC2Ev = comdat any

$_ZN8MIT_HRTFD2Ev = comdat any

$_ZN8MIT_HRTFD0Ev = comdat any

$_ZN14CAmbisonicBaseD2Ev = comdat any

$_ZN14CAmbisonicBaseD0Ev = comdat any

$_ZN16CAmbisonicSourceD2Ev = comdat any

$_ZN16CAmbisonicSourceD0Ev = comdat any

$_ZN8CBFormatD0Ev = comdat any

$_ZN16CAmbisonicZoomerD2Ev = comdat any

$_ZN16CAmbisonicZoomerD0Ev = comdat any

$_ZN22CAmbisonicBinauralizerD2Ev = comdat any

$_ZN22CAmbisonicBinauralizerD0Ev = comdat any

$_ZN4HRTFD2Ev = comdat any

$_ZN4HRTFD0Ev = comdat any

$_ZNSt5tupleIJPPfSt14default_deleteIA_S0_EEEC2Ev = comdat any

$_ZNSt11_Tuple_implILm0EJPPfSt14default_deleteIA_S0_EEEC2Ev = comdat any

$_ZNSt11_Tuple_implILm1EJSt14default_deleteIA_PfEEEC2Ev = comdat any

$_ZNSt10_Head_baseILm0EPPfLb0EEC2Ev = comdat any

$_ZNSt10_Head_baseILm1ESt14default_deleteIA_PfELb1EEC2Ev = comdat any

$_ZNSt6vectorIfSaIfEED2Ev = comdat any

$_ZSt8_DestroyIPffEvT_S1_RSaIT0_E = comdat any

$_ZNSt12_Vector_baseIfSaIfEE19_M_get_Tp_allocatorEv = comdat any

$_ZNSt12_Vector_baseIfSaIfEED2Ev = comdat any

$_ZSt8_DestroyIPfEvT_S1_ = comdat any

$_ZNSt12_Destroy_auxILb1EE9__destroyIPfEEvT_S3_ = comdat any

$_ZNSt12_Vector_baseIfSaIfEE13_M_deallocateEPfm = comdat any

$_ZNSt12_Vector_baseIfSaIfEE12_Vector_implD2Ev = comdat any

$_ZNSt16allocator_traitsISaIfEE10deallocateERS0_Pfm = comdat any

$_ZN9__gnu_cxx13new_allocatorIfE10deallocateEPfm = comdat any

$_ZNSaIfED2Ev = comdat any

$_ZN9__gnu_cxx13new_allocatorIfED2Ev = comdat any

$_ZNSt5tupleIJPfSt14default_deleteIA_fEEEC2Ev = comdat any

$_ZNSt11_Tuple_implILm0EJPfSt14default_deleteIA_fEEEC2Ev = comdat any

$_ZNSt11_Tuple_implILm1EJSt14default_deleteIA_fEEEC2Ev = comdat any

$_ZNSt10_Head_baseILm0EPfLb0EEC2Ev = comdat any

$_ZNSt10_Head_baseILm1ESt14default_deleteIA_fELb1EEC2Ev = comdat any

$_ZNSt5tupleIJP12kiss_fft_cpxSt14default_deleteIA_S0_EEEC2Ev = comdat any

$_ZNSt11_Tuple_implILm0EJP12kiss_fft_cpxSt14default_deleteIA_S0_EEEC2Ev = comdat any

$_ZNSt11_Tuple_implILm1EJSt14default_deleteIA_12kiss_fft_cpxEEEC2Ev = comdat any

$_ZNSt10_Head_baseILm0EP12kiss_fft_cpxLb0EEC2Ev = comdat any

$_ZNSt10_Head_baseILm1ESt14default_deleteIA_12kiss_fft_cpxELb1EEC2Ev = comdat any

$_ZNSt10unique_ptrIA_PfSt14default_deleteIS1_EED2Ev = comdat any

$_ZSt3getILm0EJPPfSt14default_deleteIA_S0_EEERNSt13tuple_elementIXT_ESt5tupleIJDpT0_EEE4typeERS9_ = comdat any

$_ZNSt10unique_ptrIA_PfSt14default_deleteIS1_EE11get_deleterEv = comdat any

$_ZNKSt14default_deleteIA_PfEclEPS0_ = comdat any

$_ZSt12__get_helperILm0EPPfJSt14default_deleteIA_S0_EEERT0_RSt11_Tuple_implIXT_EJS5_DpT1_EE = comdat any

$_ZNSt11_Tuple_implILm0EJPPfSt14default_deleteIA_S0_EEE7_M_headERS5_ = comdat any

$_ZNSt10_Head_baseILm0EPPfLb0EE7_M_headERS2_ = comdat any

$_ZSt3getILm1EJPPfSt14default_deleteIA_S0_EEERNSt13tuple_elementIXT_ESt5tupleIJDpT0_EEE4typeERS9_ = comdat any

$_ZSt12__get_helperILm1ESt14default_deleteIA_PfEJEERT0_RSt11_Tuple_implIXT_EJS4_DpT1_EE = comdat any

$_ZNSt11_Tuple_implILm1EJSt14default_deleteIA_PfEEE7_M_headERS4_ = comdat any

$_ZNSt10_Head_baseILm1ESt14default_deleteIA_PfELb1EE7_M_headERS4_ = comdat any

$_ZNSt10unique_ptrIA_fSt14default_deleteIS0_EED2Ev = comdat any

$_ZSt3getILm0EJPfSt14default_deleteIA_fEEERNSt13tuple_elementIXT_ESt5tupleIJDpT0_EEE4typeERS8_ = comdat any

$_ZNSt10unique_ptrIA_fSt14default_deleteIS0_EE11get_deleterEv = comdat any

$_ZNKSt14default_deleteIA_fEclEPf = comdat any

$_ZSt12__get_helperILm0EPfJSt14default_deleteIA_fEEERT0_RSt11_Tuple_implIXT_EJS4_DpT1_EE = comdat any

$_ZNSt11_Tuple_implILm0EJPfSt14default_deleteIA_fEEE7_M_headERS4_ = comdat any

$_ZNSt10_Head_baseILm0EPfLb0EE7_M_headERS1_ = comdat any

$_ZSt3getILm1EJPfSt14default_deleteIA_fEEERNSt13tuple_elementIXT_ESt5tupleIJDpT0_EEE4typeERS8_ = comdat any

$_ZSt12__get_helperILm1ESt14default_deleteIA_fEJEERT0_RSt11_Tuple_implIXT_EJS3_DpT1_EE = comdat any

$_ZNSt11_Tuple_implILm1EJSt14default_deleteIA_fEEE7_M_headERS3_ = comdat any

$_ZNSt10_Head_baseILm1ESt14default_deleteIA_fELb1EE7_M_headERS3_ = comdat any

$_ZNSt10unique_ptrIA_12kiss_fft_cpxSt14default_deleteIS1_EED2Ev = comdat any

$_ZNSt6vectorISt10unique_ptrIA_12kiss_fft_cpxSt14default_deleteIS2_EESaIS5_EED2Ev = comdat any

$_ZNSt10unique_ptrI15kiss_fftr_statePFvPvEED2Ev = comdat any

$_ZSt3getILm0EJP12kiss_fft_cpxSt14default_deleteIA_S0_EEERNSt13tuple_elementIXT_ESt5tupleIJDpT0_EEE4typeERS9_ = comdat any

$_ZNSt10unique_ptrIA_12kiss_fft_cpxSt14default_deleteIS1_EE11get_deleterEv = comdat any

$_ZNKSt14default_deleteIA_12kiss_fft_cpxEclEPS0_ = comdat any

$_ZSt12__get_helperILm0EP12kiss_fft_cpxJSt14default_deleteIA_S0_EEERT0_RSt11_Tuple_implIXT_EJS5_DpT1_EE = comdat any

$_ZNSt11_Tuple_implILm0EJP12kiss_fft_cpxSt14default_deleteIA_S0_EEE7_M_headERS5_ = comdat any

$_ZNSt10_Head_baseILm0EP12kiss_fft_cpxLb0EE7_M_headERS2_ = comdat any

$_ZSt3getILm1EJP12kiss_fft_cpxSt14default_deleteIA_S0_EEERNSt13tuple_elementIXT_ESt5tupleIJDpT0_EEE4typeERS9_ = comdat any

$_ZSt12__get_helperILm1ESt14default_deleteIA_12kiss_fft_cpxEJEERT0_RSt11_Tuple_implIXT_EJS4_DpT1_EE = comdat any

$_ZNSt11_Tuple_implILm1EJSt14default_deleteIA_12kiss_fft_cpxEEE7_M_headERS4_ = comdat any

$_ZNSt10_Head_baseILm1ESt14default_deleteIA_12kiss_fft_cpxELb1EE7_M_headERS4_ = comdat any

$_ZSt8_DestroyIPSt10unique_ptrIA_12kiss_fft_cpxSt14default_deleteIS2_EES5_EvT_S7_RSaIT0_E = comdat any

$_ZNSt12_Vector_baseISt10unique_ptrIA_12kiss_fft_cpxSt14default_deleteIS2_EESaIS5_EE19_M_get_Tp_allocatorEv = comdat any

$_ZNSt12_Vector_baseISt10unique_ptrIA_12kiss_fft_cpxSt14default_deleteIS2_EESaIS5_EED2Ev = comdat any

$_ZSt8_DestroyIPSt10unique_ptrIA_12kiss_fft_cpxSt14default_deleteIS2_EEEvT_S7_ = comdat any

$_ZNSt12_Destroy_auxILb0EE9__destroyIPSt10unique_ptrIA_12kiss_fft_cpxSt14default_deleteIS4_EEEEvT_S9_ = comdat any

$_ZSt8_DestroyISt10unique_ptrIA_12kiss_fft_cpxSt14default_deleteIS2_EEEvPT_ = comdat any

$_ZSt11__addressofISt10unique_ptrIA_12kiss_fft_cpxSt14default_deleteIS2_EEEPT_RS6_ = comdat any

$_ZNSt12_Vector_baseISt10unique_ptrIA_12kiss_fft_cpxSt14default_deleteIS2_EESaIS5_EE13_M_deallocateEPS5_m = comdat any

$_ZNSt12_Vector_baseISt10unique_ptrIA_12kiss_fft_cpxSt14default_deleteIS2_EESaIS5_EE12_Vector_implD2Ev = comdat any

$_ZNSt16allocator_traitsISaISt10unique_ptrIA_12kiss_fft_cpxSt14default_deleteIS2_EEEE10deallocateERS6_PS5_m = comdat any

$_ZN9__gnu_cxx13new_allocatorISt10unique_ptrIA_12kiss_fft_cpxSt14default_deleteIS3_EEE10deallocateEPS6_m = comdat any

$_ZNSaISt10unique_ptrIA_12kiss_fft_cpxSt14default_deleteIS1_EEED2Ev = comdat any

$_ZN9__gnu_cxx13new_allocatorISt10unique_ptrIA_12kiss_fft_cpxSt14default_deleteIS3_EEED2Ev = comdat any

$_ZSt3getILm0EJP15kiss_fftr_statePFvPvEEERNSt13tuple_elementIXT_ESt5tupleIJDpT0_EEE4typeERS9_ = comdat any

$_ZNSt10unique_ptrI15kiss_fftr_statePFvPvEE11get_deleterEv = comdat any

$_ZSt12__get_helperILm0EP15kiss_fftr_stateJPFvPvEEERT0_RSt11_Tuple_implIXT_EJS5_DpT1_EE = comdat any

$_ZNSt11_Tuple_implILm0EJP15kiss_fftr_statePFvPvEEE7_M_headERS5_ = comdat any

$_ZNSt10_Head_baseILm0EP15kiss_fftr_stateLb0EE7_M_headERS2_ = comdat any

$_ZSt3getILm1EJP15kiss_fftr_statePFvPvEEERNSt13tuple_elementIXT_ESt5tupleIJDpT0_EEE4typeERS9_ = comdat any

$_ZSt12__get_helperILm1EPFvPvEJEERT0_RSt11_Tuple_implIXT_EJS3_DpT1_EE = comdat any

$_ZNSt11_Tuple_implILm1EJPFvPvEEE7_M_headERS3_ = comdat any

$_ZNSt10_Head_baseILm1EPFvPvELb0EE7_M_headERS3_ = comdat any

$_ZN9__gnu_cxx13new_allocatorIsEC2Ev = comdat any

$_ZN9__gnu_cxx13new_allocatorIsED2Ev = comdat any

$_ZNSt12_Vector_baseIsSaIsEEC2EmRKS0_ = comdat any

$_ZNSt6vectorIsSaIsEE21_M_default_initializeEm = comdat any

$_ZNSt12_Vector_baseIsSaIsEED2Ev = comdat any

$_ZNSt12_Vector_baseIsSaIsEE12_Vector_implC2ERKS0_ = comdat any

$_ZNSt12_Vector_baseIsSaIsEE17_M_create_storageEm = comdat any

$_ZNSt12_Vector_baseIsSaIsEE12_Vector_implD2Ev = comdat any

$_ZNSaIsEC2ERKS_ = comdat any

$_ZN9__gnu_cxx13new_allocatorIsEC2ERKS1_ = comdat any

$_ZNSt12_Vector_baseIsSaIsEE11_M_allocateEm = comdat any

$_ZNSt16allocator_traitsISaIsEE8allocateERS0_m = comdat any

$_ZN9__gnu_cxx13new_allocatorIsE8allocateEmPKv = comdat any

$_ZNK9__gnu_cxx13new_allocatorIsE8max_sizeEv = comdat any

$_ZSt27__uninitialized_default_n_aIPsmsET_S1_T0_RSaIT1_E = comdat any

$_ZNSt12_Vector_baseIsSaIsEE19_M_get_Tp_allocatorEv = comdat any

$_ZSt25__uninitialized_default_nIPsmET_S1_T0_ = comdat any

$_ZNSt27__uninitialized_default_n_1ILb1EE18__uninit_default_nIPsmEET_S3_T0_ = comdat any

$_ZSt6fill_nIPsmsET_S1_T0_RKT1_ = comdat any

$_ZSt10__fill_n_aIPsmsEN9__gnu_cxx11__enable_ifIXsr11__is_scalarIT1_EE7__valueET_E6__typeES4_T0_RKS3_ = comdat any

$_ZSt12__niter_baseIPsENSt11_Niter_baseIT_E13iterator_typeES2_ = comdat any

$_ZNSt10_Iter_baseIPsLb0EE7_S_baseES0_ = comdat any

$_ZNSt12_Vector_baseIsSaIsEE13_M_deallocateEPsm = comdat any

$_ZNSt16allocator_traitsISaIsEE10deallocateERS0_Psm = comdat any

$_ZN9__gnu_cxx13new_allocatorIsE10deallocateEPsm = comdat any

$_ZSt8_DestroyIPssEvT_S1_RSaIT0_E = comdat any

$_ZSt8_DestroyIPsEvT_S1_ = comdat any

$_ZNSt12_Destroy_auxILb1EE9__destroyIPsEEvT_S3_ = comdat any

$_ZNKSt6vectorIsSaIsEE11_M_data_ptrIsEEPT_S4_ = comdat any

$_ZNSt12_Vector_baseIfSaIfEEC2Ev = comdat any

$_ZNSt12_Vector_baseIfSaIfEE12_Vector_implC2Ev = comdat any

$_ZNSaIfEC2Ev = comdat any

$_ZN9__gnu_cxx13new_allocatorIfEC2Ev = comdat any

$_ZNKSt6vectorIfSaIfEE4sizeEv = comdat any

$_ZNSt6vectorIfSaIfEE6insertEN9__gnu_cxx17__normal_iteratorIPKfS1_EEmRS4_ = comdat any

$_ZNSt6vectorIfSaIfEE3endEv = comdat any

$_ZN9__gnu_cxx17__normal_iteratorIPKfSt6vectorIfSaIfEEEC2IPfEERKNS0_IT_NS_11__enable_ifIXsr3std10__are_sameIS9_S8_EE7__valueES5_E6__typeEEE = comdat any

$_ZNSt6vectorIfSaIfEE15_M_erase_at_endEPf = comdat any

$_ZN9__gnu_cxxmiIPKfSt6vectorIfSaIfEEEENS_17__normal_iteratorIT_T0_E15difference_typeERKS9_SC_ = comdat any

$_ZNKSt6vectorIfSaIfEE6cbeginEv = comdat any

$_ZNSt6vectorIfSaIfEE14_M_fill_insertEN9__gnu_cxx17__normal_iteratorIPfS1_EEmRKf = comdat any

$_ZNSt6vectorIfSaIfEE5beginEv = comdat any

$_ZNK9__gnu_cxx17__normal_iteratorIPfSt6vectorIfSaIfEEEplEl = comdat any

$_ZNK9__gnu_cxx17__normal_iteratorIPKfSt6vectorIfSaIfEEE4baseEv = comdat any

$_ZN9__gnu_cxx17__normal_iteratorIPKfSt6vectorIfSaIfEEEC2ERKS2_ = comdat any

$_ZN9__gnu_cxxmiIPfSt6vectorIfSaIfEEEENS_17__normal_iteratorIT_T0_E15difference_typeERKS8_SB_ = comdat any

$_ZSt22__uninitialized_move_aIPfS0_SaIfEET0_T_S3_S2_RT1_ = comdat any

$_ZSt13move_backwardIPfS0_ET0_T_S2_S1_ = comdat any

$_ZNK9__gnu_cxx17__normal_iteratorIPfSt6vectorIfSaIfEEE4baseEv = comdat any

$_ZSt4fillIPffEvT_S1_RKT0_ = comdat any

$_ZSt24__uninitialized_fill_n_aIPfmffET_S1_T0_RKT1_RSaIT2_E = comdat any

$_ZNKSt6vectorIfSaIfEE12_M_check_lenEmPKc = comdat any

$_ZNSt12_Vector_baseIfSaIfEE11_M_allocateEm = comdat any

$_ZSt34__uninitialized_move_if_noexcept_aIPfS0_SaIfEET0_T_S3_S2_RT1_ = comdat any

$_ZSt22__uninitialized_copy_aISt13move_iteratorIPfES1_fET0_T_S4_S3_RSaIT1_E = comdat any

$_ZSt18make_move_iteratorIPfESt13move_iteratorIT_ES2_ = comdat any

$_ZSt18uninitialized_copyISt13move_iteratorIPfES1_ET0_T_S4_S3_ = comdat any

$_ZNSt20__uninitialized_copyILb1EE13__uninit_copyISt13move_iteratorIPfES3_EET0_T_S6_S5_ = comdat any

$_ZSt4copyISt13move_iteratorIPfES1_ET0_T_S4_S3_ = comdat any

$_ZSt14__copy_move_a2ILb1EPfS0_ET1_T0_S2_S1_ = comdat any

$_ZSt12__miter_baseISt13move_iteratorIPfEENSt11_Miter_baseIT_E13iterator_typeES4_ = comdat any

$_ZSt13__copy_move_aILb1EPfS0_ET1_T0_S2_S1_ = comdat any

$_ZSt12__niter_baseIPfENSt11_Niter_baseIT_E13iterator_typeES2_ = comdat any

$_ZNSt11__copy_moveILb1ELb1ESt26random_access_iterator_tagE8__copy_mIfEEPT_PKS3_S6_S4_ = comdat any

$_ZNSt10_Iter_baseIPfLb0EE7_S_baseES0_ = comdat any

$_ZNSt10_Iter_baseISt13move_iteratorIPfELb1EE7_S_baseES2_ = comdat any

$_ZNKSt13move_iteratorIPfE4baseEv = comdat any

$_ZNSt13move_iteratorIPfEC2ES0_ = comdat any

$_ZSt23__copy_move_backward_a2ILb1EPfS0_ET1_T0_S2_S1_ = comdat any

$_ZSt12__miter_baseIPfENSt11_Miter_baseIT_E13iterator_typeES2_ = comdat any

$_ZSt22__copy_move_backward_aILb1EPfS0_ET1_T0_S2_S1_ = comdat any

$_ZNSt20__copy_move_backwardILb1ELb1ESt26random_access_iterator_tagE13__copy_move_bIfEEPT_PKS3_S6_S4_ = comdat any

$_ZSt8__fill_aIPffEN9__gnu_cxx11__enable_ifIXsr11__is_scalarIT0_EE7__valueEvE6__typeET_S6_RKS3_ = comdat any

$_ZSt20uninitialized_fill_nIPfmfET_S1_T0_RKT1_ = comdat any

$_ZNSt22__uninitialized_fill_nILb1EE15__uninit_fill_nIPfmfEET_S3_T0_RKT1_ = comdat any

$_ZSt6fill_nIPfmfET_S1_T0_RKT1_ = comdat any

$_ZSt10__fill_n_aIPfmfEN9__gnu_cxx11__enable_ifIXsr11__is_scalarIT1_EE7__valueET_E6__typeES4_T0_RKS3_ = comdat any

$_ZNKSt6vectorIfSaIfEE8max_sizeEv = comdat any

$_ZSt3maxImERKT_S2_S2_ = comdat any

$_ZNSt16allocator_traitsISaIfEE8max_sizeERKS0_ = comdat any

$_ZNKSt12_Vector_baseIfSaIfEE19_M_get_Tp_allocatorEv = comdat any

$_ZNK9__gnu_cxx13new_allocatorIfE8max_sizeEv = comdat any

$_ZNSt16allocator_traitsISaIfEE8allocateERS0_m = comdat any

$_ZN9__gnu_cxx13new_allocatorIfE8allocateEmPKv = comdat any

$_ZSt32__make_move_if_noexcept_iteratorIPfSt13move_iteratorIS0_EET0_T_ = comdat any

$_ZN9__gnu_cxx17__normal_iteratorIPfSt6vectorIfSaIfEEEC2ERKS1_ = comdat any

$_ZNSt6vectorIfSaIfEE17_M_default_appendEm = comdat any

$_ZSt27__uninitialized_default_n_aIPfmfET_S1_T0_RSaIT1_E = comdat any

$_ZSt25__uninitialized_default_nIPfmET_S1_T0_ = comdat any

$_ZNSt27__uninitialized_default_n_1ILb1EE18__uninit_default_nIPfmEET_S3_T0_ = comdat any

$_ZNKSt6vectorIfSaIfEE11_M_data_ptrIfEEPT_S4_ = comdat any

$_ZSt4swapIPPfEvRT_S3_ = comdat any

$_ZSt4moveIRPPfEONSt16remove_referenceIT_E4typeEOS4_ = comdat any

$_ZNKSt10unique_ptrIA_PfSt14default_deleteIS1_EE3getEv = comdat any

$_ZSt3getILm0EJPPfSt14default_deleteIA_S0_EEERKNSt13tuple_elementIXT_ESt5tupleIJDpT0_EEE4typeERKS9_ = comdat any

$_ZSt12__get_helperILm0EPPfJSt14default_deleteIA_S0_EEERKT0_RKSt11_Tuple_implIXT_EJS5_DpT1_EE = comdat any

$_ZNSt11_Tuple_implILm0EJPPfSt14default_deleteIA_S0_EEE7_M_headERKS5_ = comdat any

$_ZNSt10_Head_baseILm0EPPfLb0EE7_M_headERKS2_ = comdat any

$_ZNSt12_Vector_baseISt10unique_ptrIA_fSt14default_deleteIS1_EESaIS4_EEC2Ev = comdat any

$_ZNSt12_Vector_baseISt10unique_ptrIA_fSt14default_deleteIS1_EESaIS4_EE12_Vector_implC2Ev = comdat any

$_ZNSaISt10unique_ptrIA_fSt14default_deleteIS0_EEEC2Ev = comdat any

$_ZN9__gnu_cxx13new_allocatorISt10unique_ptrIA_fSt14default_deleteIS2_EEEC2Ev = comdat any

$_ZSt8_DestroyIPSt10unique_ptrIA_fSt14default_deleteIS1_EES4_EvT_S6_RSaIT0_E = comdat any

$_ZNSt12_Vector_baseISt10unique_ptrIA_fSt14default_deleteIS1_EESaIS4_EE19_M_get_Tp_allocatorEv = comdat any

$_ZNSt12_Vector_baseISt10unique_ptrIA_fSt14default_deleteIS1_EESaIS4_EED2Ev = comdat any

$_ZSt8_DestroyIPSt10unique_ptrIA_fSt14default_deleteIS1_EEEvT_S6_ = comdat any

$_ZNSt12_Destroy_auxILb0EE9__destroyIPSt10unique_ptrIA_fSt14default_deleteIS3_EEEEvT_S8_ = comdat any

$_ZSt8_DestroyISt10unique_ptrIA_fSt14default_deleteIS1_EEEvPT_ = comdat any

$_ZSt11__addressofISt10unique_ptrIA_fSt14default_deleteIS1_EEEPT_RS5_ = comdat any

$_ZNSt12_Vector_baseISt10unique_ptrIA_fSt14default_deleteIS1_EESaIS4_EE13_M_deallocateEPS4_m = comdat any

$_ZNSt12_Vector_baseISt10unique_ptrIA_fSt14default_deleteIS1_EESaIS4_EE12_Vector_implD2Ev = comdat any

$_ZNSt16allocator_traitsISaISt10unique_ptrIA_fSt14default_deleteIS1_EEEE10deallocateERS5_PS4_m = comdat any

$_ZN9__gnu_cxx13new_allocatorISt10unique_ptrIA_fSt14default_deleteIS2_EEE10deallocateEPS5_m = comdat any

$_ZNSaISt10unique_ptrIA_fSt14default_deleteIS0_EEED2Ev = comdat any

$_ZN9__gnu_cxx13new_allocatorISt10unique_ptrIA_fSt14default_deleteIS2_EEED2Ev = comdat any

$_ZNSt16allocator_traitsISaISt10unique_ptrIA_fSt14default_deleteIS1_EEEE9constructIS4_JPfEEEvRS5_PT_DpOT0_ = comdat any

$_ZSt7forwardIPfEOT_RNSt16remove_referenceIS1_E4typeE = comdat any

$_ZNSt6vectorISt10unique_ptrIA_fSt14default_deleteIS1_EESaIS4_EE19_M_emplace_back_auxIJPfEEEvDpOT_ = comdat any

$_ZN9__gnu_cxx13new_allocatorISt10unique_ptrIA_fSt14default_deleteIS2_EEE9constructIS5_JPfEEEvPT_DpOT0_ = comdat any

$_ZNSt10unique_ptrIA_fSt14default_deleteIS0_EEC2EPf = comdat any

$_ZNSt5tupleIJPfSt14default_deleteIA_fEEEC2IRS0_S3_vEEOT_OT0_ = comdat any

$_ZSt7forwardIRPfEOT_RNSt16remove_referenceIS2_E4typeE = comdat any

$_ZSt7forwardISt14default_deleteIA_fEEOT_RNSt16remove_referenceIS3_E4typeE = comdat any

$_ZNSt11_Tuple_implILm0EJPfSt14default_deleteIA_fEEEC2IRS0_JS3_EvEEOT_DpOT0_ = comdat any

$_ZNSt11_Tuple_implILm1EJSt14default_deleteIA_fEEEC2IS2_EEOT_ = comdat any

$_ZNSt10_Head_baseILm0EPfLb0EEC2IRS0_EEOT_ = comdat any

$_ZNSt10_Head_baseILm1ESt14default_deleteIA_fELb1EEC2IS2_EEOT_ = comdat any

$_ZNKSt6vectorISt10unique_ptrIA_fSt14default_deleteIS1_EESaIS4_EE12_M_check_lenEmPKc = comdat any

$_ZNSt12_Vector_baseISt10unique_ptrIA_fSt14default_deleteIS1_EESaIS4_EE11_M_allocateEm = comdat any

$_ZNKSt6vectorISt10unique_ptrIA_fSt14default_deleteIS1_EESaIS4_EE4sizeEv = comdat any

$_ZSt34__uninitialized_move_if_noexcept_aIPSt10unique_ptrIA_fSt14default_deleteIS1_EES5_SaIS4_EET0_T_S8_S7_RT1_ = comdat any

$_ZNSt16allocator_traitsISaISt10unique_ptrIA_fSt14default_deleteIS1_EEEE7destroyIS4_EEvRS5_PT_ = comdat any

$_ZNKSt6vectorISt10unique_ptrIA_fSt14default_deleteIS1_EESaIS4_EE8max_sizeEv = comdat any

$_ZNSt16allocator_traitsISaISt10unique_ptrIA_fSt14default_deleteIS1_EEEE8max_sizeERKS5_ = comdat any

$_ZNKSt12_Vector_baseISt10unique_ptrIA_fSt14default_deleteIS1_EESaIS4_EE19_M_get_Tp_allocatorEv = comdat any

$_ZNK9__gnu_cxx13new_allocatorISt10unique_ptrIA_fSt14default_deleteIS2_EEE8max_sizeEv = comdat any

$_ZNSt16allocator_traitsISaISt10unique_ptrIA_fSt14default_deleteIS1_EEEE8allocateERS5_m = comdat any

$_ZN9__gnu_cxx13new_allocatorISt10unique_ptrIA_fSt14default_deleteIS2_EEE8allocateEmPKv = comdat any

$_ZSt22__uninitialized_copy_aISt13move_iteratorIPSt10unique_ptrIA_fSt14default_deleteIS2_EEES6_S5_ET0_T_S9_S8_RSaIT1_E = comdat any

$_ZSt32__make_move_if_noexcept_iteratorIPSt10unique_ptrIA_fSt14default_deleteIS1_EESt13move_iteratorIS5_EET0_T_ = comdat any

$_ZSt18uninitialized_copyISt13move_iteratorIPSt10unique_ptrIA_fSt14default_deleteIS2_EEES6_ET0_T_S9_S8_ = comdat any

$_ZNSt20__uninitialized_copyILb0EE13__uninit_copyISt13move_iteratorIPSt10unique_ptrIA_fSt14default_deleteIS4_EEES8_EET0_T_SB_SA_ = comdat any

$_ZStneIPSt10unique_ptrIA_fSt14default_deleteIS1_EEEbRKSt13move_iteratorIT_ESA_ = comdat any

$_ZSt10_ConstructISt10unique_ptrIA_fSt14default_deleteIS1_EEJS4_EEvPT_DpOT0_ = comdat any

$_ZNKSt13move_iteratorIPSt10unique_ptrIA_fSt14default_deleteIS1_EEEdeEv = comdat any

$_ZNSt13move_iteratorIPSt10unique_ptrIA_fSt14default_deleteIS1_EEEppEv = comdat any

$_ZSteqIPSt10unique_ptrIA_fSt14default_deleteIS1_EEEbRKSt13move_iteratorIT_ESA_ = comdat any

$_ZNKSt13move_iteratorIPSt10unique_ptrIA_fSt14default_deleteIS1_EEE4baseEv = comdat any

$_ZSt7forwardISt10unique_ptrIA_fSt14default_deleteIS1_EEEOT_RNSt16remove_referenceIS5_E4typeE = comdat any

$_ZNSt10unique_ptrIA_fSt14default_deleteIS0_EEC2EOS3_ = comdat any

$_ZNSt10unique_ptrIA_fSt14default_deleteIS0_EE7releaseEv = comdat any

$_ZNSt5tupleIJPfSt14default_deleteIA_fEEEC2IS0_S3_vEEOT_OT0_ = comdat any

$_ZNSt11_Tuple_implILm0EJPfSt14default_deleteIA_fEEEC2IS0_JS3_EvEEOT_DpOT0_ = comdat any

$_ZNSt10_Head_baseILm0EPfLb0EEC2IS0_EEOT_ = comdat any

$_ZNSt13move_iteratorIPSt10unique_ptrIA_fSt14default_deleteIS1_EEEC2ES5_ = comdat any

$_ZN9__gnu_cxx13new_allocatorISt10unique_ptrIA_fSt14default_deleteIS2_EEE7destroyIS5_EEvPT_ = comdat any

$_ZSt3getILm0EJPfSt14default_deleteIA_fEEERKNSt13tuple_elementIXT_ESt5tupleIJDpT0_EEE4typeERKS8_ = comdat any

$_ZSt12__get_helperILm0EPfJSt14default_deleteIA_fEEERKT0_RKSt11_Tuple_implIXT_EJS4_DpT1_EE = comdat any

$_ZNSt11_Tuple_implILm0EJPfSt14default_deleteIA_fEEE7_M_headERKS4_ = comdat any

$_ZNSt10_Head_baseILm0EPfLb0EE7_M_headERKS1_ = comdat any

$_ZSt4swapIPfEvRT_S2_ = comdat any

$_ZSt4moveIRPfEONSt16remove_referenceIT_E4typeEOS3_ = comdat any

$_ZSt4moveIRP15kiss_fftr_stateEONSt16remove_referenceIT_E4typeEOS4_ = comdat any

$_ZSt4moveIRPFvPvEEONSt16remove_referenceIT_E4typeEOS5_ = comdat any

$_ZNSt5tupleIJP15kiss_fftr_statePFvPvEEEC2IS1_S4_vEEOT_OT0_ = comdat any

$_ZSt7forwardIP15kiss_fftr_stateEOT_RNSt16remove_referenceIS2_E4typeE = comdat any

$_ZSt7forwardIPFvPvEEOT_RNSt16remove_referenceIS3_E4typeE = comdat any

$_ZNSt11_Tuple_implILm0EJP15kiss_fftr_statePFvPvEEEC2IS1_JS4_EvEEOT_DpOT0_ = comdat any

$_ZNSt11_Tuple_implILm1EJPFvPvEEEC2IS2_EEOT_ = comdat any

$_ZNSt10_Head_baseILm0EP15kiss_fftr_stateLb0EEC2IS1_EEOT_ = comdat any

$_ZNSt10_Head_baseILm1EPFvPvELb0EEC2IS2_EEOT_ = comdat any

$_ZNSt12_Vector_baseISt10unique_ptrIA_12kiss_fft_cpxSt14default_deleteIS2_EESaIS5_EEC2Ev = comdat any

$_ZNSt12_Vector_baseISt10unique_ptrIA_12kiss_fft_cpxSt14default_deleteIS2_EESaIS5_EE12_Vector_implC2Ev = comdat any

$_ZNSaISt10unique_ptrIA_12kiss_fft_cpxSt14default_deleteIS1_EEEC2Ev = comdat any

$_ZN9__gnu_cxx13new_allocatorISt10unique_ptrIA_12kiss_fft_cpxSt14default_deleteIS3_EEEC2Ev = comdat any

$_ZSt3getILm0EJP15kiss_fftr_statePFvPvEEERKNSt13tuple_elementIXT_ESt5tupleIJDpT0_EEE4typeERKS9_ = comdat any

$_ZSt12__get_helperILm0EP15kiss_fftr_stateJPFvPvEEERKT0_RKSt11_Tuple_implIXT_EJS5_DpT1_EE = comdat any

$_ZNSt11_Tuple_implILm0EJP15kiss_fftr_statePFvPvEEE7_M_headERKS5_ = comdat any

$_ZNSt10_Head_baseILm0EP15kiss_fftr_stateLb0EE7_M_headERKS2_ = comdat any

$_ZSt3getILm0EJP12kiss_fft_cpxSt14default_deleteIA_S0_EEERKNSt13tuple_elementIXT_ESt5tupleIJDpT0_EEE4typeERKS9_ = comdat any

$_ZSt12__get_helperILm0EP12kiss_fft_cpxJSt14default_deleteIA_S0_EEERKT0_RKSt11_Tuple_implIXT_EJS5_DpT1_EE = comdat any

$_ZNSt11_Tuple_implILm0EJP12kiss_fft_cpxSt14default_deleteIA_S0_EEE7_M_headERKS5_ = comdat any

$_ZNSt10_Head_baseILm0EP12kiss_fft_cpxLb0EE7_M_headERKS2_ = comdat any

$_ZSt4swapIP15kiss_fftr_stateEvRT_S3_ = comdat any

$_ZNKSt6vectorISt10unique_ptrIA_12kiss_fft_cpxSt14default_deleteIS2_EESaIS5_EE4sizeEv = comdat any

$_ZNSt6vectorISt10unique_ptrIA_12kiss_fft_cpxSt14default_deleteIS2_EESaIS5_EE17_M_default_appendEm = comdat any

$_ZNSt6vectorISt10unique_ptrIA_12kiss_fft_cpxSt14default_deleteIS2_EESaIS5_EE15_M_erase_at_endEPS5_ = comdat any

$_ZSt27__uninitialized_default_n_aIPSt10unique_ptrIA_12kiss_fft_cpxSt14default_deleteIS2_EEmS5_ET_S7_T0_RSaIT1_E = comdat any

$_ZNKSt6vectorISt10unique_ptrIA_12kiss_fft_cpxSt14default_deleteIS2_EESaIS5_EE12_M_check_lenEmPKc = comdat any

$_ZNSt12_Vector_baseISt10unique_ptrIA_12kiss_fft_cpxSt14default_deleteIS2_EESaIS5_EE11_M_allocateEm = comdat any

$_ZSt34__uninitialized_move_if_noexcept_aIPSt10unique_ptrIA_12kiss_fft_cpxSt14default_deleteIS2_EES6_SaIS5_EET0_T_S9_S8_RT1_ = comdat any

$_ZSt25__uninitialized_default_nIPSt10unique_ptrIA_12kiss_fft_cpxSt14default_deleteIS2_EEmET_S7_T0_ = comdat any

$_ZNSt27__uninitialized_default_n_1ILb0EE18__uninit_default_nIPSt10unique_ptrIA_12kiss_fft_cpxSt14default_deleteIS4_EEmEET_S9_T0_ = comdat any

$_ZSt10_ConstructISt10unique_ptrIA_12kiss_fft_cpxSt14default_deleteIS2_EEJEEvPT_DpOT0_ = comdat any

$_ZNKSt6vectorISt10unique_ptrIA_12kiss_fft_cpxSt14default_deleteIS2_EESaIS5_EE8max_sizeEv = comdat any

$_ZNSt16allocator_traitsISaISt10unique_ptrIA_12kiss_fft_cpxSt14default_deleteIS2_EEEE8max_sizeERKS6_ = comdat any

$_ZNKSt12_Vector_baseISt10unique_ptrIA_12kiss_fft_cpxSt14default_deleteIS2_EESaIS5_EE19_M_get_Tp_allocatorEv = comdat any

$_ZNK9__gnu_cxx13new_allocatorISt10unique_ptrIA_12kiss_fft_cpxSt14default_deleteIS3_EEE8max_sizeEv = comdat any

$_ZNSt16allocator_traitsISaISt10unique_ptrIA_12kiss_fft_cpxSt14default_deleteIS2_EEEE8allocateERS6_m = comdat any

$_ZN9__gnu_cxx13new_allocatorISt10unique_ptrIA_12kiss_fft_cpxSt14default_deleteIS3_EEE8allocateEmPKv = comdat any

$_ZSt22__uninitialized_copy_aISt13move_iteratorIPSt10unique_ptrIA_12kiss_fft_cpxSt14default_deleteIS3_EEES7_S6_ET0_T_SA_S9_RSaIT1_E = comdat any

$_ZSt32__make_move_if_noexcept_iteratorIPSt10unique_ptrIA_12kiss_fft_cpxSt14default_deleteIS2_EESt13move_iteratorIS6_EET0_T_ = comdat any

$_ZSt18uninitialized_copyISt13move_iteratorIPSt10unique_ptrIA_12kiss_fft_cpxSt14default_deleteIS3_EEES7_ET0_T_SA_S9_ = comdat any

$_ZNSt20__uninitialized_copyILb0EE13__uninit_copyISt13move_iteratorIPSt10unique_ptrIA_12kiss_fft_cpxSt14default_deleteIS5_EEES9_EET0_T_SC_SB_ = comdat any

$_ZStneIPSt10unique_ptrIA_12kiss_fft_cpxSt14default_deleteIS2_EEEbRKSt13move_iteratorIT_ESB_ = comdat any

$_ZSt10_ConstructISt10unique_ptrIA_12kiss_fft_cpxSt14default_deleteIS2_EEJS5_EEvPT_DpOT0_ = comdat any

$_ZNKSt13move_iteratorIPSt10unique_ptrIA_12kiss_fft_cpxSt14default_deleteIS2_EEEdeEv = comdat any

$_ZNSt13move_iteratorIPSt10unique_ptrIA_12kiss_fft_cpxSt14default_deleteIS2_EEEppEv = comdat any

$_ZSteqIPSt10unique_ptrIA_12kiss_fft_cpxSt14default_deleteIS2_EEEbRKSt13move_iteratorIT_ESB_ = comdat any

$_ZNKSt13move_iteratorIPSt10unique_ptrIA_12kiss_fft_cpxSt14default_deleteIS2_EEE4baseEv = comdat any

$_ZSt7forwardISt10unique_ptrIA_12kiss_fft_cpxSt14default_deleteIS2_EEEOT_RNSt16remove_referenceIS6_E4typeE = comdat any

$_ZNSt10unique_ptrIA_12kiss_fft_cpxSt14default_deleteIS1_EEC2EOS4_ = comdat any

$_ZNSt10unique_ptrIA_12kiss_fft_cpxSt14default_deleteIS1_EE7releaseEv = comdat any

$_ZSt7forwardISt14default_deleteIA_12kiss_fft_cpxEEOT_RNSt16remove_referenceIS4_E4typeE = comdat any

$_ZNSt5tupleIJP12kiss_fft_cpxSt14default_deleteIA_S0_EEEC2IS1_S4_vEEOT_OT0_ = comdat any

$_ZSt7forwardIP12kiss_fft_cpxEOT_RNSt16remove_referenceIS2_E4typeE = comdat any

$_ZNSt11_Tuple_implILm0EJP12kiss_fft_cpxSt14default_deleteIA_S0_EEEC2IS1_JS4_EvEEOT_DpOT0_ = comdat any

$_ZNSt11_Tuple_implILm1EJSt14default_deleteIA_12kiss_fft_cpxEEEC2IS3_EEOT_ = comdat any

$_ZNSt10_Head_baseILm0EP12kiss_fft_cpxLb0EEC2IS1_EEOT_ = comdat any

$_ZNSt10_Head_baseILm1ESt14default_deleteIA_12kiss_fft_cpxELb1EEC2IS3_EEOT_ = comdat any

$_ZNSt13move_iteratorIPSt10unique_ptrIA_12kiss_fft_cpxSt14default_deleteIS2_EEEC2ES6_ = comdat any

$_ZSt4swapIP12kiss_fft_cpxEvRT_S3_ = comdat any

$_ZSt4moveIRP12kiss_fft_cpxEONSt16remove_referenceIT_E4typeEOS4_ = comdat any

$_ZNSt12_Vector_baseIPN12ILLIXR_AUDIO5SoundESaIS2_EEC2Ev = comdat any

$_ZNSt12_Vector_baseIPN12ILLIXR_AUDIO5SoundESaIS2_EE12_Vector_implC2Ev = comdat any

$_ZNSaIPN12ILLIXR_AUDIO5SoundEEC2Ev = comdat any

$_ZN9__gnu_cxx13new_allocatorIPN12ILLIXR_AUDIO5SoundEEC2Ev = comdat any

$_ZNSt16allocator_traitsISaIPN12ILLIXR_AUDIO5SoundEEE9constructIS2_JRKS2_EEEvRS3_PT_DpOT0_ = comdat any

$_ZNSt6vectorIPN12ILLIXR_AUDIO5SoundESaIS2_EE19_M_emplace_back_auxIJRKS2_EEEvDpOT_ = comdat any

$_ZN9__gnu_cxx13new_allocatorIPN12ILLIXR_AUDIO5SoundEE9constructIS3_JRKS3_EEEvPT_DpOT0_ = comdat any

$_ZSt7forwardIRKPN12ILLIXR_AUDIO5SoundEEOT_RNSt16remove_referenceIS5_E4typeE = comdat any

$_ZNKSt6vectorIPN12ILLIXR_AUDIO5SoundESaIS2_EE12_M_check_lenEmPKc = comdat any

$_ZNSt12_Vector_baseIPN12ILLIXR_AUDIO5SoundESaIS2_EE11_M_allocateEm = comdat any

$_ZSt34__uninitialized_move_if_noexcept_aIPPN12ILLIXR_AUDIO5SoundES3_SaIS2_EET0_T_S6_S5_RT1_ = comdat any

$_ZNSt12_Vector_baseIPN12ILLIXR_AUDIO5SoundESaIS2_EE19_M_get_Tp_allocatorEv = comdat any

$_ZNSt16allocator_traitsISaIPN12ILLIXR_AUDIO5SoundEEE7destroyIS2_EEvRS3_PT_ = comdat any

$_ZSt8_DestroyIPPN12ILLIXR_AUDIO5SoundES2_EvT_S4_RSaIT0_E = comdat any

$_ZNSt12_Vector_baseIPN12ILLIXR_AUDIO5SoundESaIS2_EE13_M_deallocateEPS2_m = comdat any

$_ZNKSt6vectorIPN12ILLIXR_AUDIO5SoundESaIS2_EE8max_sizeEv = comdat any

$_ZNSt16allocator_traitsISaIPN12ILLIXR_AUDIO5SoundEEE8max_sizeERKS3_ = comdat any

$_ZNKSt12_Vector_baseIPN12ILLIXR_AUDIO5SoundESaIS2_EE19_M_get_Tp_allocatorEv = comdat any

$_ZNK9__gnu_cxx13new_allocatorIPN12ILLIXR_AUDIO5SoundEE8max_sizeEv = comdat any

$_ZNSt16allocator_traitsISaIPN12ILLIXR_AUDIO5SoundEEE8allocateERS3_m = comdat any

$_ZN9__gnu_cxx13new_allocatorIPN12ILLIXR_AUDIO5SoundEE8allocateEmPKv = comdat any

$_ZSt22__uninitialized_copy_aISt13move_iteratorIPPN12ILLIXR_AUDIO5SoundEES4_S3_ET0_T_S7_S6_RSaIT1_E = comdat any

$_ZSt32__make_move_if_noexcept_iteratorIPPN12ILLIXR_AUDIO5SoundESt13move_iteratorIS3_EET0_T_ = comdat any

$_ZSt18uninitialized_copyISt13move_iteratorIPPN12ILLIXR_AUDIO5SoundEES4_ET0_T_S7_S6_ = comdat any

$_ZNSt20__uninitialized_copyILb1EE13__uninit_copyISt13move_iteratorIPPN12ILLIXR_AUDIO5SoundEES6_EET0_T_S9_S8_ = comdat any

$_ZSt4copyISt13move_iteratorIPPN12ILLIXR_AUDIO5SoundEES4_ET0_T_S7_S6_ = comdat any

$_ZSt14__copy_move_a2ILb1EPPN12ILLIXR_AUDIO5SoundES3_ET1_T0_S5_S4_ = comdat any

$_ZSt12__miter_baseISt13move_iteratorIPPN12ILLIXR_AUDIO5SoundEEENSt11_Miter_baseIT_E13iterator_typeES7_ = comdat any

$_ZSt13__copy_move_aILb1EPPN12ILLIXR_AUDIO5SoundES3_ET1_T0_S5_S4_ = comdat any

$_ZSt12__niter_baseIPPN12ILLIXR_AUDIO5SoundEENSt11_Niter_baseIT_E13iterator_typeES5_ = comdat any

$_ZNSt11__copy_moveILb1ELb1ESt26random_access_iterator_tagE8__copy_mIPN12ILLIXR_AUDIO5SoundEEEPT_PKS6_S9_S7_ = comdat any

$_ZNSt10_Iter_baseIPPN12ILLIXR_AUDIO5SoundELb0EE7_S_baseES3_ = comdat any

$_ZNSt10_Iter_baseISt13move_iteratorIPPN12ILLIXR_AUDIO5SoundEELb1EE7_S_baseES5_ = comdat any

$_ZNKSt13move_iteratorIPPN12ILLIXR_AUDIO5SoundEE4baseEv = comdat any

$_ZNSt13move_iteratorIPPN12ILLIXR_AUDIO5SoundEEC2ES3_ = comdat any

$_ZN9__gnu_cxx13new_allocatorIPN12ILLIXR_AUDIO5SoundEE7destroyIS3_EEvPT_ = comdat any

$_ZSt8_DestroyIPPN12ILLIXR_AUDIO5SoundEEvT_S4_ = comdat any

$_ZNSt12_Destroy_auxILb1EE9__destroyIPPN12ILLIXR_AUDIO5SoundEEEvT_S6_ = comdat any

$_ZNSt16allocator_traitsISaIPN12ILLIXR_AUDIO5SoundEEE10deallocateERS3_PS2_m = comdat any

$_ZN9__gnu_cxx13new_allocatorIPN12ILLIXR_AUDIO5SoundEE10deallocateEPS3_m = comdat any

$_ZTS4HRTF = comdat any

$_ZTI4HRTF = comdat any

$_ZTV4HRTF = comdat any

@_ZStL8__ioinit = internal global %"class.std::ios_base::Init" zeroinitializer, align 1
@__dso_handle = external hidden global i8
@_ZTV8MIT_HRTF = dso_local unnamed_addr constant { [5 x i8*] } { [5 x i8*] [i8* null, i8* bitcast ({ i8*, i8*, i8* }* @_ZTI8MIT_HRTF to i8*), i8* bitcast (void (%class.MIT_HRTF*)* @_ZN8MIT_HRTFD2Ev to i8*), i8* bitcast (void (%class.MIT_HRTF*)* @_ZN8MIT_HRTFD0Ev to i8*), i8* bitcast (i1 (%class.MIT_HRTF*, float, float, float**)* @_ZN8MIT_HRTF3getEffPPf to i8*)] }, align 8
@_ZTV14CAmbisonicBase = dso_local unnamed_addr constant { [7 x i8*] } { [7 x i8*] [i8* null, i8* bitcast ({ i8*, i8* }* @_ZTI14CAmbisonicBase to i8*), i8* bitcast (void (%class.CAmbisonicBase*)* @_ZN14CAmbisonicBaseD2Ev to i8*), i8* bitcast (void (%class.CAmbisonicBase*)* @_ZN14CAmbisonicBaseD0Ev to i8*), i8* bitcast (i1 (%class.CAmbisonicBase*, i32, i1, i32)* @_ZN14CAmbisonicBase9ConfigureEjbj to i8*), i8* bitcast (void ()* @__cxa_pure_virtual to i8*), i8* bitcast (void ()* @__cxa_pure_virtual to i8*)] }, align 8
@_ZTV16CAmbisonicSource = dso_local unnamed_addr constant { [16 x i8*] } { [16 x i8*] [i8* null, i8* bitcast ({ i8*, i8*, i8* }* @_ZTI16CAmbisonicSource to i8*), i8* bitcast (void (%class.CAmbisonicSource*)* @_ZN16CAmbisonicSourceD2Ev to i8*), i8* bitcast (void (%class.CAmbisonicSource*)* @_ZN16CAmbisonicSourceD0Ev to i8*), i8* bitcast (i1 (%class.CAmbisonicSource*, i32, i1, i32)* @_ZN16CAmbisonicSource9ConfigureEjbj to i8*), i8* bitcast (void (%class.CAmbisonicSource*)* @_ZN16CAmbisonicSource5ResetEv to i8*), i8* bitcast (void (%class.CAmbisonicSource*)* @_ZN16CAmbisonicSource7RefreshEv to i8*), i8* bitcast (void (%class.CAmbisonicSource*, <2 x float>, float)* @_ZN16CAmbisonicSource11SetPositionE10PolarPoint to i8*), i8* bitcast ({ <2 x float>, float } (%class.CAmbisonicSource*)* @_ZN16CAmbisonicSource11GetPositionEv to i8*), i8* bitcast (void (%class.CAmbisonicSource*, i32, float)* @_ZN16CAmbisonicSource14SetOrderWeightEjf to i8*), i8* bitcast (void (%class.CAmbisonicSource*, float)* @_ZN16CAmbisonicSource17SetOrderWeightAllEf to i8*), i8* bitcast (void (%class.CAmbisonicSource*, i32, float)* @_ZN16CAmbisonicSource14SetCoefficientEjf to i8*), i8* bitcast (float (%class.CAmbisonicSource*, i32)* @_ZN16CAmbisonicSource14GetOrderWeightEj to i8*), i8* bitcast (float (%class.CAmbisonicSource*, i32)* @_ZN16CAmbisonicSource14GetCoefficientEj to i8*), i8* bitcast (void (%class.CAmbisonicSource*, float)* @_ZN16CAmbisonicSource7SetGainEf to i8*), i8* bitcast (float (%class.CAmbisonicSource*)* @_ZN16CAmbisonicSource7GetGainEv to i8*)] }, align 8
@_ZTV8CBFormat = dso_local unnamed_addr constant { [7 x i8*] } { [7 x i8*] [i8* null, i8* bitcast ({ i8*, i8*, i8* }* @_ZTI8CBFormat to i8*), i8* bitcast (void (%class.CBFormat*)* @_ZN8CBFormatD2Ev to i8*), i8* bitcast (void (%class.CBFormat*)* @_ZN8CBFormatD0Ev to i8*), i8* bitcast (i1 (%class.CBFormat*, i32, i1, i32)* @_ZN8CBFormat9ConfigureEjbj to i8*), i8* bitcast (void (%class.CBFormat*)* @_ZN8CBFormat5ResetEv to i8*), i8* bitcast (void (%class.CBFormat*)* @_ZN8CBFormat7RefreshEv to i8*)] }, align 8
@_ZTV17CAmbisonicEncoder = dso_local unnamed_addr constant { [16 x i8*] } { [16 x i8*] [i8* null, i8* bitcast ({ i8*, i8*, i8* }* @_ZTI17CAmbisonicEncoder to i8*), i8* bitcast (void (%class.CAmbisonicEncoder*)* @_ZN17CAmbisonicEncoderD1Ev to i8*), i8* bitcast (void (%class.CAmbisonicEncoder*)* @_ZN17CAmbisonicEncoderD0Ev to i8*), i8* bitcast (i1 (%class.CAmbisonicEncoder*, i32, i1, i32)* @_ZN17CAmbisonicEncoder9ConfigureEjbj to i8*), i8* bitcast (void (%class.CAmbisonicSource*)* @_ZN16CAmbisonicSource5ResetEv to i8*), i8* bitcast (void (%class.CAmbisonicEncoder*)* @_ZN17CAmbisonicEncoder7RefreshEv to i8*), i8* bitcast (void (%class.CAmbisonicSource*, <2 x float>, float)* @_ZN16CAmbisonicSource11SetPositionE10PolarPoint to i8*), i8* bitcast ({ <2 x float>, float } (%class.CAmbisonicSource*)* @_ZN16CAmbisonicSource11GetPositionEv to i8*), i8* bitcast (void (%class.CAmbisonicSource*, i32, float)* @_ZN16CAmbisonicSource14SetOrderWeightEjf to i8*), i8* bitcast (void (%class.CAmbisonicSource*, float)* @_ZN16CAmbisonicSource17SetOrderWeightAllEf to i8*), i8* bitcast (void (%class.CAmbisonicSource*, i32, float)* @_ZN16CAmbisonicSource14SetCoefficientEjf to i8*), i8* bitcast (float (%class.CAmbisonicSource*, i32)* @_ZN16CAmbisonicSource14GetOrderWeightEj to i8*), i8* bitcast (float (%class.CAmbisonicSource*, i32)* @_ZN16CAmbisonicSource14GetCoefficientEj to i8*), i8* bitcast (void (%class.CAmbisonicSource*, float)* @_ZN16CAmbisonicSource7SetGainEf to i8*), i8* bitcast (float (%class.CAmbisonicSource*)* @_ZN16CAmbisonicSource7GetGainEv to i8*)] }, align 8
@_ZTV21CAmbisonicEncoderDist = dso_local unnamed_addr constant { [16 x i8*] } { [16 x i8*] [i8* null, i8* bitcast ({ i8*, i8*, i8* }* @_ZTI21CAmbisonicEncoderDist to i8*), i8* bitcast (void (%class.CAmbisonicEncoderDist*)* @_ZN21CAmbisonicEncoderDistD1Ev to i8*), i8* bitcast (void (%class.CAmbisonicEncoderDist*)* @_ZN21CAmbisonicEncoderDistD0Ev to i8*), i8* bitcast (i1 (%class.CAmbisonicEncoderDist*, i32, i1, i32)* @_ZN21CAmbisonicEncoderDist9ConfigureEjbj to i8*), i8* bitcast (void (%class.CAmbisonicEncoderDist*)* @_ZN21CAmbisonicEncoderDist5ResetEv to i8*), i8* bitcast (void (%class.CAmbisonicEncoderDist*)* @_ZN21CAmbisonicEncoderDist7RefreshEv to i8*), i8* bitcast (void (%class.CAmbisonicSource*, <2 x float>, float)* @_ZN16CAmbisonicSource11SetPositionE10PolarPoint to i8*), i8* bitcast ({ <2 x float>, float } (%class.CAmbisonicSource*)* @_ZN16CAmbisonicSource11GetPositionEv to i8*), i8* bitcast (void (%class.CAmbisonicSource*, i32, float)* @_ZN16CAmbisonicSource14SetOrderWeightEjf to i8*), i8* bitcast (void (%class.CAmbisonicSource*, float)* @_ZN16CAmbisonicSource17SetOrderWeightAllEf to i8*), i8* bitcast (void (%class.CAmbisonicSource*, i32, float)* @_ZN16CAmbisonicSource14SetCoefficientEjf to i8*), i8* bitcast (float (%class.CAmbisonicSource*, i32)* @_ZN16CAmbisonicSource14GetOrderWeightEj to i8*), i8* bitcast (float (%class.CAmbisonicSource*, i32)* @_ZN16CAmbisonicSource14GetCoefficientEj to i8*), i8* bitcast (void (%class.CAmbisonicSource*, float)* @_ZN16CAmbisonicSource7SetGainEf to i8*), i8* bitcast (float (%class.CAmbisonicSource*)* @_ZN16CAmbisonicSource7GetGainEv to i8*)] }, align 8
@_ZTV19CAmbisonicProcessor = dso_local unnamed_addr constant { [7 x i8*] } { [7 x i8*] [i8* null, i8* bitcast ({ i8*, i8*, i8* }* @_ZTI19CAmbisonicProcessor to i8*), i8* bitcast (void (%class.CAmbisonicProcessor*)* @_ZN19CAmbisonicProcessorD1Ev to i8*), i8* bitcast (void (%class.CAmbisonicProcessor*)* @_ZN19CAmbisonicProcessorD0Ev to i8*), i8* bitcast (i1 (%class.CAmbisonicBase*, i32, i1, i32)* @_ZN14CAmbisonicBase9ConfigureEjbj to i8*), i8* bitcast (void (%class.CAmbisonicProcessor*)* @_ZN19CAmbisonicProcessor5ResetEv to i8*), i8* bitcast (void (%class.CAmbisonicProcessor*)* @_ZN19CAmbisonicProcessor7RefreshEv to i8*)] }, align 8
@_ZL14first_order_3D = internal constant [2 x [101 x i16]] [[101 x i16] [i16 3, i16 3, i16 3, i16 3, i16 3, i16 3, i16 3, i16 3, i16 3, i16 3, i16 3, i16 2, i16 2, i16 1, i16 0, i16 -1, i16 -3, i16 -5, i16 -7, i16 -10, i16 -13, i16 -17, i16 -21, i16 -25, i16 -30, i16 -35, i16 -41, i16 -47, i16 -54, i16 -60, i16 -67, i16 -75, i16 -82, i16 -90, i16 -97, i16 -105, i16 -113, i16 -120, i16 -127, i16 -134, i16 -141, i16 -147, i16 -153, i16 -158, i16 -163, i16 -167, i16 -170, i16 -173, i16 -175, i16 -176, i16 23040, i16 -176, i16 -175, i16 -173, i16 -170, i16 -167, i16 -163, i16 -158, i16 -153, i16 -147, i16 -141, i16 -134, i16 -127, i16 -120, i16 -113, i16 -105, i16 -97, i16 -90, i16 -82, i16 -75, i16 -67, i16 -60, i16 -54, i16 -47, i16 -41, i16 -35, i16 -30, i16 -25, i16 -21, i16 -17, i16 -13, i16 -10, i16 -7, i16 -5, i16 -3, i16 -1, i16 0, i16 1, i16 2, i16 2, i16 3, i16 3, i16 3, i16 3, i16 3, i16 3, i16 3, i16 3, i16 3, i16 3, i16 3], [101 x i16] [i16 -2, i16 -2, i16 -2, i16 -2, i16 -2, i16 -2, i16 -2, i16 -3, i16 -2, i16 -2, i16 -2, i16 -2, i16 -2, i16 -1, i16 -1, i16 0, i16 1, i16 2, i16 3, i16 5, i16 7, i16 9, i16 11, i16 14, i16 16, i16 19, i16 23, i16 26, i16 30, i16 34, i16 38, i16 42, i16 46, i16 51, i16 55, i16 60, i16 64, i16 68, i16 73, i16 77, i16 80, i16 84, i16 87, i16 90, i16 93, i16 95, i16 97, i16 99, i16 100, i16 101, i16 13438, i16 101, i16 100, i16 99, i16 97, i16 95, i16 93, i16 90, i16 87, i16 84, i16 80, i16 77, i16 73, i16 68, i16 64, i16 60, i16 55, i16 51, i16 46, i16 42, i16 38, i16 34, i16 30, i16 26, i16 23, i16 19, i16 16, i16 14, i16 11, i16 9, i16 7, i16 5, i16 3, i16 2, i16 1, i16 0, i16 -1, i16 -1, i16 -2, i16 -2, i16 -2, i16 -2, i16 -2, i16 -3, i16 -2, i16 -2, i16 -2, i16 -2, i16 -2, i16 -2, i16 -2]], align 16
@_ZL15second_order_3D = internal constant [3 x [101 x i16]] [[101 x i16] [i16 -5, i16 -5, i16 -6, i16 -6, i16 -7, i16 -7, i16 -7, i16 -7, i16 -7, i16 -6, i16 -5, i16 -3, i16 -1, i16 2, i16 6, i16 10, i16 15, i16 21, i16 26, i16 32, i16 38, i16 44, i16 49, i16 53, i16 55, i16 56, i16 54, i16 50, i16 42, i16 32, i16 19, i16 2, i16 -19, i16 -43, i16 -70, i16 -100, i16 -133, i16 -167, i16 -203, i16 -241, i16 -278, i16 -315, i16 -350, i16 -384, i16 -414, i16 -442, i16 -465, i16 -484, i16 -497, i16 -506, i16 25438, i16 -506, i16 -497, i16 -484, i16 -465, i16 -442, i16 -414, i16 -384, i16 -350, i16 -315, i16 -278, i16 -241, i16 -203, i16 -167, i16 -133, i16 -100, i16 -70, i16 -43, i16 -19, i16 2, i16 19, i16 32, i16 42, i16 50, i16 54, i16 56, i16 55, i16 53, i16 49, i16 44, i16 38, i16 32, i16 26, i16 21, i16 15, i16 10, i16 6, i16 2, i16 -1, i16 -3, i16 -5, i16 -6, i16 -7, i16 -7, i16 -7, i16 -7, i16 -7, i16 -6, i16 -6, i16 -5, i16 -5], [101 x i16] [i16 -2, i16 -2, i16 -3, i16 -3, i16 -3, i16 -3, i16 -3, i16 -3, i16 -3, i16 -3, i16 -2, i16 -2, i16 -1, i16 0, i16 2, i16 4, i16 6, i16 8, i16 10, i16 12, i16 15, i16 17, i16 19, i16 20, i16 21, i16 21, i16 21, i16 19, i16 16, i16 12, i16 7, i16 0, i16 -8, i16 -17, i16 -27, i16 -39, i16 -52, i16 -65, i16 -79, i16 -94, i16 -108, i16 -123, i16 -136, i16 -149, i16 -161, i16 -172, i16 -181, i16 -188, i16 -194, i16 -197, i16 19884, i16 -197, i16 -194, i16 -188, i16 -181, i16 -172, i16 -161, i16 -149, i16 -136, i16 -123, i16 -108, i16 -94, i16 -79, i16 -65, i16 -52, i16 -39, i16 -27, i16 -17, i16 -8, i16 0, i16 7, i16 12, i16 16, i16 19, i16 21, i16 21, i16 21, i16 20, i16 19, i16 17, i16 15, i16 12, i16 10, i16 8, i16 6, i16 4, i16 2, i16 0, i16 -1, i16 -2, i16 -2, i16 -3, i16 -3, i16 -3, i16 -3, i16 -3, i16 -3, i16 -3, i16 -3, i16 -2, i16 -2], [101 x i16] [i16 2, i16 3, i16 3, i16 3, i16 3, i16 4, i16 4, i16 4, i16 4, i16 3, i16 2, i16 1, i16 0, i16 -2, i16 -4, i16 -7, i16 -10, i16 -14, i16 -17, i16 -21, i16 -25, i16 -28, i16 -31, i16 -34, i16 -35, i16 -36, i16 -35, i16 -32, i16 -27, i16 -21, i16 -12, i16 -2, i16 11, i16 26, i16 43, i16 62, i16 82, i16 104, i16 127, i16 150, i16 173, i16 196, i16 219, i16 240, i16 259, i16 276, i16 290, i16 302, i16 311, i16 316, i16 10659, i16 316, i16 311, i16 302, i16 290, i16 276, i16 259, i16 240, i16 219, i16 196, i16 173, i16 150, i16 127, i16 104, i16 82, i16 62, i16 43, i16 26, i16 11, i16 -2, i16 -12, i16 -21, i16 -27, i16 -32, i16 -35, i16 -36, i16 -35, i16 -34, i16 -31, i16 -28, i16 -25, i16 -21, i16 -17, i16 -14, i16 -10, i16 -7, i16 -4, i16 -2, i16 0, i16 1, i16 2, i16 3, i16 4, i16 4, i16 4, i16 4, i16 3, i16 3, i16 3, i16 3, i16 2]], align 16
@_ZL14first_order_2D = internal constant [2 x [101 x i16]] [[101 x i16] [i16 1, i16 1, i16 1, i16 1, i16 1, i16 1, i16 1, i16 1, i16 1, i16 1, i16 1, i16 1, i16 1, i16 0, i16 0, i16 -1, i16 -2, i16 -3, i16 -4, i16 -5, i16 -7, i16 -9, i16 -10, i16 -13, i16 -15, i16 -18, i16 -21, i16 -24, i16 -27, i16 -30, i16 -34, i16 -37, i16 -41, i16 -45, i16 -49, i16 -52, i16 -56, i16 -60, i16 -63, i16 -67, i16 -70, i16 -73, i16 -76, i16 -79, i16 -81, i16 -83, i16 -85, i16 -86, i16 -87, i16 -88, i16 19968, i16 -88, i16 -87, i16 -86, i16 -85, i16 -83, i16 -81, i16 -79, i16 -76, i16 -73, i16 -70, i16 -67, i16 -63, i16 -60, i16 -56, i16 -52, i16 -49, i16 -45, i16 -41, i16 -37, i16 -34, i16 -30, i16 -27, i16 -24, i16 -21, i16 -18, i16 -15, i16 -13, i16 -10, i16 -9, i16 -7, i16 -5, i16 -4, i16 -3, i16 -2, i16 -1, i16 0, i16 0, i16 1, i16 1, i16 1, i16 1, i16 1, i16 1, i16 1, i16 1, i16 1, i16 1, i16 1, i16 1, i16 1], [101 x i16] [i16 -2, i16 -2, i16 -2, i16 -2, i16 -2, i16 -2, i16 -2, i16 -2, i16 -2, i16 -2, i16 -2, i16 -2, i16 -1, i16 -1, i16 -1, i16 0, i16 1, i16 1, i16 2, i16 4, i16 5, i16 7, i16 8, i16 10, i16 12, i16 15, i16 17, i16 20, i16 23, i16 26, i16 29, i16 32, i16 35, i16 39, i16 42, i16 46, i16 49, i16 52, i16 55, i16 58, i16 61, i16 64, i16 67, i16 69, i16 71, i16 73, i16 74, i16 76, i16 76, i16 77, i16 14259, i16 77, i16 76, i16 76, i16 74, i16 73, i16 71, i16 69, i16 67, i16 64, i16 61, i16 58, i16 55, i16 52, i16 49, i16 46, i16 42, i16 39, i16 35, i16 32, i16 29, i16 26, i16 23, i16 20, i16 17, i16 15, i16 12, i16 10, i16 8, i16 7, i16 5, i16 4, i16 2, i16 1, i16 1, i16 0, i16 -1, i16 -1, i16 -1, i16 -2, i16 -2, i16 -2, i16 -2, i16 -2, i16 -2, i16 -2, i16 -2, i16 -2, i16 -2, i16 -2, i16 -2]], align 16
@_ZL15second_order_2D = internal constant [3 x [101 x i16]] [[101 x i16] [i16 -3, i16 -3, i16 -3, i16 -3, i16 -4, i16 -4, i16 -4, i16 -4, i16 -4, i16 -3, i16 -3, i16 -2, i16 -1, i16 1, i16 3, i16 5, i16 7, i16 10, i16 13, i16 16, i16 19, i16 22, i16 24, i16 26, i16 27, i16 28, i16 27, i16 25, i16 21, i16 16, i16 9, i16 1, i16 -10, i16 -22, i16 -35, i16 -50, i16 -67, i16 -84, i16 -102, i16 -121, i16 -139, i16 -158, i16 -176, i16 -192, i16 -208, i16 -222, i16 -233, i16 -243, i16 -249, i16 -254, i16 20905, i16 -254, i16 -249, i16 -243, i16 -233, i16 -222, i16 -208, i16 -192, i16 -176, i16 -158, i16 -139, i16 -121, i16 -102, i16 -84, i16 -67, i16 -50, i16 -35, i16 -22, i16 -10, i16 1, i16 9, i16 16, i16 21, i16 25, i16 27, i16 28, i16 27, i16 26, i16 24, i16 22, i16 19, i16 16, i16 13, i16 10, i16 7, i16 5, i16 3, i16 1, i16 -1, i16 -2, i16 -3, i16 -3, i16 -4, i16 -4, i16 -4, i16 -4, i16 -4, i16 -3, i16 -3, i16 -3, i16 -3], [101 x i16] [i16 -1, i16 -1, i16 -2, i16 -2, i16 -2, i16 -2, i16 -2, i16 -2, i16 -2, i16 -2, i16 -1, i16 -1, i16 -1, i16 0, i16 1, i16 2, i16 3, i16 4, i16 5, i16 6, i16 8, i16 9, i16 10, i16 10, i16 11, i16 11, i16 11, i16 10, i16 8, i16 6, i16 3, i16 0, i16 -4, i16 -9, i16 -15, i16 -21, i16 -28, i16 -35, i16 -42, i16 -50, i16 -58, i16 -65, i16 -72, i16 -79, i16 -86, i16 -91, i16 -96, i16 -100, i16 -103, i16 -104, i16 18220, i16 -104, i16 -103, i16 -100, i16 -96, i16 -91, i16 -86, i16 -79, i16 -72, i16 -65, i16 -58, i16 -50, i16 -42, i16 -35, i16 -28, i16 -21, i16 -15, i16 -9, i16 -4, i16 0, i16 3, i16 6, i16 8, i16 10, i16 11, i16 11, i16 11, i16 10, i16 10, i16 9, i16 8, i16 6, i16 5, i16 4, i16 3, i16 2, i16 1, i16 0, i16 -1, i16 -1, i16 -1, i16 -2, i16 -2, i16 -2, i16 -2, i16 -2, i16 -2, i16 -2, i16 -2, i16 -1, i16 -1], [101 x i16] [i16 2, i16 2, i16 3, i16 3, i16 3, i16 3, i16 4, i16 4, i16 3, i16 3, i16 2, i16 1, i16 0, i16 -2, i16 -4, i16 -7, i16 -10, i16 -13, i16 -17, i16 -20, i16 -24, i16 -27, i16 -30, i16 -33, i16 -34, i16 -34, i16 -33, i16 -31, i16 -26, i16 -20, i16 -12, i16 -2, i16 11, i16 25, i16 41, i16 59, i16 79, i16 100, i16 122, i16 144, i16 166, i16 189, i16 210, i16 230, i16 249, i16 265, i16 279, i16 290, i16 298, i16 303, i16 10885, i16 303, i16 298, i16 290, i16 279, i16 265, i16 249, i16 230, i16 210, i16 189, i16 166, i16 144, i16 122, i16 100, i16 79, i16 59, i16 41, i16 25, i16 11, i16 -2, i16 -12, i16 -20, i16 -26, i16 -31, i16 -33, i16 -34, i16 -34, i16 -33, i16 -30, i16 -27, i16 -24, i16 -20, i16 -17, i16 -13, i16 -10, i16 -7, i16 -4, i16 -2, i16 0, i16 1, i16 2, i16 3, i16 3, i16 4, i16 4, i16 3, i16 3, i16 3, i16 3, i16 2, i16 2]], align 16
@_ZL14third_order_2D = internal constant [4 x [101 x i16]] [[101 x i16] [i16 0, i16 1, i16 2, i16 2, i16 3, i16 3, i16 4, i16 4, i16 4, i16 3, i16 2, i16 0, i16 -2, i16 -4, i16 -7, i16 -10, i16 -13, i16 -16, i16 -18, i16 -20, i16 -20, i16 -18, i16 -15, i16 -10, i16 -3, i16 6, i16 16, i16 26, i16 37, i16 47, i16 56, i16 62, i16 64, i16 63, i16 57, i16 45, i16 27, i16 3, i16 -26, i16 -60, i16 -98, i16 -140, i16 -183, i16 -226, i16 -268, i16 -307, i16 -342, i16 -370, i16 -391, i16 -404, i16 21262, i16 -404, i16 -391, i16 -370, i16 -342, i16 -307, i16 -268, i16 -226, i16 -183, i16 -140, i16 -98, i16 -60, i16 -26, i16 3, i16 27, i16 45, i16 57, i16 63, i16 64, i16 62, i16 56, i16 47, i16 37, i16 26, i16 16, i16 6, i16 -3, i16 -10, i16 -15, i16 -18, i16 -20, i16 -20, i16 -18, i16 -16, i16 -13, i16 -10, i16 -7, i16 -4, i16 -2, i16 0, i16 2, i16 3, i16 4, i16 4, i16 4, i16 3, i16 3, i16 2, i16 2, i16 1, i16 0], [101 x i16] [i16 0, i16 1, i16 1, i16 1, i16 2, i16 2, i16 2, i16 2, i16 2, i16 2, i16 1, i16 0, i16 -1, i16 -3, i16 -5, i16 -7, i16 -9, i16 -11, i16 -13, i16 -14, i16 -14, i16 -13, i16 -10, i16 -7, i16 -2, i16 4, i16 10, i16 18, i16 25, i16 32, i16 38, i16 42, i16 44, i16 43, i16 39, i16 30, i16 18, i16 2, i16 -18, i16 -41, i16 -68, i16 -96, i16 -126, i16 -155, i16 -184, i16 -211, i16 -234, i16 -254, i16 -268, i16 -277, i16 19741, i16 -277, i16 -268, i16 -254, i16 -234, i16 -211, i16 -184, i16 -155, i16 -126, i16 -96, i16 -68, i16 -41, i16 -18, i16 2, i16 18, i16 30, i16 39, i16 43, i16 44, i16 42, i16 38, i16 32, i16 25, i16 18, i16 10, i16 4, i16 -2, i16 -7, i16 -10, i16 -13, i16 -14, i16 -14, i16 -13, i16 -11, i16 -9, i16 -7, i16 -5, i16 -3, i16 -1, i16 0, i16 1, i16 2, i16 2, i16 2, i16 2, i16 2, i16 2, i16 1, i16 1, i16 1, i16 0], [101 x i16] [i16 -1, i16 -1, i16 -1, i16 -1, i16 -1, i16 -1, i16 -1, i16 -1, i16 -1, i16 -1, i16 -1, i16 -1, i16 0, i16 0, i16 1, i16 2, i16 2, i16 3, i16 3, i16 4, i16 4, i16 3, i16 3, i16 1, i16 0, i16 -2, i16 -4, i16 -6, i16 -8, i16 -10, i16 -12, i16 -14, i16 -14, i16 -14, i16 -12, i16 -10, i16 -6, i16 -1, i16 5, i16 12, i16 20, i16 29, i16 38, i16 47, i16 56, i16 64, i16 71, i16 77, i16 82, i16 84, i16 15409, i16 84, i16 82, i16 77, i16 71, i16 64, i16 56, i16 47, i16 38, i16 29, i16 20, i16 12, i16 5, i16 -1, i16 -6, i16 -10, i16 -12, i16 -14, i16 -14, i16 -14, i16 -12, i16 -10, i16 -8, i16 -6, i16 -4, i16 -2, i16 0, i16 1, i16 3, i16 3, i16 4, i16 4, i16 3, i16 3, i16 2, i16 2, i16 1, i16 0, i16 0, i16 -1, i16 -1, i16 -1, i16 -1, i16 -1, i16 -1, i16 -1, i16 -1, i16 -1, i16 -1, i16 -1, i16 -1], [101 x i16] [i16 -2, i16 -3, i16 -4, i16 -5, i16 -6, i16 -6, i16 -7, i16 -7, i16 -7, i16 -6, i16 -4, i16 -2, i16 1, i16 5, i16 10, i16 15, i16 20, i16 24, i16 27, i16 29, i16 29, i16 27, i16 22, i16 14, i16 3, i16 -10, i16 -25, i16 -42, i16 -58, i16 -74, i16 -87, i16 -97, i16 -101, i16 -99, i16 -89, i16 -71, i16 -43, i16 -7, i16 39, i16 92, i16 151, i16 215, i16 282, i16 350, i16 415, i16 475, i16 528, i16 572, i16 605, i16 625, i16 8926, i16 625, i16 605, i16 572, i16 528, i16 475, i16 415, i16 350, i16 282, i16 215, i16 151, i16 92, i16 39, i16 -7, i16 -43, i16 -71, i16 -89, i16 -99, i16 -101, i16 -97, i16 -87, i16 -74, i16 -58, i16 -42, i16 -25, i16 -10, i16 3, i16 14, i16 22, i16 27, i16 29, i16 29, i16 27, i16 24, i16 20, i16 15, i16 10, i16 5, i16 1, i16 -2, i16 -4, i16 -6, i16 -7, i16 -7, i16 -7, i16 -6, i16 -6, i16 -5, i16 -4, i16 -3, i16 -2]], align 16
@_ZTV17CAmbisonicSpeaker = dso_local unnamed_addr constant { [16 x i8*] } { [16 x i8*] [i8* null, i8* bitcast ({ i8*, i8*, i8* }* @_ZTI17CAmbisonicSpeaker to i8*), i8* bitcast (void (%class.CAmbisonicSpeaker*)* @_ZN17CAmbisonicSpeakerD1Ev to i8*), i8* bitcast (void (%class.CAmbisonicSpeaker*)* @_ZN17CAmbisonicSpeakerD0Ev to i8*), i8* bitcast (i1 (%class.CAmbisonicSpeaker*, i32, i1, i32)* @_ZN17CAmbisonicSpeaker9ConfigureEjbj to i8*), i8* bitcast (void (%class.CAmbisonicSource*)* @_ZN16CAmbisonicSource5ResetEv to i8*), i8* bitcast (void (%class.CAmbisonicSpeaker*)* @_ZN17CAmbisonicSpeaker7RefreshEv to i8*), i8* bitcast (void (%class.CAmbisonicSource*, <2 x float>, float)* @_ZN16CAmbisonicSource11SetPositionE10PolarPoint to i8*), i8* bitcast ({ <2 x float>, float } (%class.CAmbisonicSource*)* @_ZN16CAmbisonicSource11GetPositionEv to i8*), i8* bitcast (void (%class.CAmbisonicSource*, i32, float)* @_ZN16CAmbisonicSource14SetOrderWeightEjf to i8*), i8* bitcast (void (%class.CAmbisonicSource*, float)* @_ZN16CAmbisonicSource17SetOrderWeightAllEf to i8*), i8* bitcast (void (%class.CAmbisonicSource*, i32, float)* @_ZN16CAmbisonicSource14SetCoefficientEjf to i8*), i8* bitcast (float (%class.CAmbisonicSource*, i32)* @_ZN16CAmbisonicSource14GetOrderWeightEj to i8*), i8* bitcast (float (%class.CAmbisonicSource*, i32)* @_ZN16CAmbisonicSource14GetCoefficientEj to i8*), i8* bitcast (void (%class.CAmbisonicSource*, float)* @_ZN16CAmbisonicSource7SetGainEf to i8*), i8* bitcast (float (%class.CAmbisonicSource*)* @_ZN16CAmbisonicSource7GetGainEv to i8*)] }, align 8
@_ZTV17CAmbisonicDecoder = dso_local unnamed_addr constant { [8 x i8*] } { [8 x i8*] [i8* null, i8* bitcast ({ i8*, i8*, i8* }* @_ZTI17CAmbisonicDecoder to i8*), i8* bitcast (void (%class.CAmbisonicDecoder*)* @_ZN17CAmbisonicDecoderD1Ev to i8*), i8* bitcast (void (%class.CAmbisonicDecoder*)* @_ZN17CAmbisonicDecoderD0Ev to i8*), i8* bitcast (i1 (%class.CAmbisonicBase*, i32, i1, i32)* @_ZN14CAmbisonicBase9ConfigureEjbj to i8*), i8* bitcast (void (%class.CAmbisonicDecoder*)* @_ZN17CAmbisonicDecoder5ResetEv to i8*), i8* bitcast (void (%class.CAmbisonicDecoder*)* @_ZN17CAmbisonicDecoder7RefreshEv to i8*), i8* bitcast (float (%class.CAmbisonicDecoder*, i32, i32)* @_ZN17CAmbisonicDecoder14GetCoefficientEjj to i8*)] }, align 8
@__const._ZN17CAmbisonicDecoder12SpeakerSetUpEij.polPosition = private unnamed_addr constant %struct.PolarPoint { float 0.000000e+00, float 0.000000e+00, float 1.000000e+00 }, align 4
@_ZTV16CAmbisonicZoomer = dso_local unnamed_addr constant { [7 x i8*] } { [7 x i8*] [i8* null, i8* bitcast ({ i8*, i8*, i8* }* @_ZTI16CAmbisonicZoomer to i8*), i8* bitcast (void (%class.CAmbisonicZoomer*)* @_ZN16CAmbisonicZoomerD2Ev to i8*), i8* bitcast (void (%class.CAmbisonicZoomer*)* @_ZN16CAmbisonicZoomerD0Ev to i8*), i8* bitcast (i1 (%class.CAmbisonicZoomer*, i32, i1, i32)* @_ZN16CAmbisonicZoomer9ConfigureEjbj to i8*), i8* bitcast (void (%class.CAmbisonicZoomer*)* @_ZN16CAmbisonicZoomer5ResetEv to i8*), i8* bitcast (void (%class.CAmbisonicZoomer*)* @_ZN16CAmbisonicZoomer7RefreshEv to i8*)] }, align 8
@_ZTV22CAmbisonicBinauralizer = dso_local unnamed_addr constant { [10 x i8*] } { [10 x i8*] [i8* null, i8* bitcast ({ i8*, i8*, i8* }* @_ZTI22CAmbisonicBinauralizer to i8*), i8* bitcast (void (%class.CAmbisonicBinauralizer*)* @_ZN22CAmbisonicBinauralizerD2Ev to i8*), i8* bitcast (void (%class.CAmbisonicBinauralizer*)* @_ZN22CAmbisonicBinauralizerD0Ev to i8*), i8* bitcast (i1 (%class.CAmbisonicBase*, i32, i1, i32)* @_ZN14CAmbisonicBase9ConfigureEjbj to i8*), i8* bitcast (void (%class.CAmbisonicBinauralizer*)* @_ZN22CAmbisonicBinauralizer5ResetEv to i8*), i8* bitcast (void (%class.CAmbisonicBinauralizer*)* @_ZN22CAmbisonicBinauralizer7RefreshEv to i8*), i8* bitcast (i1 (%class.CAmbisonicBinauralizer*, i32, i1, i32, i32, i32*, %"class.std::__cxx11::basic_string"*)* @_ZN22CAmbisonicBinauralizer9ConfigureEjbjjRjNSt7__cxx1112basic_stringIcSt11char_traitsIcESaIcEEE to i8*), i8* bitcast (void (%class.CAmbisonicBinauralizer*)* @_ZN22CAmbisonicBinauralizer15ArrangeSpeakersEv to i8*), i8* bitcast (void (%class.CAmbisonicBinauralizer*)* @_ZN22CAmbisonicBinauralizer15AllocateBuffersEv to i8*)] }, align 8
@_ZSt4cout = external dso_local global %"class.std::basic_ostream", align 8
@.str = private unnamed_addr constant [25 x i8] c"Getting first order cube\00", align 1
@.str.1 = private unnamed_addr constant [40 x i8] c"Getting second/third order dodecahedron\00", align 1
@.str.2 = private unnamed_addr constant [1 x i8] zeroinitializer, align 1
@.str.3 = private unnamed_addr constant [36 x i8] c"Binauralizer Configuration failed!\0A\00", align 1
@.str.4 = private unnamed_addr constant [26 x i8] c"samples/lectureSample.wav\00", align 1
@.str.5 = private unnamed_addr constant [29 x i8] c"samples/radioMusicSample.wav\00", align 1
@_ZZN12ILLIXR_AUDIO7ABAudio14updateRotationEvE5frame = internal global i32 0, align 4
@_ZZN12ILLIXR_AUDIO7ABAudio10updateZoomEvE5frame = internal global i32 0, align 4
@_ZZ14rotatorSet_fxpE5frame = internal global i32 0, align 4
@_ZZ11zoomSet_fxpE5frame = internal global i32 0, align 4
@.str.6 = private unnamed_addr constant [8 x i8] c"Usage: \00", align 1
@.str.7 = private unnamed_addr constant [42 x i8] c" <number of size 1024 blocks to process> \00", align 1
@.str.8 = private unnamed_addr constant [27 x i8] c"<optional: encode/decode>\0A\00", align 1
@.str.9 = private unnamed_addr constant [122 x i8] c"Note: If you want to hear the output sound, limit the process sample blocks so that the output is not longer than input!\0A\00", align 1
@.str.10 = private unnamed_addr constant [11 x i8] c"output.wav\00", align 1
@_ZTVN10__cxxabiv120__si_class_type_infoE = external dso_local global i8*
@_ZTS8MIT_HRTF = dso_local constant [10 x i8] c"8MIT_HRTF\00", align 1
@_ZTVN10__cxxabiv117__class_type_infoE = external dso_local global i8*
@_ZTS4HRTF = linkonce_odr dso_local constant [6 x i8] c"4HRTF\00", comdat, align 1
@_ZTI4HRTF = linkonce_odr dso_local constant { i8*, i8* } { i8* bitcast (i8** getelementptr inbounds (i8*, i8** @_ZTVN10__cxxabiv117__class_type_infoE, i64 2) to i8*), i8* getelementptr inbounds ([6 x i8], [6 x i8]* @_ZTS4HRTF, i32 0, i32 0) }, comdat, align 8
@_ZTI8MIT_HRTF = dso_local constant { i8*, i8*, i8* } { i8* bitcast (i8** getelementptr inbounds (i8*, i8** @_ZTVN10__cxxabiv120__si_class_type_infoE, i64 2) to i8*), i8* getelementptr inbounds ([10 x i8], [10 x i8]* @_ZTS8MIT_HRTF, i32 0, i32 0), i8* bitcast ({ i8*, i8* }* @_ZTI4HRTF to i8*) }, align 8
@_ZTS14CAmbisonicBase = dso_local constant [17 x i8] c"14CAmbisonicBase\00", align 1
@_ZTI14CAmbisonicBase = dso_local constant { i8*, i8* } { i8* bitcast (i8** getelementptr inbounds (i8*, i8** @_ZTVN10__cxxabiv117__class_type_infoE, i64 2) to i8*), i8* getelementptr inbounds ([17 x i8], [17 x i8]* @_ZTS14CAmbisonicBase, i32 0, i32 0) }, align 8
@_ZTS16CAmbisonicSource = dso_local constant [19 x i8] c"16CAmbisonicSource\00", align 1
@_ZTI16CAmbisonicSource = dso_local constant { i8*, i8*, i8* } { i8* bitcast (i8** getelementptr inbounds (i8*, i8** @_ZTVN10__cxxabiv120__si_class_type_infoE, i64 2) to i8*), i8* getelementptr inbounds ([19 x i8], [19 x i8]* @_ZTS16CAmbisonicSource, i32 0, i32 0), i8* bitcast ({ i8*, i8* }* @_ZTI14CAmbisonicBase to i8*) }, align 8
@_ZTS8CBFormat = dso_local constant [10 x i8] c"8CBFormat\00", align 1
@_ZTI8CBFormat = dso_local constant { i8*, i8*, i8* } { i8* bitcast (i8** getelementptr inbounds (i8*, i8** @_ZTVN10__cxxabiv120__si_class_type_infoE, i64 2) to i8*), i8* getelementptr inbounds ([10 x i8], [10 x i8]* @_ZTS8CBFormat, i32 0, i32 0), i8* bitcast ({ i8*, i8* }* @_ZTI14CAmbisonicBase to i8*) }, align 8
@_ZTS17CAmbisonicEncoder = dso_local constant [20 x i8] c"17CAmbisonicEncoder\00", align 1
@_ZTI17CAmbisonicEncoder = dso_local constant { i8*, i8*, i8* } { i8* bitcast (i8** getelementptr inbounds (i8*, i8** @_ZTVN10__cxxabiv120__si_class_type_infoE, i64 2) to i8*), i8* getelementptr inbounds ([20 x i8], [20 x i8]* @_ZTS17CAmbisonicEncoder, i32 0, i32 0), i8* bitcast ({ i8*, i8*, i8* }* @_ZTI16CAmbisonicSource to i8*) }, align 8
@_ZTS21CAmbisonicEncoderDist = dso_local constant [24 x i8] c"21CAmbisonicEncoderDist\00", align 1
@_ZTI21CAmbisonicEncoderDist = dso_local constant { i8*, i8*, i8* } { i8* bitcast (i8** getelementptr inbounds (i8*, i8** @_ZTVN10__cxxabiv120__si_class_type_infoE, i64 2) to i8*), i8* getelementptr inbounds ([24 x i8], [24 x i8]* @_ZTS21CAmbisonicEncoderDist, i32 0, i32 0), i8* bitcast ({ i8*, i8*, i8* }* @_ZTI17CAmbisonicEncoder to i8*) }, align 8
@_ZTS19CAmbisonicProcessor = dso_local constant [22 x i8] c"19CAmbisonicProcessor\00", align 1
@_ZTI19CAmbisonicProcessor = dso_local constant { i8*, i8*, i8* } { i8* bitcast (i8** getelementptr inbounds (i8*, i8** @_ZTVN10__cxxabiv120__si_class_type_infoE, i64 2) to i8*), i8* getelementptr inbounds ([22 x i8], [22 x i8]* @_ZTS19CAmbisonicProcessor, i32 0, i32 0), i8* bitcast ({ i8*, i8* }* @_ZTI14CAmbisonicBase to i8*) }, align 8
@_ZTS17CAmbisonicSpeaker = dso_local constant [20 x i8] c"17CAmbisonicSpeaker\00", align 1
@_ZTI17CAmbisonicSpeaker = dso_local constant { i8*, i8*, i8* } { i8* bitcast (i8** getelementptr inbounds (i8*, i8** @_ZTVN10__cxxabiv120__si_class_type_infoE, i64 2) to i8*), i8* getelementptr inbounds ([20 x i8], [20 x i8]* @_ZTS17CAmbisonicSpeaker, i32 0, i32 0), i8* bitcast ({ i8*, i8*, i8* }* @_ZTI16CAmbisonicSource to i8*) }, align 8
@_ZTS17CAmbisonicDecoder = dso_local constant [20 x i8] c"17CAmbisonicDecoder\00", align 1
@_ZTI17CAmbisonicDecoder = dso_local constant { i8*, i8*, i8* } { i8* bitcast (i8** getelementptr inbounds (i8*, i8** @_ZTVN10__cxxabiv120__si_class_type_infoE, i64 2) to i8*), i8* getelementptr inbounds ([20 x i8], [20 x i8]* @_ZTS17CAmbisonicDecoder, i32 0, i32 0), i8* bitcast ({ i8*, i8* }* @_ZTI14CAmbisonicBase to i8*) }, align 8
@_ZTS16CAmbisonicZoomer = dso_local constant [19 x i8] c"16CAmbisonicZoomer\00", align 1
@_ZTI16CAmbisonicZoomer = dso_local constant { i8*, i8*, i8* } { i8* bitcast (i8** getelementptr inbounds (i8*, i8** @_ZTVN10__cxxabiv120__si_class_type_infoE, i64 2) to i8*), i8* getelementptr inbounds ([19 x i8], [19 x i8]* @_ZTS16CAmbisonicZoomer, i32 0, i32 0), i8* bitcast ({ i8*, i8* }* @_ZTI14CAmbisonicBase to i8*) }, align 8
@_ZTS22CAmbisonicBinauralizer = dso_local constant [25 x i8] c"22CAmbisonicBinauralizer\00", align 1
@_ZTI22CAmbisonicBinauralizer = dso_local constant { i8*, i8*, i8* } { i8* bitcast (i8** getelementptr inbounds (i8*, i8** @_ZTVN10__cxxabiv120__si_class_type_infoE, i64 2) to i8*), i8* getelementptr inbounds ([25 x i8], [25 x i8]* @_ZTS22CAmbisonicBinauralizer, i32 0, i32 0), i8* bitcast ({ i8*, i8* }* @_ZTI14CAmbisonicBase to i8*) }, align 8
@_ZTV4HRTF = linkonce_odr dso_local unnamed_addr constant { [5 x i8*] } { [5 x i8*] [i8* null, i8* bitcast ({ i8*, i8* }* @_ZTI4HRTF to i8*), i8* bitcast (void (%class.HRTF*)* @_ZN4HRTFD2Ev to i8*), i8* bitcast (void (%class.HRTF*)* @_ZN4HRTFD0Ev to i8*), i8* bitcast (void ()* @__cxa_pure_virtual to i8*)] }, comdat, align 8
@_ZL14third_order_3D = internal constant <{ [101 x i16], [101 x i16], <{ [89 x i16], [12 x i16] }>, [101 x i16] }> <{ [101 x i16] [i16 1, i16 3, i16 4, i16 5, i16 6, i16 8, i16 8, i16 8, i16 8, i16 7, i16 5, i16 1, i16 -3, i16 -8, i16 -15, i16 -21, i16 -28, i16 -34, i16 -38, i16 -41, i16 -41, i16 -38, i16 -31, i16 -20, i16 -5, i16 13, i16 33, i16 56, i16 78, i16 99, i16 117, i16 130, i16 136, i16 133, i16 120, i16 95, i16 57, i16 8, i16 -54, i16 -126, i16 -206, i16 -294, i16 -384, i16 -476, i16 -564, i16 -646, i16 -718, i16 -778, i16 -823, i16 -850, i16 26604, i16 -850, i16 -823, i16 -778, i16 -718, i16 -646, i16 -564, i16 -476, i16 -384, i16 -294, i16 -206, i16 -126, i16 -54, i16 8, i16 57, i16 95, i16 120, i16 133, i16 136, i16 130, i16 117, i16 99, i16 78, i16 56, i16 33, i16 13, i16 -5, i16 -20, i16 -31, i16 -38, i16 -41, i16 -41, i16 -38, i16 -34, i16 -28, i16 -21, i16 -15, i16 -8, i16 -3, i16 1, i16 5, i16 7, i16 8, i16 8, i16 8, i16 8, i16 6, i16 5, i16 4, i16 3, i16 1], [101 x i16] [i16 1, i16 2, i16 2, i16 3, i16 4, i16 5, i16 5, i16 5, i16 5, i16 4, i16 3, i16 1, i16 -2, i16 -6, i16 -10, i16 -14, i16 -18, i16 -22, i16 -25, i16 -27, i16 -27, i16 -25, i16 -20, i16 -13, i16 -4, i16 8, i16 22, i16 36, i16 51, i16 65, i16 77, i16 85, i16 89, i16 87, i16 78, i16 62, i16 37, i16 5, i16 -35, i16 -82, i16 -135, i16 -192, i16 -252, i16 -311, i16 -369, i16 -423, i16 -470, i16 -509, i16 -538, i16 -556, i16 23082, i16 -556, i16 -538, i16 -509, i16 -470, i16 -423, i16 -369, i16 -311, i16 -252, i16 -192, i16 -135, i16 -82, i16 -35, i16 5, i16 37, i16 62, i16 78, i16 87, i16 89, i16 85, i16 77, i16 65, i16 51, i16 36, i16 22, i16 8, i16 -4, i16 -13, i16 -20, i16 -25, i16 -27, i16 -27, i16 -25, i16 -22, i16 -18, i16 -14, i16 -10, i16 -6, i16 -2, i16 1, i16 3, i16 4, i16 5, i16 5, i16 5, i16 5, i16 4, i16 3, i16 2, i16 2, i16 1], <{ [89 x i16], [12 x i16] }> <{ [89 x i16] [i16 0, i16 0, i16 0, i16 0, i16 0, i16 0, i16 0, i16 0, i16 0, i16 0, i16 0, i16 0, i16 -1, i16 -1, i16 -1, i16 -1, i16 -1, i16 -2, i16 -2, i16 -2, i16 -2, i16 -2, i16 -2, i16 -1, i16 -1, i16 0, i16 1, i16 1, i16 2, i16 3, i16 4, i16 4, i16 4, i16 4, i16 4, i16 3, i16 1, i16 0, i16 -2, i16 -5, i16 -8, i16 -11, i16 -14, i16 -17, i16 -20, i16 -23, i16 -25, i16 -27, i16 -29, i16 -30, i16 16773, i16 -30, i16 -29, i16 -27, i16 -25, i16 -23, i16 -20, i16 -17, i16 -14, i16 -11, i16 -8, i16 -5, i16 -2, i16 0, i16 1, i16 3, i16 4, i16 4, i16 4, i16 4, i16 4, i16 3, i16 2, i16 1, i16 1, i16 0, i16 -1, i16 -1, i16 -2, i16 -2, i16 -2, i16 -2, i16 -2, i16 -2, i16 -1, i16 -1, i16 -1, i16 -1, i16 -1], [12 x i16] zeroinitializer }>, [101 x i16] [i16 -2, i16 -3, i16 -4, i16 -5, i16 -6, i16 -6, i16 -7, i16 -7, i16 -7, i16 -6, i16 -4, i16 -2, i16 1, i16 5, i16 10, i16 15, i16 19, i16 24, i16 27, i16 29, i16 29, i16 27, i16 22, i16 14, i16 3, i16 -10, i16 -25, i16 -42, i16 -58, i16 -74, i16 -87, i16 -96, i16 -101, i16 -98, i16 -88, i16 -70, i16 -43, i16 -7, i16 38, i16 91, i16 150, i16 214, i16 280, i16 347, i16 412, i16 472, i16 525, i16 568, i16 601, i16 621, i16 8977, i16 621, i16 601, i16 568, i16 525, i16 472, i16 412, i16 347, i16 280, i16 214, i16 150, i16 91, i16 38, i16 -7, i16 -43, i16 -70, i16 -88, i16 -98, i16 -101, i16 -96, i16 -87, i16 -74, i16 -58, i16 -42, i16 -25, i16 -10, i16 3, i16 14, i16 22, i16 27, i16 29, i16 29, i16 27, i16 24, i16 19, i16 15, i16 10, i16 5, i16 1, i16 -2, i16 -4, i16 -6, i16 -7, i16 -7, i16 -7, i16 -6, i16 -6, i16 -5, i16 -4, i16 -3, i16 -2] }>, align 16
@.str.12 = private unnamed_addr constant [23 x i8] c"vector::_M_fill_insert\00", align 1
@.str.13 = private unnamed_addr constant [26 x i8] c"vector::_M_default_append\00", align 1
@.str.14 = private unnamed_addr constant [28 x i8] c"vector::_M_emplace_back_aux\00", align 1
@llvm.global_ctors = appending global [1 x { i32, void ()*, i8* }] [{ i32, void ()*, i8* } { i32 65535, void ()* @_GLOBAL__sub_I_main.cpp, i8* null }]

@_ZN8MIT_HRTFC1Ej = dso_local unnamed_addr alias void (%class.MIT_HRTF*, i32), void (%class.MIT_HRTF*, i32)* @_ZN8MIT_HRTFC2Ej
@_ZN16CAmbisonicSourceC1Ev = dso_local unnamed_addr alias void (%class.CAmbisonicSource*), void (%class.CAmbisonicSource*)* @_ZN16CAmbisonicSourceC2Ev
@_ZN8CBFormatC1Ev = dso_local unnamed_addr alias void (%class.CBFormat*), void (%class.CBFormat*)* @_ZN8CBFormatC2Ev
@_ZN17CAmbisonicEncoderC1Ev = dso_local unnamed_addr alias void (%class.CAmbisonicEncoder*), void (%class.CAmbisonicEncoder*)* @_ZN17CAmbisonicEncoderC2Ev
@_ZN17CAmbisonicEncoderD1Ev = dso_local unnamed_addr alias void (%class.CAmbisonicEncoder*), void (%class.CAmbisonicEncoder*)* @_ZN17CAmbisonicEncoderD2Ev
@_ZN21CAmbisonicEncoderDistC1Ev = dso_local unnamed_addr alias void (%class.CAmbisonicEncoderDist*), void (%class.CAmbisonicEncoderDist*)* @_ZN21CAmbisonicEncoderDistC2Ev
@_ZN21CAmbisonicEncoderDistD1Ev = dso_local unnamed_addr alias void (%class.CAmbisonicEncoderDist*), void (%class.CAmbisonicEncoderDist*)* @_ZN21CAmbisonicEncoderDistD2Ev
@_ZN19CAmbisonicProcessorC1Ev = dso_local unnamed_addr alias void (%class.CAmbisonicProcessor*), void (%class.CAmbisonicProcessor*)* @_ZN19CAmbisonicProcessorC2Ev
@_ZN19CAmbisonicProcessorD1Ev = dso_local unnamed_addr alias void (%class.CAmbisonicProcessor*), void (%class.CAmbisonicProcessor*)* @_ZN19CAmbisonicProcessorD2Ev
@_ZN17CAmbisonicSpeakerC1Ev = dso_local unnamed_addr alias void (%class.CAmbisonicSpeaker*), void (%class.CAmbisonicSpeaker*)* @_ZN17CAmbisonicSpeakerC2Ev
@_ZN17CAmbisonicSpeakerD1Ev = dso_local unnamed_addr alias void (%class.CAmbisonicSpeaker*), void (%class.CAmbisonicSpeaker*)* @_ZN17CAmbisonicSpeakerD2Ev
@_ZN17CAmbisonicDecoderC1Ev = dso_local unnamed_addr alias void (%class.CAmbisonicDecoder*), void (%class.CAmbisonicDecoder*)* @_ZN17CAmbisonicDecoderC2Ev
@_ZN17CAmbisonicDecoderD1Ev = dso_local unnamed_addr alias void (%class.CAmbisonicDecoder*), void (%class.CAmbisonicDecoder*)* @_ZN17CAmbisonicDecoderD2Ev
@_ZN16CAmbisonicZoomerC1Ev = dso_local unnamed_addr alias void (%class.CAmbisonicZoomer*), void (%class.CAmbisonicZoomer*)* @_ZN16CAmbisonicZoomerC2Ev
@_ZN22CAmbisonicBinauralizerC1Ev = dso_local unnamed_addr alias void (%class.CAmbisonicBinauralizer*), void (%class.CAmbisonicBinauralizer*)* @_ZN22CAmbisonicBinauralizerC2Ev
@_ZN12ILLIXR_AUDIO5SoundC1ENSt7__cxx1112basic_stringIcSt11char_traitsIcESaIcEEEjb = dso_local unnamed_addr alias void (%"class.ILLIXR_AUDIO::Sound"*, %"class.std::__cxx11::basic_string"*, i32, i1), void (%"class.ILLIXR_AUDIO::Sound"*, %"class.std::__cxx11::basic_string"*, i32, i1)* @_ZN12ILLIXR_AUDIO5SoundC2ENSt7__cxx1112basic_stringIcSt11char_traitsIcESaIcEEEjb
@_ZN12ILLIXR_AUDIO5SoundD1Ev = dso_local unnamed_addr alias void (%"class.ILLIXR_AUDIO::Sound"*), void (%"class.ILLIXR_AUDIO::Sound"*)* @_ZN12ILLIXR_AUDIO5SoundD2Ev
@_ZN12ILLIXR_AUDIO7ABAudioC1ENSt7__cxx1112basic_stringIcSt11char_traitsIcESaIcEEENS0_11ProcessTypeE = dso_local unnamed_addr alias void (%"class.ILLIXR_AUDIO::ABAudio"*, %"class.std::__cxx11::basic_string"*, i32), void (%"class.ILLIXR_AUDIO::ABAudio"*, %"class.std::__cxx11::basic_string"*, i32)* @_ZN12ILLIXR_AUDIO7ABAudioC2ENSt7__cxx1112basic_stringIcSt11char_traitsIcESaIcEEENS0_11ProcessTypeE
@_ZN12ILLIXR_AUDIO7ABAudioD1Ev = dso_local unnamed_addr alias void (%"class.ILLIXR_AUDIO::ABAudio"*), void (%"class.ILLIXR_AUDIO::ABAudio"*)* @_ZN12ILLIXR_AUDIO7ABAudioD2Ev

; Function Attrs: noinline uwtable
define internal void @__cxx_global_var_init() #0 section ".text.startup" {
entry:
  call void @_ZNSt8ios_base4InitC1Ev(%"class.std::ios_base::Init"* @_ZStL8__ioinit)
  %0 = call i32 @__cxa_atexit(void (i8*)* bitcast (void (%"class.std::ios_base::Init"*)* @_ZNSt8ios_base4InitD1Ev to void (i8*)*), i8* getelementptr inbounds (%"class.std::ios_base::Init", %"class.std::ios_base::Init"* @_ZStL8__ioinit, i32 0, i32 0), i8* @__dso_handle) #3
  ret void
}

declare dso_local void @_ZNSt8ios_base4InitC1Ev(%"class.std::ios_base::Init"*) unnamed_addr #1

; Function Attrs: nounwind
declare dso_local void @_ZNSt8ios_base4InitD1Ev(%"class.std::ios_base::Init"*) unnamed_addr #2

; Function Attrs: nounwind
declare dso_local i32 @__cxa_atexit(void (i8*)*, i8*, i8*) #3

; Function Attrs: noinline optnone uwtable
define dso_local void @_ZN8MIT_HRTFC2Ej(%class.MIT_HRTF* %this, i32 %i_sampleRate) unnamed_addr #4 align 2 personality i8* bitcast (i32 (...)* @__gxx_personality_v0 to i8*) {
entry:
  %this.addr = alloca %class.MIT_HRTF*, align 8
  %i_sampleRate.addr = alloca i32, align 4
  %exn.slot = alloca i8*
  %ehselector.slot = alloca i32
  store %class.MIT_HRTF* %this, %class.MIT_HRTF** %this.addr, align 8
  store i32 %i_sampleRate, i32* %i_sampleRate.addr, align 4
  %this1 = load %class.MIT_HRTF*, %class.MIT_HRTF** %this.addr, align 8
  %0 = bitcast %class.MIT_HRTF* %this1 to %class.HRTF*
  %1 = load i32, i32* %i_sampleRate.addr, align 4
  call void @_ZN4HRTFC2Ej(%class.HRTF* %0, i32 %1)
  %2 = bitcast %class.MIT_HRTF* %this1 to i32 (...)***
  store i32 (...)** bitcast (i8** getelementptr inbounds ({ [5 x i8*] }, { [5 x i8*] }* @_ZTV8MIT_HRTF, i32 0, inrange i32 0, i32 2) to i32 (...)**), i32 (...)*** %2, align 8
  %3 = load i32, i32* %i_sampleRate.addr, align 4
  %call = invoke i32 @mit_hrtf_availability(i32 0, i32 0, i32 %3)
          to label %invoke.cont unwind label %lpad

invoke.cont:                                      ; preds = %entry
  %4 = bitcast %class.MIT_HRTF* %this1 to %class.HRTF*
  %i_len = getelementptr inbounds %class.HRTF, %class.HRTF* %4, i32 0, i32 2
  store i32 %call, i32* %i_len, align 4
  ret void

lpad:                                             ; preds = %entry
  %5 = landingpad { i8*, i32 }
          cleanup
  %6 = extractvalue { i8*, i32 } %5, 0
  store i8* %6, i8** %exn.slot, align 8
  %7 = extractvalue { i8*, i32 } %5, 1
  store i32 %7, i32* %ehselector.slot, align 4
  %8 = bitcast %class.MIT_HRTF* %this1 to %class.HRTF*
  call void @_ZN4HRTFD2Ev(%class.HRTF* %8) #3
  br label %eh.resume

eh.resume:                                        ; preds = %lpad
  %exn = load i8*, i8** %exn.slot, align 8
  %sel = load i32, i32* %ehselector.slot, align 4
  %lpad.val = insertvalue { i8*, i32 } undef, i8* %exn, 0
  %lpad.val2 = insertvalue { i8*, i32 } %lpad.val, i32 %sel, 1
  resume { i8*, i32 } %lpad.val2
}

; Function Attrs: noinline nounwind optnone uwtable
define linkonce_odr dso_local void @_ZN4HRTFC2Ej(%class.HRTF* %this, i32 %i_sampleRate) unnamed_addr #5 comdat align 2 {
entry:
  %this.addr = alloca %class.HRTF*, align 8
  %i_sampleRate.addr = alloca i32, align 4
  store %class.HRTF* %this, %class.HRTF** %this.addr, align 8
  store i32 %i_sampleRate, i32* %i_sampleRate.addr, align 4
  %this1 = load %class.HRTF*, %class.HRTF** %this.addr, align 8
  %0 = bitcast %class.HRTF* %this1 to i32 (...)***
  store i32 (...)** bitcast (i8** getelementptr inbounds ({ [5 x i8*] }, { [5 x i8*] }* @_ZTV4HRTF, i32 0, inrange i32 0, i32 2) to i32 (...)**), i32 (...)*** %0, align 8
  %i_sampleRate2 = getelementptr inbounds %class.HRTF, %class.HRTF* %this1, i32 0, i32 1
  %1 = load i32, i32* %i_sampleRate.addr, align 4
  store i32 %1, i32* %i_sampleRate2, align 8
  %i_len = getelementptr inbounds %class.HRTF, %class.HRTF* %this1, i32 0, i32 2
  store i32 0, i32* %i_len, align 4
  ret void
}

declare dso_local i32 @mit_hrtf_availability(i32, i32, i32) #1

declare dso_local i32 @__gxx_personality_v0(...)

; Function Attrs: noinline optnone uwtable
define dso_local zeroext i1 @_ZN8MIT_HRTF3getEffPPf(%class.MIT_HRTF* %this, float %f_azimuth, float %f_elevation, float** %pfHRTF) unnamed_addr #4 align 2 personality i8* bitcast (i32 (...)* @__gxx_personality_v0 to i8*) {
entry:
  %retval = alloca i1, align 1
  %this.addr = alloca %class.MIT_HRTF*, align 8
  %f_azimuth.addr = alloca float, align 4
  %f_elevation.addr = alloca float, align 4
  %pfHRTF.addr = alloca float**, align 8
  %nAzimuth = alloca i32, align 4
  %nElevation = alloca i32, align 4
  %psHRTF = alloca [2 x %"class.std::vector"], align 16
  %arrayinit.endOfInit = alloca %"class.std::vector"*, align 8
  %ref.tmp = alloca %"class.std::allocator", align 1
  %exn.slot = alloca i8*
  %ehselector.slot = alloca i32
  %ref.tmp8 = alloca %"class.std::allocator", align 1
  %cleanup.isactive = alloca i1, align 1
  %ret = alloca i32, align 4
  %cleanup.dest.slot = alloca i32, align 4
  %t = alloca i32, align 4
  store %class.MIT_HRTF* %this, %class.MIT_HRTF** %this.addr, align 8
  store float %f_azimuth, float* %f_azimuth.addr, align 4
  store float %f_elevation, float* %f_elevation.addr, align 4
  store float** %pfHRTF, float*** %pfHRTF.addr, align 8
  %this1 = load %class.MIT_HRTF*, %class.MIT_HRTF** %this.addr, align 8
  %0 = load float, float* %f_azimuth.addr, align 4
  %sub = fsub float -0.000000e+00, %0
  %call = call float @_Z16RadiansToDegreesf(float %sub)
  %conv = fptosi float %call to i32
  store i32 %conv, i32* %nAzimuth, align 4
  %1 = load i32, i32* %nAzimuth, align 4
  %cmp = icmp sgt i32 %1, 180
  br i1 %cmp, label %if.then, label %if.end

if.then:                                          ; preds = %entry
  %2 = load i32, i32* %nAzimuth, align 4
  %sub2 = sub nsw i32 %2, 360
  store i32 %sub2, i32* %nAzimuth, align 4
  br label %if.end

if.end:                                           ; preds = %if.then, %entry
  %3 = load float, float* %f_elevation.addr, align 4
  %call3 = call float @_Z16RadiansToDegreesf(float %3)
  %conv4 = fptosi float %call3 to i32
  store i32 %conv4, i32* %nElevation, align 4
  %arrayinit.begin = getelementptr inbounds [2 x %"class.std::vector"], [2 x %"class.std::vector"]* %psHRTF, i64 0, i64 0
  store i1 true, i1* %cleanup.isactive, align 1
  store %"class.std::vector"* %arrayinit.begin, %"class.std::vector"** %arrayinit.endOfInit, align 8
  %4 = bitcast %class.MIT_HRTF* %this1 to %class.HRTF*
  %i_len = getelementptr inbounds %class.HRTF, %class.HRTF* %4, i32 0, i32 2
  %5 = load i32, i32* %i_len, align 4
  %conv5 = zext i32 %5 to i64
  call void @_ZNSaIsEC2Ev(%"class.std::allocator"* %ref.tmp) #3
  invoke void @_ZNSt6vectorIsSaIsEEC2EmRKS0_(%"class.std::vector"* %arrayinit.begin, i64 %conv5, %"class.std::allocator"* dereferenceable(1) %ref.tmp)
          to label %invoke.cont unwind label %lpad

invoke.cont:                                      ; preds = %if.end
  %arrayinit.element = getelementptr inbounds %"class.std::vector", %"class.std::vector"* %arrayinit.begin, i64 1
  store %"class.std::vector"* %arrayinit.element, %"class.std::vector"** %arrayinit.endOfInit, align 8
  %6 = bitcast %class.MIT_HRTF* %this1 to %class.HRTF*
  %i_len6 = getelementptr inbounds %class.HRTF, %class.HRTF* %6, i32 0, i32 2
  %7 = load i32, i32* %i_len6, align 4
  %conv7 = zext i32 %7 to i64
  call void @_ZNSaIsEC2Ev(%"class.std::allocator"* %ref.tmp8) #3
  invoke void @_ZNSt6vectorIsSaIsEEC2EmRKS0_(%"class.std::vector"* %arrayinit.element, i64 %conv7, %"class.std::allocator"* dereferenceable(1) %ref.tmp8)
          to label %invoke.cont10 unwind label %lpad9

invoke.cont10:                                    ; preds = %invoke.cont
  store i1 false, i1* %cleanup.isactive, align 1
  call void @_ZNSaIsED2Ev(%"class.std::allocator"* %ref.tmp8) #3
  call void @_ZNSaIsED2Ev(%"class.std::allocator"* %ref.tmp) #3
  %8 = bitcast %class.MIT_HRTF* %this1 to %class.HRTF*
  %i_sampleRate = getelementptr inbounds %class.HRTF, %class.HRTF* %8, i32 0, i32 1
  %9 = load i32, i32* %i_sampleRate, align 8
  %arrayidx = getelementptr inbounds [2 x %"class.std::vector"], [2 x %"class.std::vector"]* %psHRTF, i64 0, i64 0
  %call13 = call i16* @_ZNSt6vectorIsSaIsEE4dataEv(%"class.std::vector"* %arrayidx) #3
  %arrayidx14 = getelementptr inbounds [2 x %"class.std::vector"], [2 x %"class.std::vector"]* %psHRTF, i64 0, i64 1
  %call15 = call i16* @_ZNSt6vectorIsSaIsEE4dataEv(%"class.std::vector"* %arrayidx14) #3
  %call18 = invoke i32 @mit_hrtf_get(i32* %nAzimuth, i32* %nElevation, i32 %9, i16* %call13, i16* %call15)
          to label %invoke.cont17 unwind label %lpad16

invoke.cont17:                                    ; preds = %invoke.cont10
  store i32 %call18, i32* %ret, align 4
  %10 = load i32, i32* %ret, align 4
  %cmp19 = icmp eq i32 %10, 0
  br i1 %cmp19, label %if.then20, label %if.end21

if.then20:                                        ; preds = %invoke.cont17
  store i1 false, i1* %retval, align 1
  store i32 1, i32* %cleanup.dest.slot, align 4
  br label %cleanup

lpad:                                             ; preds = %if.end
  %11 = landingpad { i8*, i32 }
          cleanup
  %12 = extractvalue { i8*, i32 } %11, 0
  store i8* %12, i8** %exn.slot, align 8
  %13 = extractvalue { i8*, i32 } %11, 1
  store i32 %13, i32* %ehselector.slot, align 4
  br label %ehcleanup

lpad9:                                            ; preds = %invoke.cont
  %14 = landingpad { i8*, i32 }
          cleanup
  %15 = extractvalue { i8*, i32 } %14, 0
  store i8* %15, i8** %exn.slot, align 8
  %16 = extractvalue { i8*, i32 } %14, 1
  store i32 %16, i32* %ehselector.slot, align 4
  call void @_ZNSaIsED2Ev(%"class.std::allocator"* %ref.tmp8) #3
  br label %ehcleanup

ehcleanup:                                        ; preds = %lpad9, %lpad
  call void @_ZNSaIsED2Ev(%"class.std::allocator"* %ref.tmp) #3
  %cleanup.is_active = load i1, i1* %cleanup.isactive, align 1
  br i1 %cleanup.is_active, label %cleanup.action, label %cleanup.done

cleanup.action:                                   ; preds = %ehcleanup
  %17 = load %"class.std::vector"*, %"class.std::vector"** %arrayinit.endOfInit, align 8
  %arraydestroy.isempty = icmp eq %"class.std::vector"* %arrayinit.begin, %17
  br i1 %arraydestroy.isempty, label %arraydestroy.done12, label %arraydestroy.body

arraydestroy.body:                                ; preds = %arraydestroy.body, %cleanup.action
  %arraydestroy.elementPast = phi %"class.std::vector"* [ %17, %cleanup.action ], [ %arraydestroy.element, %arraydestroy.body ]
  %arraydestroy.element = getelementptr inbounds %"class.std::vector", %"class.std::vector"* %arraydestroy.elementPast, i64 -1
  call void @_ZNSt6vectorIsSaIsEED2Ev(%"class.std::vector"* %arraydestroy.element) #3
  %arraydestroy.done = icmp eq %"class.std::vector"* %arraydestroy.element, %arrayinit.begin
  br i1 %arraydestroy.done, label %arraydestroy.done12, label %arraydestroy.body

arraydestroy.done12:                              ; preds = %arraydestroy.body, %cleanup.action
  br label %cleanup.done

cleanup.done:                                     ; preds = %arraydestroy.done12, %ehcleanup
  br label %eh.resume

lpad16:                                           ; preds = %invoke.cont10
  %18 = landingpad { i8*, i32 }
          cleanup
  %19 = extractvalue { i8*, i32 } %18, 0
  store i8* %19, i8** %exn.slot, align 8
  %20 = extractvalue { i8*, i32 } %18, 1
  store i32 %20, i32* %ehselector.slot, align 4
  %array.begin46 = getelementptr inbounds [2 x %"class.std::vector"], [2 x %"class.std::vector"]* %psHRTF, i32 0, i32 0
  %21 = getelementptr inbounds %"class.std::vector", %"class.std::vector"* %array.begin46, i64 2
  br label %arraydestroy.body47

if.end21:                                         ; preds = %invoke.cont17
  store i32 0, i32* %t, align 4
  br label %for.cond

for.cond:                                         ; preds = %for.inc, %if.end21
  %22 = load i32, i32* %t, align 4
  %23 = bitcast %class.MIT_HRTF* %this1 to %class.HRTF*
  %i_len22 = getelementptr inbounds %class.HRTF, %class.HRTF* %23, i32 0, i32 2
  %24 = load i32, i32* %i_len22, align 4
  %cmp23 = icmp ult i32 %22, %24
  br i1 %cmp23, label %for.body, label %for.end

for.body:                                         ; preds = %for.cond
  %arrayidx24 = getelementptr inbounds [2 x %"class.std::vector"], [2 x %"class.std::vector"]* %psHRTF, i64 0, i64 0
  %25 = load i32, i32* %t, align 4
  %conv25 = zext i32 %25 to i64
  %call26 = call dereferenceable(2) i16* @_ZNSt6vectorIsSaIsEEixEm(%"class.std::vector"* %arrayidx24, i64 %conv25) #3
  %26 = load i16, i16* %call26, align 2
  %conv27 = sext i16 %26 to i32
  %conv28 = sitofp i32 %conv27 to float
  %div = fdiv float %conv28, 3.276700e+04
  %27 = load float**, float*** %pfHRTF.addr, align 8
  %arrayidx29 = getelementptr inbounds float*, float** %27, i64 0
  %28 = load float*, float** %arrayidx29, align 8
  %29 = load i32, i32* %t, align 4
  %idxprom = zext i32 %29 to i64
  %arrayidx30 = getelementptr inbounds float, float* %28, i64 %idxprom
  store float %div, float* %arrayidx30, align 4
  %arrayidx31 = getelementptr inbounds [2 x %"class.std::vector"], [2 x %"class.std::vector"]* %psHRTF, i64 0, i64 1
  %30 = load i32, i32* %t, align 4
  %conv32 = zext i32 %30 to i64
  %call33 = call dereferenceable(2) i16* @_ZNSt6vectorIsSaIsEEixEm(%"class.std::vector"* %arrayidx31, i64 %conv32) #3
  %31 = load i16, i16* %call33, align 2
  %conv34 = sext i16 %31 to i32
  %conv35 = sitofp i32 %conv34 to float
  %div36 = fdiv float %conv35, 3.276700e+04
  %32 = load float**, float*** %pfHRTF.addr, align 8
  %arrayidx37 = getelementptr inbounds float*, float** %32, i64 1
  %33 = load float*, float** %arrayidx37, align 8
  %34 = load i32, i32* %t, align 4
  %idxprom38 = zext i32 %34 to i64
  %arrayidx39 = getelementptr inbounds float, float* %33, i64 %idxprom38
  store float %div36, float* %arrayidx39, align 4
  br label %for.inc

for.inc:                                          ; preds = %for.body
  %35 = load i32, i32* %t, align 4
  %inc = add i32 %35, 1
  store i32 %inc, i32* %t, align 4
  br label %for.cond

for.end:                                          ; preds = %for.cond
  store i1 true, i1* %retval, align 1
  store i32 1, i32* %cleanup.dest.slot, align 4
  br label %cleanup

cleanup:                                          ; preds = %for.end, %if.then20
  %array.begin = getelementptr inbounds [2 x %"class.std::vector"], [2 x %"class.std::vector"]* %psHRTF, i32 0, i32 0
  %36 = getelementptr inbounds %"class.std::vector", %"class.std::vector"* %array.begin, i64 2
  br label %arraydestroy.body40

arraydestroy.body40:                              ; preds = %arraydestroy.body40, %cleanup
  %arraydestroy.elementPast41 = phi %"class.std::vector"* [ %36, %cleanup ], [ %arraydestroy.element42, %arraydestroy.body40 ]
  %arraydestroy.element42 = getelementptr inbounds %"class.std::vector", %"class.std::vector"* %arraydestroy.elementPast41, i64 -1
  call void @_ZNSt6vectorIsSaIsEED2Ev(%"class.std::vector"* %arraydestroy.element42) #3
  %arraydestroy.done43 = icmp eq %"class.std::vector"* %arraydestroy.element42, %array.begin
  br i1 %arraydestroy.done43, label %arraydestroy.done44, label %arraydestroy.body40

arraydestroy.done44:                              ; preds = %arraydestroy.body40
  %37 = load i1, i1* %retval, align 1
  ret i1 %37

arraydestroy.body47:                              ; preds = %arraydestroy.body47, %lpad16
  %arraydestroy.elementPast48 = phi %"class.std::vector"* [ %21, %lpad16 ], [ %arraydestroy.element49, %arraydestroy.body47 ]
  %arraydestroy.element49 = getelementptr inbounds %"class.std::vector", %"class.std::vector"* %arraydestroy.elementPast48, i64 -1
  call void @_ZNSt6vectorIsSaIsEED2Ev(%"class.std::vector"* %arraydestroy.element49) #3
  %arraydestroy.done50 = icmp eq %"class.std::vector"* %arraydestroy.element49, %array.begin46
  br i1 %arraydestroy.done50, label %arraydestroy.done51, label %arraydestroy.body47

arraydestroy.done51:                              ; preds = %arraydestroy.body47
  br label %eh.resume

eh.resume:                                        ; preds = %arraydestroy.done51, %cleanup.done
  %exn = load i8*, i8** %exn.slot, align 8
  %sel = load i32, i32* %ehselector.slot, align 4
  %lpad.val = insertvalue { i8*, i32 } undef, i8* %exn, 0
  %lpad.val52 = insertvalue { i8*, i32 } %lpad.val, i32 %sel, 1
  resume { i8*, i32 } %lpad.val52
}

declare dso_local float @_Z16RadiansToDegreesf(float) #1

; Function Attrs: noinline nounwind optnone uwtable
define linkonce_odr dso_local void @_ZNSaIsEC2Ev(%"class.std::allocator"* %this) unnamed_addr #5 comdat align 2 {
entry:
  %this.addr = alloca %"class.std::allocator"*, align 8
  store %"class.std::allocator"* %this, %"class.std::allocator"** %this.addr, align 8
  %this1 = load %"class.std::allocator"*, %"class.std::allocator"** %this.addr, align 8
  %0 = bitcast %"class.std::allocator"* %this1 to %"class.__gnu_cxx::new_allocator"*
  call void @_ZN9__gnu_cxx13new_allocatorIsEC2Ev(%"class.__gnu_cxx::new_allocator"* %0) #3
  ret void
}

; Function Attrs: noinline optnone uwtable
define linkonce_odr dso_local void @_ZNSt6vectorIsSaIsEEC2EmRKS0_(%"class.std::vector"* %this, i64 %__n, %"class.std::allocator"* dereferenceable(1) %__a) unnamed_addr #4 comdat align 2 personality i8* bitcast (i32 (...)* @__gxx_personality_v0 to i8*) {
entry:
  %this.addr = alloca %"class.std::vector"*, align 8
  %__n.addr = alloca i64, align 8
  %__a.addr = alloca %"class.std::allocator"*, align 8
  %exn.slot = alloca i8*
  %ehselector.slot = alloca i32
  store %"class.std::vector"* %this, %"class.std::vector"** %this.addr, align 8
  store i64 %__n, i64* %__n.addr, align 8
  store %"class.std::allocator"* %__a, %"class.std::allocator"** %__a.addr, align 8
  %this1 = load %"class.std::vector"*, %"class.std::vector"** %this.addr, align 8
  %0 = bitcast %"class.std::vector"* %this1 to %"struct.std::_Vector_base"*
  %1 = load i64, i64* %__n.addr, align 8
  %2 = load %"class.std::allocator"*, %"class.std::allocator"** %__a.addr, align 8
  call void @_ZNSt12_Vector_baseIsSaIsEEC2EmRKS0_(%"struct.std::_Vector_base"* %0, i64 %1, %"class.std::allocator"* dereferenceable(1) %2)
  %3 = load i64, i64* %__n.addr, align 8
  invoke void @_ZNSt6vectorIsSaIsEE21_M_default_initializeEm(%"class.std::vector"* %this1, i64 %3)
          to label %invoke.cont unwind label %lpad

invoke.cont:                                      ; preds = %entry
  ret void

lpad:                                             ; preds = %entry
  %4 = landingpad { i8*, i32 }
          cleanup
  %5 = extractvalue { i8*, i32 } %4, 0
  store i8* %5, i8** %exn.slot, align 8
  %6 = extractvalue { i8*, i32 } %4, 1
  store i32 %6, i32* %ehselector.slot, align 4
  %7 = bitcast %"class.std::vector"* %this1 to %"struct.std::_Vector_base"*
  call void @_ZNSt12_Vector_baseIsSaIsEED2Ev(%"struct.std::_Vector_base"* %7) #3
  br label %eh.resume

eh.resume:                                        ; preds = %lpad
  %exn = load i8*, i8** %exn.slot, align 8
  %sel = load i32, i32* %ehselector.slot, align 4
  %lpad.val = insertvalue { i8*, i32 } undef, i8* %exn, 0
  %lpad.val2 = insertvalue { i8*, i32 } %lpad.val, i32 %sel, 1
  resume { i8*, i32 } %lpad.val2
}

; Function Attrs: noinline nounwind optnone uwtable
define linkonce_odr dso_local void @_ZNSaIsED2Ev(%"class.std::allocator"* %this) unnamed_addr #5 comdat align 2 {
entry:
  %this.addr = alloca %"class.std::allocator"*, align 8
  store %"class.std::allocator"* %this, %"class.std::allocator"** %this.addr, align 8
  %this1 = load %"class.std::allocator"*, %"class.std::allocator"** %this.addr, align 8
  %0 = bitcast %"class.std::allocator"* %this1 to %"class.__gnu_cxx::new_allocator"*
  call void @_ZN9__gnu_cxx13new_allocatorIsED2Ev(%"class.__gnu_cxx::new_allocator"* %0) #3
  ret void
}

; Function Attrs: noinline nounwind optnone uwtable
define linkonce_odr dso_local void @_ZNSt6vectorIsSaIsEED2Ev(%"class.std::vector"* %this) unnamed_addr #5 comdat align 2 personality i8* bitcast (i32 (...)* @__gxx_personality_v0 to i8*) {
entry:
  %this.addr = alloca %"class.std::vector"*, align 8
  %exn.slot = alloca i8*
  %ehselector.slot = alloca i32
  store %"class.std::vector"* %this, %"class.std::vector"** %this.addr, align 8
  %this1 = load %"class.std::vector"*, %"class.std::vector"** %this.addr, align 8
  %0 = bitcast %"class.std::vector"* %this1 to %"struct.std::_Vector_base"*
  %_M_impl = getelementptr inbounds %"struct.std::_Vector_base", %"struct.std::_Vector_base"* %0, i32 0, i32 0
  %_M_start = getelementptr inbounds %"struct.std::_Vector_base<short, std::allocator<short> >::_Vector_impl", %"struct.std::_Vector_base<short, std::allocator<short> >::_Vector_impl"* %_M_impl, i32 0, i32 0
  %1 = load i16*, i16** %_M_start, align 8
  %2 = bitcast %"class.std::vector"* %this1 to %"struct.std::_Vector_base"*
  %_M_impl2 = getelementptr inbounds %"struct.std::_Vector_base", %"struct.std::_Vector_base"* %2, i32 0, i32 0
  %_M_finish = getelementptr inbounds %"struct.std::_Vector_base<short, std::allocator<short> >::_Vector_impl", %"struct.std::_Vector_base<short, std::allocator<short> >::_Vector_impl"* %_M_impl2, i32 0, i32 1
  %3 = load i16*, i16** %_M_finish, align 8
  %4 = bitcast %"class.std::vector"* %this1 to %"struct.std::_Vector_base"*
  %call = call dereferenceable(1) %"class.std::allocator"* @_ZNSt12_Vector_baseIsSaIsEE19_M_get_Tp_allocatorEv(%"struct.std::_Vector_base"* %4) #3
  invoke void @_ZSt8_DestroyIPssEvT_S1_RSaIT0_E(i16* %1, i16* %3, %"class.std::allocator"* dereferenceable(1) %call)
          to label %invoke.cont unwind label %lpad

invoke.cont:                                      ; preds = %entry
  %5 = bitcast %"class.std::vector"* %this1 to %"struct.std::_Vector_base"*
  call void @_ZNSt12_Vector_baseIsSaIsEED2Ev(%"struct.std::_Vector_base"* %5) #3
  ret void

lpad:                                             ; preds = %entry
  %6 = landingpad { i8*, i32 }
          catch i8* null
  %7 = extractvalue { i8*, i32 } %6, 0
  store i8* %7, i8** %exn.slot, align 8
  %8 = extractvalue { i8*, i32 } %6, 1
  store i32 %8, i32* %ehselector.slot, align 4
  %9 = bitcast %"class.std::vector"* %this1 to %"struct.std::_Vector_base"*
  call void @_ZNSt12_Vector_baseIsSaIsEED2Ev(%"struct.std::_Vector_base"* %9) #3
  br label %terminate.handler

terminate.handler:                                ; preds = %lpad
  %exn = load i8*, i8** %exn.slot, align 8
  call void @__clang_call_terminate(i8* %exn) #17
  unreachable
}

declare dso_local i32 @mit_hrtf_get(i32*, i32*, i32, i16*, i16*) #1

; Function Attrs: noinline nounwind optnone uwtable
define linkonce_odr dso_local i16* @_ZNSt6vectorIsSaIsEE4dataEv(%"class.std::vector"* %this) #5 comdat align 2 personality i8* bitcast (i32 (...)* @__gxx_personality_v0 to i8*) {
entry:
  %this.addr = alloca %"class.std::vector"*, align 8
  store %"class.std::vector"* %this, %"class.std::vector"** %this.addr, align 8
  %this1 = load %"class.std::vector"*, %"class.std::vector"** %this.addr, align 8
  %0 = bitcast %"class.std::vector"* %this1 to %"struct.std::_Vector_base"*
  %_M_impl = getelementptr inbounds %"struct.std::_Vector_base", %"struct.std::_Vector_base"* %0, i32 0, i32 0
  %_M_start = getelementptr inbounds %"struct.std::_Vector_base<short, std::allocator<short> >::_Vector_impl", %"struct.std::_Vector_base<short, std::allocator<short> >::_Vector_impl"* %_M_impl, i32 0, i32 0
  %1 = load i16*, i16** %_M_start, align 8
  %call = invoke i16* @_ZNKSt6vectorIsSaIsEE11_M_data_ptrIsEEPT_S4_(%"class.std::vector"* %this1, i16* %1)
          to label %invoke.cont unwind label %terminate.lpad

invoke.cont:                                      ; preds = %entry
  ret i16* %call

terminate.lpad:                                   ; preds = %entry
  %2 = landingpad { i8*, i32 }
          catch i8* null
  %3 = extractvalue { i8*, i32 } %2, 0
  call void @__clang_call_terminate(i8* %3) #17
  unreachable
}

; Function Attrs: noinline nounwind optnone uwtable
define linkonce_odr dso_local dereferenceable(2) i16* @_ZNSt6vectorIsSaIsEEixEm(%"class.std::vector"* %this, i64 %__n) #5 comdat align 2 {
entry:
  %this.addr = alloca %"class.std::vector"*, align 8
  %__n.addr = alloca i64, align 8
  store %"class.std::vector"* %this, %"class.std::vector"** %this.addr, align 8
  store i64 %__n, i64* %__n.addr, align 8
  %this1 = load %"class.std::vector"*, %"class.std::vector"** %this.addr, align 8
  %0 = bitcast %"class.std::vector"* %this1 to %"struct.std::_Vector_base"*
  %_M_impl = getelementptr inbounds %"struct.std::_Vector_base", %"struct.std::_Vector_base"* %0, i32 0, i32 0
  %_M_start = getelementptr inbounds %"struct.std::_Vector_base<short, std::allocator<short> >::_Vector_impl", %"struct.std::_Vector_base<short, std::allocator<short> >::_Vector_impl"* %_M_impl, i32 0, i32 0
  %1 = load i16*, i16** %_M_start, align 8
  %2 = load i64, i64* %__n.addr, align 8
  %add.ptr = getelementptr inbounds i16, i16* %1, i64 %2
  ret i16* %add.ptr
}

; Function Attrs: noinline nounwind optnone uwtable
define dso_local void @_ZN14CAmbisonicBaseC2Ev(%class.CAmbisonicBase* %this) unnamed_addr #5 align 2 {
entry:
  %this.addr = alloca %class.CAmbisonicBase*, align 8
  store %class.CAmbisonicBase* %this, %class.CAmbisonicBase** %this.addr, align 8
  %this1 = load %class.CAmbisonicBase*, %class.CAmbisonicBase** %this.addr, align 8
  %0 = bitcast %class.CAmbisonicBase* %this1 to i32 (...)***
  store i32 (...)** bitcast (i8** getelementptr inbounds ({ [7 x i8*] }, { [7 x i8*] }* @_ZTV14CAmbisonicBase, i32 0, inrange i32 0, i32 2) to i32 (...)**), i32 (...)*** %0, align 8
  %m_nOrder = getelementptr inbounds %class.CAmbisonicBase, %class.CAmbisonicBase* %this1, i32 0, i32 1
  store i32 0, i32* %m_nOrder, align 8
  %m_b3D = getelementptr inbounds %class.CAmbisonicBase, %class.CAmbisonicBase* %this1, i32 0, i32 2
  store i8 0, i8* %m_b3D, align 4
  %m_nChannelCount = getelementptr inbounds %class.CAmbisonicBase, %class.CAmbisonicBase* %this1, i32 0, i32 4
  store i32 0, i32* %m_nChannelCount, align 8
  %m_bOpt = getelementptr inbounds %class.CAmbisonicBase, %class.CAmbisonicBase* %this1, i32 0, i32 5
  store i8 0, i8* %m_bOpt, align 4
  ret void
}

; Function Attrs: noinline nounwind optnone uwtable
define dso_local i32 @_ZN14CAmbisonicBase8GetOrderEv(%class.CAmbisonicBase* %this) #5 align 2 {
entry:
  %this.addr = alloca %class.CAmbisonicBase*, align 8
  store %class.CAmbisonicBase* %this, %class.CAmbisonicBase** %this.addr, align 8
  %this1 = load %class.CAmbisonicBase*, %class.CAmbisonicBase** %this.addr, align 8
  %m_nOrder = getelementptr inbounds %class.CAmbisonicBase, %class.CAmbisonicBase* %this1, i32 0, i32 1
  %0 = load i32, i32* %m_nOrder, align 8
  ret i32 %0
}

; Function Attrs: noinline nounwind optnone uwtable
define dso_local zeroext i1 @_ZN14CAmbisonicBase9GetHeightEv(%class.CAmbisonicBase* %this) #5 align 2 {
entry:
  %this.addr = alloca %class.CAmbisonicBase*, align 8
  store %class.CAmbisonicBase* %this, %class.CAmbisonicBase** %this.addr, align 8
  %this1 = load %class.CAmbisonicBase*, %class.CAmbisonicBase** %this.addr, align 8
  %m_b3D = getelementptr inbounds %class.CAmbisonicBase, %class.CAmbisonicBase* %this1, i32 0, i32 2
  %0 = load i8, i8* %m_b3D, align 4
  %tobool = trunc i8 %0 to i1
  ret i1 %tobool
}

; Function Attrs: noinline nounwind optnone uwtable
define dso_local i32 @_ZN14CAmbisonicBase15GetChannelCountEv(%class.CAmbisonicBase* %this) #5 align 2 {
entry:
  %this.addr = alloca %class.CAmbisonicBase*, align 8
  store %class.CAmbisonicBase* %this, %class.CAmbisonicBase** %this.addr, align 8
  %this1 = load %class.CAmbisonicBase*, %class.CAmbisonicBase** %this.addr, align 8
  %m_nChannelCount = getelementptr inbounds %class.CAmbisonicBase, %class.CAmbisonicBase* %this1, i32 0, i32 4
  %0 = load i32, i32* %m_nChannelCount, align 8
  ret i32 %0
}

; Function Attrs: noinline optnone uwtable
define dso_local zeroext i1 @_ZN14CAmbisonicBase9ConfigureEjbj(%class.CAmbisonicBase* %this, i32 %nOrder, i1 zeroext %b3D, i32 %nMisc) unnamed_addr #4 align 2 {
entry:
  %this.addr = alloca %class.CAmbisonicBase*, align 8
  %nOrder.addr = alloca i32, align 4
  %b3D.addr = alloca i8, align 1
  %nMisc.addr = alloca i32, align 4
  store %class.CAmbisonicBase* %this, %class.CAmbisonicBase** %this.addr, align 8
  store i32 %nOrder, i32* %nOrder.addr, align 4
  %frombool = zext i1 %b3D to i8
  store i8 %frombool, i8* %b3D.addr, align 1
  store i32 %nMisc, i32* %nMisc.addr, align 4
  %this1 = load %class.CAmbisonicBase*, %class.CAmbisonicBase** %this.addr, align 8
  %0 = load i32, i32* %nOrder.addr, align 4
  %m_nOrder = getelementptr inbounds %class.CAmbisonicBase, %class.CAmbisonicBase* %this1, i32 0, i32 1
  store i32 %0, i32* %m_nOrder, align 8
  %1 = load i8, i8* %b3D.addr, align 1
  %tobool = trunc i8 %1 to i1
  %m_b3D = getelementptr inbounds %class.CAmbisonicBase, %class.CAmbisonicBase* %this1, i32 0, i32 2
  %frombool2 = zext i1 %tobool to i8
  store i8 %frombool2, i8* %m_b3D, align 4
  %m_nOrder3 = getelementptr inbounds %class.CAmbisonicBase, %class.CAmbisonicBase* %this1, i32 0, i32 1
  %2 = load i32, i32* %m_nOrder3, align 8
  %m_b3D4 = getelementptr inbounds %class.CAmbisonicBase, %class.CAmbisonicBase* %this1, i32 0, i32 2
  %3 = load i8, i8* %m_b3D4, align 4
  %tobool5 = trunc i8 %3 to i1
  %call = call i32 @_Z17OrderToComponentsjb(i32 %2, i1 zeroext %tobool5)
  %m_nChannelCount = getelementptr inbounds %class.CAmbisonicBase, %class.CAmbisonicBase* %this1, i32 0, i32 4
  store i32 %call, i32* %m_nChannelCount, align 8
  ret i1 true
}

declare dso_local i32 @_Z17OrderToComponentsjb(i32, i1 zeroext) #1

; Function Attrs: noinline nounwind optnone uwtable
define dso_local void @_ZN16CAmbisonicSourceC2Ev(%class.CAmbisonicSource* %this) unnamed_addr #5 align 2 {
entry:
  %this.addr = alloca %class.CAmbisonicSource*, align 8
  store %class.CAmbisonicSource* %this, %class.CAmbisonicSource** %this.addr, align 8
  %this1 = load %class.CAmbisonicSource*, %class.CAmbisonicSource** %this.addr, align 8
  %0 = bitcast %class.CAmbisonicSource* %this1 to %class.CAmbisonicBase*
  call void @_ZN14CAmbisonicBaseC2Ev(%class.CAmbisonicBase* %0)
  %1 = bitcast %class.CAmbisonicSource* %this1 to i32 (...)***
  store i32 (...)** bitcast (i8** getelementptr inbounds ({ [16 x i8*] }, { [16 x i8*] }* @_ZTV16CAmbisonicSource, i32 0, inrange i32 0, i32 2) to i32 (...)**), i32 (...)*** %1, align 8
  %m_pfCoeff = getelementptr inbounds %class.CAmbisonicSource, %class.CAmbisonicSource* %this1, i32 0, i32 1
  call void @_ZNSt6vectorIfSaIfEEC2Ev(%"class.std::vector.0"* %m_pfCoeff) #3
  %m_pfOrderWeights = getelementptr inbounds %class.CAmbisonicSource, %class.CAmbisonicSource* %this1, i32 0, i32 2
  call void @_ZNSt6vectorIfSaIfEEC2Ev(%"class.std::vector.0"* %m_pfOrderWeights) #3
  %m_polPosition = getelementptr inbounds %class.CAmbisonicSource, %class.CAmbisonicSource* %this1, i32 0, i32 3
  %m_polPosition2 = getelementptr inbounds %class.CAmbisonicSource, %class.CAmbisonicSource* %this1, i32 0, i32 3
  %fAzimuth = getelementptr inbounds %struct.PolarPoint, %struct.PolarPoint* %m_polPosition2, i32 0, i32 0
  store float 0.000000e+00, float* %fAzimuth, align 8
  %m_polPosition3 = getelementptr inbounds %class.CAmbisonicSource, %class.CAmbisonicSource* %this1, i32 0, i32 3
  %fElevation = getelementptr inbounds %struct.PolarPoint, %struct.PolarPoint* %m_polPosition3, i32 0, i32 1
  store float 0.000000e+00, float* %fElevation, align 4
  %m_polPosition4 = getelementptr inbounds %class.CAmbisonicSource, %class.CAmbisonicSource* %this1, i32 0, i32 3
  %fDistance = getelementptr inbounds %struct.PolarPoint, %struct.PolarPoint* %m_polPosition4, i32 0, i32 2
  store float 1.000000e+00, float* %fDistance, align 8
  %m_fGain = getelementptr inbounds %class.CAmbisonicSource, %class.CAmbisonicSource* %this1, i32 0, i32 4
  store float 1.000000e+00, float* %m_fGain, align 4
  ret void
}

; Function Attrs: noinline nounwind optnone uwtable
define linkonce_odr dso_local void @_ZNSt6vectorIfSaIfEEC2Ev(%"class.std::vector.0"* %this) unnamed_addr #5 comdat align 2 personality i8* bitcast (i32 (...)* @__gxx_personality_v0 to i8*) {
entry:
  %this.addr = alloca %"class.std::vector.0"*, align 8
  store %"class.std::vector.0"* %this, %"class.std::vector.0"** %this.addr, align 8
  %this1 = load %"class.std::vector.0"*, %"class.std::vector.0"** %this.addr, align 8
  %0 = bitcast %"class.std::vector.0"* %this1 to %"struct.std::_Vector_base.1"*
  invoke void @_ZNSt12_Vector_baseIfSaIfEEC2Ev(%"struct.std::_Vector_base.1"* %0)
          to label %invoke.cont unwind label %terminate.lpad

invoke.cont:                                      ; preds = %entry
  ret void

terminate.lpad:                                   ; preds = %entry
  %1 = landingpad { i8*, i32 }
          catch i8* null
  %2 = extractvalue { i8*, i32 } %1, 0
  call void @__clang_call_terminate(i8* %2) #17
  unreachable
}

; Function Attrs: noinline optnone uwtable
define dso_local zeroext i1 @_ZN16CAmbisonicSource9ConfigureEjbj(%class.CAmbisonicSource* %this, i32 %nOrder, i1 zeroext %b3D, i32 %nMisc) unnamed_addr #4 align 2 {
entry:
  %retval = alloca i1, align 1
  %this.addr = alloca %class.CAmbisonicSource*, align 8
  %nOrder.addr = alloca i32, align 4
  %b3D.addr = alloca i8, align 1
  %nMisc.addr = alloca i32, align 4
  %success = alloca i8, align 1
  %ref.tmp = alloca float, align 4
  %ref.tmp5 = alloca float, align 4
  store %class.CAmbisonicSource* %this, %class.CAmbisonicSource** %this.addr, align 8
  store i32 %nOrder, i32* %nOrder.addr, align 4
  %frombool = zext i1 %b3D to i8
  store i8 %frombool, i8* %b3D.addr, align 1
  store i32 %nMisc, i32* %nMisc.addr, align 4
  %this1 = load %class.CAmbisonicSource*, %class.CAmbisonicSource** %this.addr, align 8
  %0 = bitcast %class.CAmbisonicSource* %this1 to %class.CAmbisonicBase*
  %1 = load i32, i32* %nOrder.addr, align 4
  %2 = load i8, i8* %b3D.addr, align 1
  %tobool = trunc i8 %2 to i1
  %3 = load i32, i32* %nMisc.addr, align 4
  %call = call zeroext i1 @_ZN14CAmbisonicBase9ConfigureEjbj(%class.CAmbisonicBase* %0, i32 %1, i1 zeroext %tobool, i32 %3)
  %frombool2 = zext i1 %call to i8
  store i8 %frombool2, i8* %success, align 1
  %4 = load i8, i8* %success, align 1
  %tobool3 = trunc i8 %4 to i1
  br i1 %tobool3, label %if.end, label %if.then

if.then:                                          ; preds = %entry
  store i1 false, i1* %retval, align 1
  br label %return

if.end:                                           ; preds = %entry
  %m_pfCoeff = getelementptr inbounds %class.CAmbisonicSource, %class.CAmbisonicSource* %this1, i32 0, i32 1
  %5 = bitcast %class.CAmbisonicSource* %this1 to %class.CAmbisonicBase*
  %m_nChannelCount = getelementptr inbounds %class.CAmbisonicBase, %class.CAmbisonicBase* %5, i32 0, i32 4
  %6 = load i32, i32* %m_nChannelCount, align 8
  %conv = zext i32 %6 to i64
  store float 0.000000e+00, float* %ref.tmp, align 4
  call void @_ZNSt6vectorIfSaIfEE6resizeEmRKf(%"class.std::vector.0"* %m_pfCoeff, i64 %conv, float* dereferenceable(4) %ref.tmp)
  %m_pfOrderWeights = getelementptr inbounds %class.CAmbisonicSource, %class.CAmbisonicSource* %this1, i32 0, i32 2
  %7 = bitcast %class.CAmbisonicSource* %this1 to %class.CAmbisonicBase*
  %m_nOrder = getelementptr inbounds %class.CAmbisonicBase, %class.CAmbisonicBase* %7, i32 0, i32 1
  %8 = load i32, i32* %m_nOrder, align 8
  %add = add i32 %8, 1
  %conv4 = zext i32 %add to i64
  store float 1.000000e+00, float* %ref.tmp5, align 4
  call void @_ZNSt6vectorIfSaIfEE6resizeEmRKf(%"class.std::vector.0"* %m_pfOrderWeights, i64 %conv4, float* dereferenceable(4) %ref.tmp5)
  store i1 true, i1* %retval, align 1
  br label %return

return:                                           ; preds = %if.end, %if.then
  %9 = load i1, i1* %retval, align 1
  ret i1 %9
}

; Function Attrs: noinline optnone uwtable
define linkonce_odr dso_local void @_ZNSt6vectorIfSaIfEE6resizeEmRKf(%"class.std::vector.0"* %this, i64 %__new_size, float* dereferenceable(4) %__x) #4 comdat align 2 {
entry:
  %this.addr = alloca %"class.std::vector.0"*, align 8
  %__new_size.addr = alloca i64, align 8
  %__x.addr = alloca float*, align 8
  %agg.tmp = alloca %"class.__gnu_cxx::__normal_iterator.48", align 8
  %ref.tmp = alloca %"class.__gnu_cxx::__normal_iterator", align 8
  %coerce = alloca %"class.__gnu_cxx::__normal_iterator", align 8
  store %"class.std::vector.0"* %this, %"class.std::vector.0"** %this.addr, align 8
  store i64 %__new_size, i64* %__new_size.addr, align 8
  store float* %__x, float** %__x.addr, align 8
  %this1 = load %"class.std::vector.0"*, %"class.std::vector.0"** %this.addr, align 8
  %0 = load i64, i64* %__new_size.addr, align 8
  %call = call i64 @_ZNKSt6vectorIfSaIfEE4sizeEv(%"class.std::vector.0"* %this1) #3
  %cmp = icmp ugt i64 %0, %call
  br i1 %cmp, label %if.then, label %if.else

if.then:                                          ; preds = %entry
  %call2 = call float* @_ZNSt6vectorIfSaIfEE3endEv(%"class.std::vector.0"* %this1) #3
  %coerce.dive = getelementptr inbounds %"class.__gnu_cxx::__normal_iterator", %"class.__gnu_cxx::__normal_iterator"* %ref.tmp, i32 0, i32 0
  store float* %call2, float** %coerce.dive, align 8
  call void @_ZN9__gnu_cxx17__normal_iteratorIPKfSt6vectorIfSaIfEEEC2IPfEERKNS0_IT_NS_11__enable_ifIXsr3std10__are_sameIS9_S8_EE7__valueES5_E6__typeEEE(%"class.__gnu_cxx::__normal_iterator.48"* %agg.tmp, %"class.__gnu_cxx::__normal_iterator"* dereferenceable(8) %ref.tmp) #3
  %1 = load i64, i64* %__new_size.addr, align 8
  %call3 = call i64 @_ZNKSt6vectorIfSaIfEE4sizeEv(%"class.std::vector.0"* %this1) #3
  %sub = sub i64 %1, %call3
  %2 = load float*, float** %__x.addr, align 8
  %coerce.dive4 = getelementptr inbounds %"class.__gnu_cxx::__normal_iterator.48", %"class.__gnu_cxx::__normal_iterator.48"* %agg.tmp, i32 0, i32 0
  %3 = load float*, float** %coerce.dive4, align 8
  %call5 = call float* @_ZNSt6vectorIfSaIfEE6insertEN9__gnu_cxx17__normal_iteratorIPKfS1_EEmRS4_(%"class.std::vector.0"* %this1, float* %3, i64 %sub, float* dereferenceable(4) %2)
  %coerce.dive6 = getelementptr inbounds %"class.__gnu_cxx::__normal_iterator", %"class.__gnu_cxx::__normal_iterator"* %coerce, i32 0, i32 0
  store float* %call5, float** %coerce.dive6, align 8
  br label %if.end10

if.else:                                          ; preds = %entry
  %4 = load i64, i64* %__new_size.addr, align 8
  %call7 = call i64 @_ZNKSt6vectorIfSaIfEE4sizeEv(%"class.std::vector.0"* %this1) #3
  %cmp8 = icmp ult i64 %4, %call7
  br i1 %cmp8, label %if.then9, label %if.end

if.then9:                                         ; preds = %if.else
  %5 = bitcast %"class.std::vector.0"* %this1 to %"struct.std::_Vector_base.1"*
  %_M_impl = getelementptr inbounds %"struct.std::_Vector_base.1", %"struct.std::_Vector_base.1"* %5, i32 0, i32 0
  %_M_start = getelementptr inbounds %"struct.std::_Vector_base<float, std::allocator<float> >::_Vector_impl", %"struct.std::_Vector_base<float, std::allocator<float> >::_Vector_impl"* %_M_impl, i32 0, i32 0
  %6 = load float*, float** %_M_start, align 8
  %7 = load i64, i64* %__new_size.addr, align 8
  %add.ptr = getelementptr inbounds float, float* %6, i64 %7
  call void @_ZNSt6vectorIfSaIfEE15_M_erase_at_endEPf(%"class.std::vector.0"* %this1, float* %add.ptr) #3
  br label %if.end

if.end:                                           ; preds = %if.then9, %if.else
  br label %if.end10

if.end10:                                         ; preds = %if.end, %if.then
  ret void
}

; Function Attrs: noinline nounwind optnone uwtable
define dso_local void @_ZN16CAmbisonicSource5ResetEv(%class.CAmbisonicSource* %this) unnamed_addr #5 align 2 {
entry:
  %this.addr = alloca %class.CAmbisonicSource*, align 8
  store %class.CAmbisonicSource* %this, %class.CAmbisonicSource** %this.addr, align 8
  %this1 = load %class.CAmbisonicSource*, %class.CAmbisonicSource** %this.addr, align 8
  ret void
}

; Function Attrs: noinline nounwind optnone uwtable
define dso_local void @_ZN16CAmbisonicSource7RefreshEv(%class.CAmbisonicSource* %this) unnamed_addr #5 align 2 {
entry:
  %this.addr = alloca %class.CAmbisonicSource*, align 8
  %fCosAzim = alloca float, align 4
  %fSinAzim = alloca float, align 4
  %fCosElev = alloca float, align 4
  %fSinElev = alloca float, align 4
  %fCos2Azim = alloca float, align 4
  %fSin2Azim = alloca float, align 4
  %fSin2Elev = alloca float, align 4
  %ni = alloca i32, align 4
  store %class.CAmbisonicSource* %this, %class.CAmbisonicSource** %this.addr, align 8
  %this1 = load %class.CAmbisonicSource*, %class.CAmbisonicSource** %this.addr, align 8
  %m_polPosition = getelementptr inbounds %class.CAmbisonicSource, %class.CAmbisonicSource* %this1, i32 0, i32 3
  %fAzimuth = getelementptr inbounds %struct.PolarPoint, %struct.PolarPoint* %m_polPosition, i32 0, i32 0
  %0 = load float, float* %fAzimuth, align 8
  %call = call float @cosf(float %0) #3
  store float %call, float* %fCosAzim, align 4
  %m_polPosition2 = getelementptr inbounds %class.CAmbisonicSource, %class.CAmbisonicSource* %this1, i32 0, i32 3
  %fAzimuth3 = getelementptr inbounds %struct.PolarPoint, %struct.PolarPoint* %m_polPosition2, i32 0, i32 0
  %1 = load float, float* %fAzimuth3, align 8
  %call4 = call float @sinf(float %1) #3
  store float %call4, float* %fSinAzim, align 4
  %m_polPosition5 = getelementptr inbounds %class.CAmbisonicSource, %class.CAmbisonicSource* %this1, i32 0, i32 3
  %fElevation = getelementptr inbounds %struct.PolarPoint, %struct.PolarPoint* %m_polPosition5, i32 0, i32 1
  %2 = load float, float* %fElevation, align 4
  %call6 = call float @cosf(float %2) #3
  store float %call6, float* %fCosElev, align 4
  %m_polPosition7 = getelementptr inbounds %class.CAmbisonicSource, %class.CAmbisonicSource* %this1, i32 0, i32 3
  %fElevation8 = getelementptr inbounds %struct.PolarPoint, %struct.PolarPoint* %m_polPosition7, i32 0, i32 1
  %3 = load float, float* %fElevation8, align 4
  %call9 = call float @sinf(float %3) #3
  store float %call9, float* %fSinElev, align 4
  %m_polPosition10 = getelementptr inbounds %class.CAmbisonicSource, %class.CAmbisonicSource* %this1, i32 0, i32 3
  %fAzimuth11 = getelementptr inbounds %struct.PolarPoint, %struct.PolarPoint* %m_polPosition10, i32 0, i32 0
  %4 = load float, float* %fAzimuth11, align 8
  %mul = fmul float 2.000000e+00, %4
  %call12 = call float @cosf(float %mul) #3
  store float %call12, float* %fCos2Azim, align 4
  %m_polPosition13 = getelementptr inbounds %class.CAmbisonicSource, %class.CAmbisonicSource* %this1, i32 0, i32 3
  %fAzimuth14 = getelementptr inbounds %struct.PolarPoint, %struct.PolarPoint* %m_polPosition13, i32 0, i32 0
  %5 = load float, float* %fAzimuth14, align 8
  %mul15 = fmul float 2.000000e+00, %5
  %call16 = call float @sinf(float %mul15) #3
  store float %call16, float* %fSin2Azim, align 4
  %m_polPosition17 = getelementptr inbounds %class.CAmbisonicSource, %class.CAmbisonicSource* %this1, i32 0, i32 3
  %fElevation18 = getelementptr inbounds %struct.PolarPoint, %struct.PolarPoint* %m_polPosition17, i32 0, i32 1
  %6 = load float, float* %fElevation18, align 4
  %mul19 = fmul float 2.000000e+00, %6
  %call20 = call float @sinf(float %mul19) #3
  store float %call20, float* %fSin2Elev, align 4
  %7 = bitcast %class.CAmbisonicSource* %this1 to %class.CAmbisonicBase*
  %m_b3D = getelementptr inbounds %class.CAmbisonicBase, %class.CAmbisonicBase* %7, i32 0, i32 2
  %8 = load i8, i8* %m_b3D, align 4
  %tobool = trunc i8 %8 to i1
  br i1 %tobool, label %if.then, label %if.else

if.then:                                          ; preds = %entry
  %9 = bitcast %class.CAmbisonicSource* %this1 to %class.CAmbisonicBase*
  %m_nOrder = getelementptr inbounds %class.CAmbisonicBase, %class.CAmbisonicBase* %9, i32 0, i32 1
  %10 = load i32, i32* %m_nOrder, align 8
  %cmp = icmp uge i32 %10, 0
  br i1 %cmp, label %if.then21, label %if.end

if.then21:                                        ; preds = %if.then
  %m_pfOrderWeights = getelementptr inbounds %class.CAmbisonicSource, %class.CAmbisonicSource* %this1, i32 0, i32 2
  %call22 = call dereferenceable(4) float* @_ZNSt6vectorIfSaIfEEixEm(%"class.std::vector.0"* %m_pfOrderWeights, i64 0) #3
  %11 = load float, float* %call22, align 4
  %mul23 = fmul float 1.000000e+00, %11
  %m_pfCoeff = getelementptr inbounds %class.CAmbisonicSource, %class.CAmbisonicSource* %this1, i32 0, i32 1
  %call24 = call dereferenceable(4) float* @_ZNSt6vectorIfSaIfEEixEm(%"class.std::vector.0"* %m_pfCoeff, i64 0) #3
  store float %mul23, float* %call24, align 4
  br label %if.end

if.end:                                           ; preds = %if.then21, %if.then
  %12 = bitcast %class.CAmbisonicSource* %this1 to %class.CAmbisonicBase*
  %m_nOrder25 = getelementptr inbounds %class.CAmbisonicBase, %class.CAmbisonicBase* %12, i32 0, i32 1
  %13 = load i32, i32* %m_nOrder25, align 8
  %cmp26 = icmp uge i32 %13, 1
  br i1 %cmp26, label %if.then27, label %if.end45

if.then27:                                        ; preds = %if.end
  %14 = load float, float* %fSinAzim, align 4
  %15 = load float, float* %fCosElev, align 4
  %mul28 = fmul float %14, %15
  %m_pfOrderWeights29 = getelementptr inbounds %class.CAmbisonicSource, %class.CAmbisonicSource* %this1, i32 0, i32 2
  %call30 = call dereferenceable(4) float* @_ZNSt6vectorIfSaIfEEixEm(%"class.std::vector.0"* %m_pfOrderWeights29, i64 1) #3
  %16 = load float, float* %call30, align 4
  %mul31 = fmul float %mul28, %16
  %m_pfCoeff32 = getelementptr inbounds %class.CAmbisonicSource, %class.CAmbisonicSource* %this1, i32 0, i32 1
  %call33 = call dereferenceable(4) float* @_ZNSt6vectorIfSaIfEEixEm(%"class.std::vector.0"* %m_pfCoeff32, i64 1) #3
  store float %mul31, float* %call33, align 4
  %17 = load float, float* %fSinElev, align 4
  %m_pfOrderWeights34 = getelementptr inbounds %class.CAmbisonicSource, %class.CAmbisonicSource* %this1, i32 0, i32 2
  %call35 = call dereferenceable(4) float* @_ZNSt6vectorIfSaIfEEixEm(%"class.std::vector.0"* %m_pfOrderWeights34, i64 1) #3
  %18 = load float, float* %call35, align 4
  %mul36 = fmul float %17, %18
  %m_pfCoeff37 = getelementptr inbounds %class.CAmbisonicSource, %class.CAmbisonicSource* %this1, i32 0, i32 1
  %call38 = call dereferenceable(4) float* @_ZNSt6vectorIfSaIfEEixEm(%"class.std::vector.0"* %m_pfCoeff37, i64 2) #3
  store float %mul36, float* %call38, align 4
  %19 = load float, float* %fCosAzim, align 4
  %20 = load float, float* %fCosElev, align 4
  %mul39 = fmul float %19, %20
  %m_pfOrderWeights40 = getelementptr inbounds %class.CAmbisonicSource, %class.CAmbisonicSource* %this1, i32 0, i32 2
  %call41 = call dereferenceable(4) float* @_ZNSt6vectorIfSaIfEEixEm(%"class.std::vector.0"* %m_pfOrderWeights40, i64 1) #3
  %21 = load float, float* %call41, align 4
  %mul42 = fmul float %mul39, %21
  %m_pfCoeff43 = getelementptr inbounds %class.CAmbisonicSource, %class.CAmbisonicSource* %this1, i32 0, i32 1
  %call44 = call dereferenceable(4) float* @_ZNSt6vectorIfSaIfEEixEm(%"class.std::vector.0"* %m_pfCoeff43, i64 3) #3
  store float %mul42, float* %call44, align 4
  br label %if.end45

if.end45:                                         ; preds = %if.then27, %if.end
  %22 = bitcast %class.CAmbisonicSource* %this1 to %class.CAmbisonicBase*
  %m_nOrder46 = getelementptr inbounds %class.CAmbisonicBase, %class.CAmbisonicBase* %22, i32 0, i32 1
  %23 = load i32, i32* %m_nOrder46, align 8
  %cmp47 = icmp uge i32 %23, 2
  br i1 %cmp47, label %if.then48, label %if.end104

if.then48:                                        ; preds = %if.end45
  %call49 = call double @sqrt(double 3.000000e+00) #3
  %div = fdiv double %call49, 2.000000e+00
  %24 = load float, float* %fSin2Azim, align 4
  %25 = load float, float* %fCosElev, align 4
  %call50 = call float @powf(float %25, float 2.000000e+00) #3
  %mul51 = fmul float %24, %call50
  %conv = fpext float %mul51 to double
  %mul52 = fmul double %div, %conv
  %m_pfOrderWeights53 = getelementptr inbounds %class.CAmbisonicSource, %class.CAmbisonicSource* %this1, i32 0, i32 2
  %call54 = call dereferenceable(4) float* @_ZNSt6vectorIfSaIfEEixEm(%"class.std::vector.0"* %m_pfOrderWeights53, i64 2) #3
  %26 = load float, float* %call54, align 4
  %conv55 = fpext float %26 to double
  %mul56 = fmul double %mul52, %conv55
  %conv57 = fptrunc double %mul56 to float
  %m_pfCoeff58 = getelementptr inbounds %class.CAmbisonicSource, %class.CAmbisonicSource* %this1, i32 0, i32 1
  %call59 = call dereferenceable(4) float* @_ZNSt6vectorIfSaIfEEixEm(%"class.std::vector.0"* %m_pfCoeff58, i64 4) #3
  store float %conv57, float* %call59, align 4
  %call60 = call double @sqrt(double 3.000000e+00) #3
  %div61 = fdiv double %call60, 2.000000e+00
  %27 = load float, float* %fSinAzim, align 4
  %28 = load float, float* %fSin2Elev, align 4
  %mul62 = fmul float %27, %28
  %conv63 = fpext float %mul62 to double
  %mul64 = fmul double %div61, %conv63
  %m_pfOrderWeights65 = getelementptr inbounds %class.CAmbisonicSource, %class.CAmbisonicSource* %this1, i32 0, i32 2
  %call66 = call dereferenceable(4) float* @_ZNSt6vectorIfSaIfEEixEm(%"class.std::vector.0"* %m_pfOrderWeights65, i64 2) #3
  %29 = load float, float* %call66, align 4
  %conv67 = fpext float %29 to double
  %mul68 = fmul double %mul64, %conv67
  %conv69 = fptrunc double %mul68 to float
  %m_pfCoeff70 = getelementptr inbounds %class.CAmbisonicSource, %class.CAmbisonicSource* %this1, i32 0, i32 1
  %call71 = call dereferenceable(4) float* @_ZNSt6vectorIfSaIfEEixEm(%"class.std::vector.0"* %m_pfCoeff70, i64 5) #3
  store float %conv69, float* %call71, align 4
  %30 = load float, float* %fSinElev, align 4
  %call72 = call float @powf(float %30, float 2.000000e+00) #3
  %mul73 = fmul float 1.500000e+00, %call72
  %sub = fsub float %mul73, 5.000000e-01
  %m_pfOrderWeights74 = getelementptr inbounds %class.CAmbisonicSource, %class.CAmbisonicSource* %this1, i32 0, i32 2
  %call75 = call dereferenceable(4) float* @_ZNSt6vectorIfSaIfEEixEm(%"class.std::vector.0"* %m_pfOrderWeights74, i64 2) #3
  %31 = load float, float* %call75, align 4
  %mul76 = fmul float %sub, %31
  %m_pfCoeff77 = getelementptr inbounds %class.CAmbisonicSource, %class.CAmbisonicSource* %this1, i32 0, i32 1
  %call78 = call dereferenceable(4) float* @_ZNSt6vectorIfSaIfEEixEm(%"class.std::vector.0"* %m_pfCoeff77, i64 6) #3
  store float %mul76, float* %call78, align 4
  %call79 = call double @sqrt(double 3.000000e+00) #3
  %div80 = fdiv double %call79, 2.000000e+00
  %32 = load float, float* %fCosAzim, align 4
  %33 = load float, float* %fSin2Elev, align 4
  %mul81 = fmul float %32, %33
  %conv82 = fpext float %mul81 to double
  %mul83 = fmul double %div80, %conv82
  %m_pfOrderWeights84 = getelementptr inbounds %class.CAmbisonicSource, %class.CAmbisonicSource* %this1, i32 0, i32 2
  %call85 = call dereferenceable(4) float* @_ZNSt6vectorIfSaIfEEixEm(%"class.std::vector.0"* %m_pfOrderWeights84, i64 2) #3
  %34 = load float, float* %call85, align 4
  %conv86 = fpext float %34 to double
  %mul87 = fmul double %mul83, %conv86
  %conv88 = fptrunc double %mul87 to float
  %m_pfCoeff89 = getelementptr inbounds %class.CAmbisonicSource, %class.CAmbisonicSource* %this1, i32 0, i32 1
  %call90 = call dereferenceable(4) float* @_ZNSt6vectorIfSaIfEEixEm(%"class.std::vector.0"* %m_pfCoeff89, i64 7) #3
  store float %conv88, float* %call90, align 4
  %call91 = call double @sqrt(double 3.000000e+00) #3
  %div92 = fdiv double %call91, 2.000000e+00
  %35 = load float, float* %fCos2Azim, align 4
  %36 = load float, float* %fCosElev, align 4
  %call93 = call float @powf(float %36, float 2.000000e+00) #3
  %mul94 = fmul float %35, %call93
  %conv95 = fpext float %mul94 to double
  %mul96 = fmul double %div92, %conv95
  %m_pfOrderWeights97 = getelementptr inbounds %class.CAmbisonicSource, %class.CAmbisonicSource* %this1, i32 0, i32 2
  %call98 = call dereferenceable(4) float* @_ZNSt6vectorIfSaIfEEixEm(%"class.std::vector.0"* %m_pfOrderWeights97, i64 2) #3
  %37 = load float, float* %call98, align 4
  %conv99 = fpext float %37 to double
  %mul100 = fmul double %mul96, %conv99
  %conv101 = fptrunc double %mul100 to float
  %m_pfCoeff102 = getelementptr inbounds %class.CAmbisonicSource, %class.CAmbisonicSource* %this1, i32 0, i32 1
  %call103 = call dereferenceable(4) float* @_ZNSt6vectorIfSaIfEEixEm(%"class.std::vector.0"* %m_pfCoeff102, i64 8) #3
  store float %conv101, float* %call103, align 4
  br label %if.end104

if.end104:                                        ; preds = %if.then48, %if.end45
  %38 = bitcast %class.CAmbisonicSource* %this1 to %class.CAmbisonicBase*
  %m_nOrder105 = getelementptr inbounds %class.CAmbisonicBase, %class.CAmbisonicBase* %38, i32 0, i32 1
  %39 = load i32, i32* %m_nOrder105, align 8
  %cmp106 = icmp uge i32 %39, 3
  br i1 %cmp106, label %if.then107, label %if.end208

if.then107:                                       ; preds = %if.end104
  %call108 = call double @sqrt(double 6.250000e-01) #3
  %m_polPosition109 = getelementptr inbounds %class.CAmbisonicSource, %class.CAmbisonicSource* %this1, i32 0, i32 3
  %fAzimuth110 = getelementptr inbounds %struct.PolarPoint, %struct.PolarPoint* %m_polPosition109, i32 0, i32 0
  %40 = load float, float* %fAzimuth110, align 8
  %mul111 = fmul float 3.000000e+00, %40
  %call112 = call float @sinf(float %mul111) #3
  %41 = load float, float* %fCosElev, align 4
  %call113 = call float @powf(float %41, float 3.000000e+00) #3
  %mul114 = fmul float %call112, %call113
  %conv115 = fpext float %mul114 to double
  %mul116 = fmul double %call108, %conv115
  %m_pfOrderWeights117 = getelementptr inbounds %class.CAmbisonicSource, %class.CAmbisonicSource* %this1, i32 0, i32 2
  %call118 = call dereferenceable(4) float* @_ZNSt6vectorIfSaIfEEixEm(%"class.std::vector.0"* %m_pfOrderWeights117, i64 3) #3
  %42 = load float, float* %call118, align 4
  %conv119 = fpext float %42 to double
  %mul120 = fmul double %mul116, %conv119
  %conv121 = fptrunc double %mul120 to float
  %m_pfCoeff122 = getelementptr inbounds %class.CAmbisonicSource, %class.CAmbisonicSource* %this1, i32 0, i32 1
  %call123 = call dereferenceable(4) float* @_ZNSt6vectorIfSaIfEEixEm(%"class.std::vector.0"* %m_pfCoeff122, i64 9) #3
  store float %conv121, float* %call123, align 4
  %call124 = call double @sqrt(double 1.500000e+01) #3
  %div125 = fdiv double %call124, 2.000000e+00
  %43 = load float, float* %fSin2Azim, align 4
  %44 = load float, float* %fSinElev, align 4
  %mul126 = fmul float %43, %44
  %45 = load float, float* %fCosElev, align 4
  %call127 = call float @powf(float %45, float 2.000000e+00) #3
  %mul128 = fmul float %mul126, %call127
  %conv129 = fpext float %mul128 to double
  %mul130 = fmul double %div125, %conv129
  %m_pfOrderWeights131 = getelementptr inbounds %class.CAmbisonicSource, %class.CAmbisonicSource* %this1, i32 0, i32 2
  %call132 = call dereferenceable(4) float* @_ZNSt6vectorIfSaIfEEixEm(%"class.std::vector.0"* %m_pfOrderWeights131, i64 3) #3
  %46 = load float, float* %call132, align 4
  %conv133 = fpext float %46 to double
  %mul134 = fmul double %mul130, %conv133
  %conv135 = fptrunc double %mul134 to float
  %m_pfCoeff136 = getelementptr inbounds %class.CAmbisonicSource, %class.CAmbisonicSource* %this1, i32 0, i32 1
  %call137 = call dereferenceable(4) float* @_ZNSt6vectorIfSaIfEEixEm(%"class.std::vector.0"* %m_pfCoeff136, i64 10) #3
  store float %conv135, float* %call137, align 4
  %call138 = call double @sqrt(double 3.750000e-01) #3
  %47 = load float, float* %fSinAzim, align 4
  %48 = load float, float* %fCosElev, align 4
  %mul139 = fmul float %47, %48
  %49 = load float, float* %fSinElev, align 4
  %call140 = call float @powf(float %49, float 2.000000e+00) #3
  %mul141 = fmul float 5.000000e+00, %call140
  %sub142 = fsub float %mul141, 1.000000e+00
  %mul143 = fmul float %mul139, %sub142
  %conv144 = fpext float %mul143 to double
  %mul145 = fmul double %call138, %conv144
  %m_pfOrderWeights146 = getelementptr inbounds %class.CAmbisonicSource, %class.CAmbisonicSource* %this1, i32 0, i32 2
  %call147 = call dereferenceable(4) float* @_ZNSt6vectorIfSaIfEEixEm(%"class.std::vector.0"* %m_pfOrderWeights146, i64 3) #3
  %50 = load float, float* %call147, align 4
  %conv148 = fpext float %50 to double
  %mul149 = fmul double %mul145, %conv148
  %conv150 = fptrunc double %mul149 to float
  %m_pfCoeff151 = getelementptr inbounds %class.CAmbisonicSource, %class.CAmbisonicSource* %this1, i32 0, i32 1
  %call152 = call dereferenceable(4) float* @_ZNSt6vectorIfSaIfEEixEm(%"class.std::vector.0"* %m_pfCoeff151, i64 11) #3
  store float %conv150, float* %call152, align 4
  %51 = load float, float* %fSinElev, align 4
  %52 = load float, float* %fSinElev, align 4
  %call153 = call float @powf(float %52, float 2.000000e+00) #3
  %mul154 = fmul float 5.000000e+00, %call153
  %sub155 = fsub float %mul154, 3.000000e+00
  %mul156 = fmul float %51, %sub155
  %mul157 = fmul float %mul156, 5.000000e-01
  %m_pfOrderWeights158 = getelementptr inbounds %class.CAmbisonicSource, %class.CAmbisonicSource* %this1, i32 0, i32 2
  %call159 = call dereferenceable(4) float* @_ZNSt6vectorIfSaIfEEixEm(%"class.std::vector.0"* %m_pfOrderWeights158, i64 3) #3
  %53 = load float, float* %call159, align 4
  %mul160 = fmul float %mul157, %53
  %m_pfCoeff161 = getelementptr inbounds %class.CAmbisonicSource, %class.CAmbisonicSource* %this1, i32 0, i32 1
  %call162 = call dereferenceable(4) float* @_ZNSt6vectorIfSaIfEEixEm(%"class.std::vector.0"* %m_pfCoeff161, i64 12) #3
  store float %mul160, float* %call162, align 4
  %call163 = call double @sqrt(double 3.750000e-01) #3
  %54 = load float, float* %fCosAzim, align 4
  %55 = load float, float* %fCosElev, align 4
  %mul164 = fmul float %54, %55
  %56 = load float, float* %fSinElev, align 4
  %call165 = call float @powf(float %56, float 2.000000e+00) #3
  %mul166 = fmul float 5.000000e+00, %call165
  %sub167 = fsub float %mul166, 1.000000e+00
  %mul168 = fmul float %mul164, %sub167
  %conv169 = fpext float %mul168 to double
  %mul170 = fmul double %call163, %conv169
  %m_pfOrderWeights171 = getelementptr inbounds %class.CAmbisonicSource, %class.CAmbisonicSource* %this1, i32 0, i32 2
  %call172 = call dereferenceable(4) float* @_ZNSt6vectorIfSaIfEEixEm(%"class.std::vector.0"* %m_pfOrderWeights171, i64 3) #3
  %57 = load float, float* %call172, align 4
  %conv173 = fpext float %57 to double
  %mul174 = fmul double %mul170, %conv173
  %conv175 = fptrunc double %mul174 to float
  %m_pfCoeff176 = getelementptr inbounds %class.CAmbisonicSource, %class.CAmbisonicSource* %this1, i32 0, i32 1
  %call177 = call dereferenceable(4) float* @_ZNSt6vectorIfSaIfEEixEm(%"class.std::vector.0"* %m_pfCoeff176, i64 13) #3
  store float %conv175, float* %call177, align 4
  %call178 = call double @sqrt(double 1.500000e+01) #3
  %div179 = fdiv double %call178, 2.000000e+00
  %58 = load float, float* %fCos2Azim, align 4
  %59 = load float, float* %fSinElev, align 4
  %mul180 = fmul float %58, %59
  %60 = load float, float* %fCosElev, align 4
  %call181 = call float @powf(float %60, float 2.000000e+00) #3
  %mul182 = fmul float %mul180, %call181
  %conv183 = fpext float %mul182 to double
  %mul184 = fmul double %div179, %conv183
  %m_pfOrderWeights185 = getelementptr inbounds %class.CAmbisonicSource, %class.CAmbisonicSource* %this1, i32 0, i32 2
  %call186 = call dereferenceable(4) float* @_ZNSt6vectorIfSaIfEEixEm(%"class.std::vector.0"* %m_pfOrderWeights185, i64 3) #3
  %61 = load float, float* %call186, align 4
  %conv187 = fpext float %61 to double
  %mul188 = fmul double %mul184, %conv187
  %conv189 = fptrunc double %mul188 to float
  %m_pfCoeff190 = getelementptr inbounds %class.CAmbisonicSource, %class.CAmbisonicSource* %this1, i32 0, i32 1
  %call191 = call dereferenceable(4) float* @_ZNSt6vectorIfSaIfEEixEm(%"class.std::vector.0"* %m_pfCoeff190, i64 14) #3
  store float %conv189, float* %call191, align 4
  %call192 = call double @sqrt(double 6.250000e-01) #3
  %m_polPosition193 = getelementptr inbounds %class.CAmbisonicSource, %class.CAmbisonicSource* %this1, i32 0, i32 3
  %fAzimuth194 = getelementptr inbounds %struct.PolarPoint, %struct.PolarPoint* %m_polPosition193, i32 0, i32 0
  %62 = load float, float* %fAzimuth194, align 8
  %mul195 = fmul float 3.000000e+00, %62
  %call196 = call float @cosf(float %mul195) #3
  %63 = load float, float* %fCosElev, align 4
  %call197 = call float @powf(float %63, float 3.000000e+00) #3
  %mul198 = fmul float %call196, %call197
  %conv199 = fpext float %mul198 to double
  %mul200 = fmul double %call192, %conv199
  %m_pfOrderWeights201 = getelementptr inbounds %class.CAmbisonicSource, %class.CAmbisonicSource* %this1, i32 0, i32 2
  %call202 = call dereferenceable(4) float* @_ZNSt6vectorIfSaIfEEixEm(%"class.std::vector.0"* %m_pfOrderWeights201, i64 3) #3
  %64 = load float, float* %call202, align 4
  %conv203 = fpext float %64 to double
  %mul204 = fmul double %mul200, %conv203
  %conv205 = fptrunc double %mul204 to float
  %m_pfCoeff206 = getelementptr inbounds %class.CAmbisonicSource, %class.CAmbisonicSource* %this1, i32 0, i32 1
  %call207 = call dereferenceable(4) float* @_ZNSt6vectorIfSaIfEEixEm(%"class.std::vector.0"* %m_pfCoeff206, i64 15) #3
  store float %conv205, float* %call207, align 4
  br label %if.end208

if.end208:                                        ; preds = %if.then107, %if.end104
  br label %if.end277

if.else:                                          ; preds = %entry
  %65 = bitcast %class.CAmbisonicSource* %this1 to %class.CAmbisonicBase*
  %m_nOrder209 = getelementptr inbounds %class.CAmbisonicBase, %class.CAmbisonicBase* %65, i32 0, i32 1
  %66 = load i32, i32* %m_nOrder209, align 8
  %cmp210 = icmp uge i32 %66, 0
  br i1 %cmp210, label %if.then211, label %if.end216

if.then211:                                       ; preds = %if.else
  %m_pfOrderWeights212 = getelementptr inbounds %class.CAmbisonicSource, %class.CAmbisonicSource* %this1, i32 0, i32 2
  %call213 = call dereferenceable(4) float* @_ZNSt6vectorIfSaIfEEixEm(%"class.std::vector.0"* %m_pfOrderWeights212, i64 0) #3
  %67 = load float, float* %call213, align 4
  %m_pfCoeff214 = getelementptr inbounds %class.CAmbisonicSource, %class.CAmbisonicSource* %this1, i32 0, i32 1
  %call215 = call dereferenceable(4) float* @_ZNSt6vectorIfSaIfEEixEm(%"class.std::vector.0"* %m_pfCoeff214, i64 0) #3
  store float %67, float* %call215, align 4
  br label %if.end216

if.end216:                                        ; preds = %if.then211, %if.else
  %68 = bitcast %class.CAmbisonicSource* %this1 to %class.CAmbisonicBase*
  %m_nOrder217 = getelementptr inbounds %class.CAmbisonicBase, %class.CAmbisonicBase* %68, i32 0, i32 1
  %69 = load i32, i32* %m_nOrder217, align 8
  %cmp218 = icmp uge i32 %69, 1
  br i1 %cmp218, label %if.then219, label %if.end232

if.then219:                                       ; preds = %if.end216
  %70 = load float, float* %fCosAzim, align 4
  %71 = load float, float* %fCosElev, align 4
  %mul220 = fmul float %70, %71
  %m_pfOrderWeights221 = getelementptr inbounds %class.CAmbisonicSource, %class.CAmbisonicSource* %this1, i32 0, i32 2
  %call222 = call dereferenceable(4) float* @_ZNSt6vectorIfSaIfEEixEm(%"class.std::vector.0"* %m_pfOrderWeights221, i64 1) #3
  %72 = load float, float* %call222, align 4
  %mul223 = fmul float %mul220, %72
  %m_pfCoeff224 = getelementptr inbounds %class.CAmbisonicSource, %class.CAmbisonicSource* %this1, i32 0, i32 1
  %call225 = call dereferenceable(4) float* @_ZNSt6vectorIfSaIfEEixEm(%"class.std::vector.0"* %m_pfCoeff224, i64 1) #3
  store float %mul223, float* %call225, align 4
  %73 = load float, float* %fSinAzim, align 4
  %74 = load float, float* %fCosElev, align 4
  %mul226 = fmul float %73, %74
  %m_pfOrderWeights227 = getelementptr inbounds %class.CAmbisonicSource, %class.CAmbisonicSource* %this1, i32 0, i32 2
  %call228 = call dereferenceable(4) float* @_ZNSt6vectorIfSaIfEEixEm(%"class.std::vector.0"* %m_pfOrderWeights227, i64 1) #3
  %75 = load float, float* %call228, align 4
  %mul229 = fmul float %mul226, %75
  %m_pfCoeff230 = getelementptr inbounds %class.CAmbisonicSource, %class.CAmbisonicSource* %this1, i32 0, i32 1
  %call231 = call dereferenceable(4) float* @_ZNSt6vectorIfSaIfEEixEm(%"class.std::vector.0"* %m_pfCoeff230, i64 2) #3
  store float %mul229, float* %call231, align 4
  br label %if.end232

if.end232:                                        ; preds = %if.then219, %if.end216
  %76 = bitcast %class.CAmbisonicSource* %this1 to %class.CAmbisonicBase*
  %m_nOrder233 = getelementptr inbounds %class.CAmbisonicBase, %class.CAmbisonicBase* %76, i32 0, i32 1
  %77 = load i32, i32* %m_nOrder233, align 8
  %cmp234 = icmp uge i32 %77, 2
  br i1 %cmp234, label %if.then235, label %if.end250

if.then235:                                       ; preds = %if.end232
  %78 = load float, float* %fCos2Azim, align 4
  %79 = load float, float* %fCosElev, align 4
  %call236 = call float @powf(float %79, float 2.000000e+00) #3
  %mul237 = fmul float %78, %call236
  %m_pfOrderWeights238 = getelementptr inbounds %class.CAmbisonicSource, %class.CAmbisonicSource* %this1, i32 0, i32 2
  %call239 = call dereferenceable(4) float* @_ZNSt6vectorIfSaIfEEixEm(%"class.std::vector.0"* %m_pfOrderWeights238, i64 2) #3
  %80 = load float, float* %call239, align 4
  %mul240 = fmul float %mul237, %80
  %m_pfCoeff241 = getelementptr inbounds %class.CAmbisonicSource, %class.CAmbisonicSource* %this1, i32 0, i32 1
  %call242 = call dereferenceable(4) float* @_ZNSt6vectorIfSaIfEEixEm(%"class.std::vector.0"* %m_pfCoeff241, i64 3) #3
  store float %mul240, float* %call242, align 4
  %81 = load float, float* %fSin2Azim, align 4
  %82 = load float, float* %fCosElev, align 4
  %call243 = call float @powf(float %82, float 2.000000e+00) #3
  %mul244 = fmul float %81, %call243
  %m_pfOrderWeights245 = getelementptr inbounds %class.CAmbisonicSource, %class.CAmbisonicSource* %this1, i32 0, i32 2
  %call246 = call dereferenceable(4) float* @_ZNSt6vectorIfSaIfEEixEm(%"class.std::vector.0"* %m_pfOrderWeights245, i64 2) #3
  %83 = load float, float* %call246, align 4
  %mul247 = fmul float %mul244, %83
  %m_pfCoeff248 = getelementptr inbounds %class.CAmbisonicSource, %class.CAmbisonicSource* %this1, i32 0, i32 1
  %call249 = call dereferenceable(4) float* @_ZNSt6vectorIfSaIfEEixEm(%"class.std::vector.0"* %m_pfCoeff248, i64 4) #3
  store float %mul247, float* %call249, align 4
  br label %if.end250

if.end250:                                        ; preds = %if.then235, %if.end232
  %84 = bitcast %class.CAmbisonicSource* %this1 to %class.CAmbisonicBase*
  %m_nOrder251 = getelementptr inbounds %class.CAmbisonicBase, %class.CAmbisonicBase* %84, i32 0, i32 1
  %85 = load i32, i32* %m_nOrder251, align 8
  %cmp252 = icmp uge i32 %85, 3
  br i1 %cmp252, label %if.then253, label %if.end276

if.then253:                                       ; preds = %if.end250
  %m_polPosition254 = getelementptr inbounds %class.CAmbisonicSource, %class.CAmbisonicSource* %this1, i32 0, i32 3
  %fAzimuth255 = getelementptr inbounds %struct.PolarPoint, %struct.PolarPoint* %m_polPosition254, i32 0, i32 0
  %86 = load float, float* %fAzimuth255, align 8
  %mul256 = fmul float 3.000000e+00, %86
  %call257 = call float @cosf(float %mul256) #3
  %87 = load float, float* %fCosElev, align 4
  %call258 = call float @powf(float %87, float 3.000000e+00) #3
  %mul259 = fmul float %call257, %call258
  %m_pfOrderWeights260 = getelementptr inbounds %class.CAmbisonicSource, %class.CAmbisonicSource* %this1, i32 0, i32 2
  %call261 = call dereferenceable(4) float* @_ZNSt6vectorIfSaIfEEixEm(%"class.std::vector.0"* %m_pfOrderWeights260, i64 3) #3
  %88 = load float, float* %call261, align 4
  %mul262 = fmul float %mul259, %88
  %m_pfCoeff263 = getelementptr inbounds %class.CAmbisonicSource, %class.CAmbisonicSource* %this1, i32 0, i32 1
  %call264 = call dereferenceable(4) float* @_ZNSt6vectorIfSaIfEEixEm(%"class.std::vector.0"* %m_pfCoeff263, i64 5) #3
  store float %mul262, float* %call264, align 4
  %m_polPosition265 = getelementptr inbounds %class.CAmbisonicSource, %class.CAmbisonicSource* %this1, i32 0, i32 3
  %fAzimuth266 = getelementptr inbounds %struct.PolarPoint, %struct.PolarPoint* %m_polPosition265, i32 0, i32 0
  %89 = load float, float* %fAzimuth266, align 8
  %mul267 = fmul float 3.000000e+00, %89
  %call268 = call float @sinf(float %mul267) #3
  %90 = load float, float* %fCosElev, align 4
  %call269 = call float @powf(float %90, float 3.000000e+00) #3
  %mul270 = fmul float %call268, %call269
  %m_pfOrderWeights271 = getelementptr inbounds %class.CAmbisonicSource, %class.CAmbisonicSource* %this1, i32 0, i32 2
  %call272 = call dereferenceable(4) float* @_ZNSt6vectorIfSaIfEEixEm(%"class.std::vector.0"* %m_pfOrderWeights271, i64 3) #3
  %91 = load float, float* %call272, align 4
  %mul273 = fmul float %mul270, %91
  %m_pfCoeff274 = getelementptr inbounds %class.CAmbisonicSource, %class.CAmbisonicSource* %this1, i32 0, i32 1
  %call275 = call dereferenceable(4) float* @_ZNSt6vectorIfSaIfEEixEm(%"class.std::vector.0"* %m_pfCoeff274, i64 6) #3
  store float %mul273, float* %call275, align 4
  br label %if.end276

if.end276:                                        ; preds = %if.then253, %if.end250
  br label %if.end277

if.end277:                                        ; preds = %if.end276, %if.end208
  store i32 0, i32* %ni, align 4
  br label %for.cond

for.cond:                                         ; preds = %for.inc, %if.end277
  %92 = load i32, i32* %ni, align 4
  %93 = bitcast %class.CAmbisonicSource* %this1 to %class.CAmbisonicBase*
  %m_nChannelCount = getelementptr inbounds %class.CAmbisonicBase, %class.CAmbisonicBase* %93, i32 0, i32 4
  %94 = load i32, i32* %m_nChannelCount, align 8
  %cmp278 = icmp ult i32 %92, %94
  br i1 %cmp278, label %for.body, label %for.end

for.body:                                         ; preds = %for.cond
  %m_fGain = getelementptr inbounds %class.CAmbisonicSource, %class.CAmbisonicSource* %this1, i32 0, i32 4
  %95 = load float, float* %m_fGain, align 4
  %m_pfCoeff279 = getelementptr inbounds %class.CAmbisonicSource, %class.CAmbisonicSource* %this1, i32 0, i32 1
  %96 = load i32, i32* %ni, align 4
  %conv280 = zext i32 %96 to i64
  %call281 = call dereferenceable(4) float* @_ZNSt6vectorIfSaIfEEixEm(%"class.std::vector.0"* %m_pfCoeff279, i64 %conv280) #3
  %97 = load float, float* %call281, align 4
  %mul282 = fmul float %97, %95
  store float %mul282, float* %call281, align 4
  br label %for.inc

for.inc:                                          ; preds = %for.body
  %98 = load i32, i32* %ni, align 4
  %inc = add i32 %98, 1
  store i32 %inc, i32* %ni, align 4
  br label %for.cond

for.end:                                          ; preds = %for.cond
  ret void
}

; Function Attrs: nounwind
declare dso_local float @cosf(float) #2

; Function Attrs: nounwind
declare dso_local float @sinf(float) #2

; Function Attrs: noinline nounwind optnone uwtable
define linkonce_odr dso_local dereferenceable(4) float* @_ZNSt6vectorIfSaIfEEixEm(%"class.std::vector.0"* %this, i64 %__n) #5 comdat align 2 {
entry:
  %this.addr = alloca %"class.std::vector.0"*, align 8
  %__n.addr = alloca i64, align 8
  store %"class.std::vector.0"* %this, %"class.std::vector.0"** %this.addr, align 8
  store i64 %__n, i64* %__n.addr, align 8
  %this1 = load %"class.std::vector.0"*, %"class.std::vector.0"** %this.addr, align 8
  %0 = bitcast %"class.std::vector.0"* %this1 to %"struct.std::_Vector_base.1"*
  %_M_impl = getelementptr inbounds %"struct.std::_Vector_base.1", %"struct.std::_Vector_base.1"* %0, i32 0, i32 0
  %_M_start = getelementptr inbounds %"struct.std::_Vector_base<float, std::allocator<float> >::_Vector_impl", %"struct.std::_Vector_base<float, std::allocator<float> >::_Vector_impl"* %_M_impl, i32 0, i32 0
  %1 = load float*, float** %_M_start, align 8
  %2 = load i64, i64* %__n.addr, align 8
  %add.ptr = getelementptr inbounds float, float* %1, i64 %2
  ret float* %add.ptr
}

; Function Attrs: nounwind
declare dso_local double @sqrt(double) #2

; Function Attrs: nounwind
declare dso_local float @powf(float, float) #2

; Function Attrs: noinline nounwind optnone uwtable
define dso_local void @_ZN16CAmbisonicSource11SetPositionE10PolarPoint(%class.CAmbisonicSource* %this, <2 x float> %polPosition.coerce0, float %polPosition.coerce1) unnamed_addr #6 align 2 {
entry:
  %polPosition = alloca %struct.PolarPoint, align 4
  %coerce = alloca { <2 x float>, float }, align 4
  %this.addr = alloca %class.CAmbisonicSource*, align 8
  %0 = getelementptr inbounds { <2 x float>, float }, { <2 x float>, float }* %coerce, i32 0, i32 0
  store <2 x float> %polPosition.coerce0, <2 x float>* %0, align 4
  %1 = getelementptr inbounds { <2 x float>, float }, { <2 x float>, float }* %coerce, i32 0, i32 1
  store float %polPosition.coerce1, float* %1, align 4
  %2 = bitcast %struct.PolarPoint* %polPosition to i8*
  %3 = bitcast { <2 x float>, float }* %coerce to i8*
  call void @llvm.memcpy.p0i8.p0i8.i64(i8* align 4 %2, i8* align 4 %3, i64 12, i1 false)
  store %class.CAmbisonicSource* %this, %class.CAmbisonicSource** %this.addr, align 8
  %this1 = load %class.CAmbisonicSource*, %class.CAmbisonicSource** %this.addr, align 8
  %m_polPosition = getelementptr inbounds %class.CAmbisonicSource, %class.CAmbisonicSource* %this1, i32 0, i32 3
  %4 = bitcast %struct.PolarPoint* %m_polPosition to i8*
  %5 = bitcast %struct.PolarPoint* %polPosition to i8*
  call void @llvm.memcpy.p0i8.p0i8.i64(i8* align 8 %4, i8* align 4 %5, i64 12, i1 false)
  ret void
}

; Function Attrs: argmemonly nounwind
declare void @llvm.memcpy.p0i8.p0i8.i64(i8* nocapture writeonly, i8* nocapture readonly, i64, i1 immarg) #7

; Function Attrs: noinline nounwind optnone uwtable
define dso_local { <2 x float>, float } @_ZN16CAmbisonicSource11GetPositionEv(%class.CAmbisonicSource* %this) unnamed_addr #5 align 2 {
entry:
  %retval = alloca %struct.PolarPoint, align 4
  %this.addr = alloca %class.CAmbisonicSource*, align 8
  %tmp = alloca { <2 x float>, float }, align 8
  store %class.CAmbisonicSource* %this, %class.CAmbisonicSource** %this.addr, align 8
  %this1 = load %class.CAmbisonicSource*, %class.CAmbisonicSource** %this.addr, align 8
  %m_polPosition = getelementptr inbounds %class.CAmbisonicSource, %class.CAmbisonicSource* %this1, i32 0, i32 3
  %0 = bitcast %struct.PolarPoint* %retval to i8*
  %1 = bitcast %struct.PolarPoint* %m_polPosition to i8*
  call void @llvm.memcpy.p0i8.p0i8.i64(i8* align 4 %0, i8* align 8 %1, i64 12, i1 false)
  %2 = bitcast { <2 x float>, float }* %tmp to i8*
  %3 = bitcast %struct.PolarPoint* %retval to i8*
  call void @llvm.memcpy.p0i8.p0i8.i64(i8* align 8 %2, i8* align 4 %3, i64 12, i1 false)
  %4 = load { <2 x float>, float }, { <2 x float>, float }* %tmp, align 8
  ret { <2 x float>, float } %4
}

; Function Attrs: noinline nounwind optnone uwtable
define dso_local void @_ZN16CAmbisonicSource14SetOrderWeightEjf(%class.CAmbisonicSource* %this, i32 %nOrder, float %fWeight) unnamed_addr #5 align 2 {
entry:
  %this.addr = alloca %class.CAmbisonicSource*, align 8
  %nOrder.addr = alloca i32, align 4
  %fWeight.addr = alloca float, align 4
  store %class.CAmbisonicSource* %this, %class.CAmbisonicSource** %this.addr, align 8
  store i32 %nOrder, i32* %nOrder.addr, align 4
  store float %fWeight, float* %fWeight.addr, align 4
  %this1 = load %class.CAmbisonicSource*, %class.CAmbisonicSource** %this.addr, align 8
  %0 = load float, float* %fWeight.addr, align 4
  %m_pfOrderWeights = getelementptr inbounds %class.CAmbisonicSource, %class.CAmbisonicSource* %this1, i32 0, i32 2
  %1 = load i32, i32* %nOrder.addr, align 4
  %conv = zext i32 %1 to i64
  %call = call dereferenceable(4) float* @_ZNSt6vectorIfSaIfEEixEm(%"class.std::vector.0"* %m_pfOrderWeights, i64 %conv) #3
  store float %0, float* %call, align 4
  ret void
}

; Function Attrs: noinline nounwind optnone uwtable
define dso_local void @_ZN16CAmbisonicSource17SetOrderWeightAllEf(%class.CAmbisonicSource* %this, float %fWeight) unnamed_addr #5 align 2 {
entry:
  %this.addr = alloca %class.CAmbisonicSource*, align 8
  %fWeight.addr = alloca float, align 4
  %niOrder = alloca i32, align 4
  store %class.CAmbisonicSource* %this, %class.CAmbisonicSource** %this.addr, align 8
  store float %fWeight, float* %fWeight.addr, align 4
  %this1 = load %class.CAmbisonicSource*, %class.CAmbisonicSource** %this.addr, align 8
  store i32 0, i32* %niOrder, align 4
  br label %for.cond

for.cond:                                         ; preds = %for.inc, %entry
  %0 = load i32, i32* %niOrder, align 4
  %1 = bitcast %class.CAmbisonicSource* %this1 to %class.CAmbisonicBase*
  %m_nOrder = getelementptr inbounds %class.CAmbisonicBase, %class.CAmbisonicBase* %1, i32 0, i32 1
  %2 = load i32, i32* %m_nOrder, align 8
  %add = add i32 %2, 1
  %cmp = icmp ult i32 %0, %add
  br i1 %cmp, label %for.body, label %for.end

for.body:                                         ; preds = %for.cond
  %3 = load float, float* %fWeight.addr, align 4
  %m_pfOrderWeights = getelementptr inbounds %class.CAmbisonicSource, %class.CAmbisonicSource* %this1, i32 0, i32 2
  %4 = load i32, i32* %niOrder, align 4
  %conv = zext i32 %4 to i64
  %call = call dereferenceable(4) float* @_ZNSt6vectorIfSaIfEEixEm(%"class.std::vector.0"* %m_pfOrderWeights, i64 %conv) #3
  store float %3, float* %call, align 4
  br label %for.inc

for.inc:                                          ; preds = %for.body
  %5 = load i32, i32* %niOrder, align 4
  %inc = add i32 %5, 1
  store i32 %inc, i32* %niOrder, align 4
  br label %for.cond

for.end:                                          ; preds = %for.cond
  ret void
}

; Function Attrs: noinline nounwind optnone uwtable
define dso_local void @_ZN16CAmbisonicSource14SetCoefficientEjf(%class.CAmbisonicSource* %this, i32 %nChannel, float %fCoeff) unnamed_addr #5 align 2 {
entry:
  %this.addr = alloca %class.CAmbisonicSource*, align 8
  %nChannel.addr = alloca i32, align 4
  %fCoeff.addr = alloca float, align 4
  store %class.CAmbisonicSource* %this, %class.CAmbisonicSource** %this.addr, align 8
  store i32 %nChannel, i32* %nChannel.addr, align 4
  store float %fCoeff, float* %fCoeff.addr, align 4
  %this1 = load %class.CAmbisonicSource*, %class.CAmbisonicSource** %this.addr, align 8
  %0 = load float, float* %fCoeff.addr, align 4
  %m_pfCoeff = getelementptr inbounds %class.CAmbisonicSource, %class.CAmbisonicSource* %this1, i32 0, i32 1
  %1 = load i32, i32* %nChannel.addr, align 4
  %conv = zext i32 %1 to i64
  %call = call dereferenceable(4) float* @_ZNSt6vectorIfSaIfEEixEm(%"class.std::vector.0"* %m_pfCoeff, i64 %conv) #3
  store float %0, float* %call, align 4
  ret void
}

; Function Attrs: noinline nounwind optnone uwtable
define dso_local float @_ZN16CAmbisonicSource14GetOrderWeightEj(%class.CAmbisonicSource* %this, i32 %nOrder) unnamed_addr #5 align 2 {
entry:
  %this.addr = alloca %class.CAmbisonicSource*, align 8
  %nOrder.addr = alloca i32, align 4
  store %class.CAmbisonicSource* %this, %class.CAmbisonicSource** %this.addr, align 8
  store i32 %nOrder, i32* %nOrder.addr, align 4
  %this1 = load %class.CAmbisonicSource*, %class.CAmbisonicSource** %this.addr, align 8
  %m_pfOrderWeights = getelementptr inbounds %class.CAmbisonicSource, %class.CAmbisonicSource* %this1, i32 0, i32 2
  %0 = load i32, i32* %nOrder.addr, align 4
  %conv = zext i32 %0 to i64
  %call = call dereferenceable(4) float* @_ZNSt6vectorIfSaIfEEixEm(%"class.std::vector.0"* %m_pfOrderWeights, i64 %conv) #3
  %1 = load float, float* %call, align 4
  ret float %1
}

; Function Attrs: noinline nounwind optnone uwtable
define dso_local float @_ZN16CAmbisonicSource14GetCoefficientEj(%class.CAmbisonicSource* %this, i32 %nChannel) unnamed_addr #5 align 2 {
entry:
  %this.addr = alloca %class.CAmbisonicSource*, align 8
  %nChannel.addr = alloca i32, align 4
  store %class.CAmbisonicSource* %this, %class.CAmbisonicSource** %this.addr, align 8
  store i32 %nChannel, i32* %nChannel.addr, align 4
  %this1 = load %class.CAmbisonicSource*, %class.CAmbisonicSource** %this.addr, align 8
  %m_pfCoeff = getelementptr inbounds %class.CAmbisonicSource, %class.CAmbisonicSource* %this1, i32 0, i32 1
  %0 = load i32, i32* %nChannel.addr, align 4
  %conv = zext i32 %0 to i64
  %call = call dereferenceable(4) float* @_ZNSt6vectorIfSaIfEEixEm(%"class.std::vector.0"* %m_pfCoeff, i64 %conv) #3
  %1 = load float, float* %call, align 4
  ret float %1
}

; Function Attrs: noinline nounwind optnone uwtable
define dso_local void @_ZN16CAmbisonicSource7SetGainEf(%class.CAmbisonicSource* %this, float %fGain) unnamed_addr #5 align 2 {
entry:
  %this.addr = alloca %class.CAmbisonicSource*, align 8
  %fGain.addr = alloca float, align 4
  store %class.CAmbisonicSource* %this, %class.CAmbisonicSource** %this.addr, align 8
  store float %fGain, float* %fGain.addr, align 4
  %this1 = load %class.CAmbisonicSource*, %class.CAmbisonicSource** %this.addr, align 8
  %0 = load float, float* %fGain.addr, align 4
  %m_fGain = getelementptr inbounds %class.CAmbisonicSource, %class.CAmbisonicSource* %this1, i32 0, i32 4
  store float %0, float* %m_fGain, align 4
  ret void
}

; Function Attrs: noinline nounwind optnone uwtable
define dso_local float @_ZN16CAmbisonicSource7GetGainEv(%class.CAmbisonicSource* %this) unnamed_addr #5 align 2 {
entry:
  %this.addr = alloca %class.CAmbisonicSource*, align 8
  store %class.CAmbisonicSource* %this, %class.CAmbisonicSource** %this.addr, align 8
  %this1 = load %class.CAmbisonicSource*, %class.CAmbisonicSource** %this.addr, align 8
  %m_fGain = getelementptr inbounds %class.CAmbisonicSource, %class.CAmbisonicSource* %this1, i32 0, i32 4
  %0 = load float, float* %m_fGain, align 4
  ret float %0
}

; Function Attrs: noinline nounwind optnone uwtable
define dso_local void @_ZN8CBFormatC2Ev(%class.CBFormat* %this) unnamed_addr #5 align 2 {
entry:
  %this.addr = alloca %class.CBFormat*, align 8
  store %class.CBFormat* %this, %class.CBFormat** %this.addr, align 8
  %this1 = load %class.CBFormat*, %class.CBFormat** %this.addr, align 8
  %0 = bitcast %class.CBFormat* %this1 to %class.CAmbisonicBase*
  call void @_ZN14CAmbisonicBaseC2Ev(%class.CAmbisonicBase* %0)
  %1 = bitcast %class.CBFormat* %this1 to i32 (...)***
  store i32 (...)** bitcast (i8** getelementptr inbounds ({ [7 x i8*] }, { [7 x i8*] }* @_ZTV8CBFormat, i32 0, inrange i32 0, i32 2) to i32 (...)**), i32 (...)*** %1, align 8
  %m_pfData = getelementptr inbounds %class.CBFormat, %class.CBFormat* %this1, i32 0, i32 3
  call void @_ZNSt6vectorIfSaIfEEC2Ev(%"class.std::vector.0"* %m_pfData) #3
  %m_ppfChannels = getelementptr inbounds %class.CBFormat, %class.CBFormat* %this1, i32 0, i32 4
  call void @_ZNSt10unique_ptrIA_PfSt14default_deleteIS1_EEC2Ev(%"class.std::unique_ptr"* %m_ppfChannels) #3
  %m_nSamples = getelementptr inbounds %class.CBFormat, %class.CBFormat* %this1, i32 0, i32 1
  store i32 0, i32* %m_nSamples, align 8
  %m_nDataLength = getelementptr inbounds %class.CBFormat, %class.CBFormat* %this1, i32 0, i32 2
  store i32 0, i32* %m_nDataLength, align 4
  ret void
}

; Function Attrs: noinline nounwind optnone uwtable
define linkonce_odr dso_local void @_ZNSt10unique_ptrIA_PfSt14default_deleteIS1_EEC2Ev(%"class.std::unique_ptr"* %this) unnamed_addr #5 comdat align 2 personality i8* bitcast (i32 (...)* @__gxx_personality_v0 to i8*) {
entry:
  %this.addr = alloca %"class.std::unique_ptr"*, align 8
  store %"class.std::unique_ptr"* %this, %"class.std::unique_ptr"** %this.addr, align 8
  %this1 = load %"class.std::unique_ptr"*, %"class.std::unique_ptr"** %this.addr, align 8
  %_M_t = getelementptr inbounds %"class.std::unique_ptr", %"class.std::unique_ptr"* %this1, i32 0, i32 0
  invoke void @_ZNSt5tupleIJPPfSt14default_deleteIA_S0_EEEC2Ev(%"class.std::tuple"* %_M_t)
          to label %invoke.cont unwind label %terminate.lpad

invoke.cont:                                      ; preds = %entry
  ret void

terminate.lpad:                                   ; preds = %entry
  %0 = landingpad { i8*, i32 }
          catch i8* null
  %1 = extractvalue { i8*, i32 } %0, 0
  call void @__clang_call_terminate(i8* %1) #17
  unreachable
}

; Function Attrs: noinline nounwind optnone uwtable
define dso_local i32 @_ZN8CBFormat14GetSampleCountEv(%class.CBFormat* %this) #5 align 2 {
entry:
  %this.addr = alloca %class.CBFormat*, align 8
  store %class.CBFormat* %this, %class.CBFormat** %this.addr, align 8
  %this1 = load %class.CBFormat*, %class.CBFormat** %this.addr, align 8
  %m_nSamples = getelementptr inbounds %class.CBFormat, %class.CBFormat* %this1, i32 0, i32 1
  %0 = load i32, i32* %m_nSamples, align 8
  ret i32 %0
}

; Function Attrs: noinline optnone uwtable
define dso_local zeroext i1 @_ZN8CBFormat9ConfigureEjbj(%class.CBFormat* %this, i32 %nOrder, i1 zeroext %b3D, i32 %nSampleCount) unnamed_addr #4 align 2 {
entry:
  %retval = alloca i1, align 1
  %this.addr = alloca %class.CBFormat*, align 8
  %nOrder.addr = alloca i32, align 4
  %b3D.addr = alloca i8, align 1
  %nSampleCount.addr = alloca i32, align 4
  %success = alloca i8, align 1
  %niChannel = alloca i32, align 4
  store %class.CBFormat* %this, %class.CBFormat** %this.addr, align 8
  store i32 %nOrder, i32* %nOrder.addr, align 4
  %frombool = zext i1 %b3D to i8
  store i8 %frombool, i8* %b3D.addr, align 1
  store i32 %nSampleCount, i32* %nSampleCount.addr, align 4
  %this1 = load %class.CBFormat*, %class.CBFormat** %this.addr, align 8
  %0 = bitcast %class.CBFormat* %this1 to %class.CAmbisonicBase*
  %1 = load i32, i32* %nOrder.addr, align 4
  %2 = load i8, i8* %b3D.addr, align 1
  %tobool = trunc i8 %2 to i1
  %3 = load i32, i32* %nSampleCount.addr, align 4
  %call = call zeroext i1 @_ZN14CAmbisonicBase9ConfigureEjbj(%class.CAmbisonicBase* %0, i32 %1, i1 zeroext %tobool, i32 %3)
  %frombool2 = zext i1 %call to i8
  store i8 %frombool2, i8* %success, align 1
  %4 = load i8, i8* %success, align 1
  %tobool3 = trunc i8 %4 to i1
  br i1 %tobool3, label %if.end, label %if.then

if.then:                                          ; preds = %entry
  store i1 false, i1* %retval, align 1
  br label %return

if.end:                                           ; preds = %entry
  %5 = load i32, i32* %nSampleCount.addr, align 4
  %m_nSamples = getelementptr inbounds %class.CBFormat, %class.CBFormat* %this1, i32 0, i32 1
  store i32 %5, i32* %m_nSamples, align 8
  %m_nSamples4 = getelementptr inbounds %class.CBFormat, %class.CBFormat* %this1, i32 0, i32 1
  %6 = load i32, i32* %m_nSamples4, align 8
  %7 = bitcast %class.CBFormat* %this1 to %class.CAmbisonicBase*
  %m_nChannelCount = getelementptr inbounds %class.CAmbisonicBase, %class.CAmbisonicBase* %7, i32 0, i32 4
  %8 = load i32, i32* %m_nChannelCount, align 8
  %mul = mul i32 %6, %8
  %m_nDataLength = getelementptr inbounds %class.CBFormat, %class.CBFormat* %this1, i32 0, i32 2
  store i32 %mul, i32* %m_nDataLength, align 4
  %m_pfData = getelementptr inbounds %class.CBFormat, %class.CBFormat* %this1, i32 0, i32 3
  %m_nDataLength5 = getelementptr inbounds %class.CBFormat, %class.CBFormat* %this1, i32 0, i32 2
  %9 = load i32, i32* %m_nDataLength5, align 4
  %conv = zext i32 %9 to i64
  call void @_ZNSt6vectorIfSaIfEE6resizeEm(%"class.std::vector.0"* %m_pfData, i64 %conv)
  %m_pfData6 = getelementptr inbounds %class.CBFormat, %class.CBFormat* %this1, i32 0, i32 3
  %call7 = call float* @_ZNSt6vectorIfSaIfEE4dataEv(%"class.std::vector.0"* %m_pfData6) #3
  %10 = bitcast float* %call7 to i8*
  %m_nDataLength8 = getelementptr inbounds %class.CBFormat, %class.CBFormat* %this1, i32 0, i32 2
  %11 = load i32, i32* %m_nDataLength8, align 4
  %conv9 = zext i32 %11 to i64
  %mul10 = mul i64 %conv9, 4
  call void @llvm.memset.p0i8.i64(i8* align 4 %10, i8 0, i64 %mul10, i1 false)
  %m_ppfChannels = getelementptr inbounds %class.CBFormat, %class.CBFormat* %this1, i32 0, i32 4
  %12 = bitcast %class.CBFormat* %this1 to %class.CAmbisonicBase*
  %m_nChannelCount11 = getelementptr inbounds %class.CAmbisonicBase, %class.CAmbisonicBase* %12, i32 0, i32 4
  %13 = load i32, i32* %m_nChannelCount11, align 8
  %conv12 = zext i32 %13 to i64
  %14 = call { i64, i1 } @llvm.umul.with.overflow.i64(i64 %conv12, i64 8)
  %15 = extractvalue { i64, i1 } %14, 1
  %16 = extractvalue { i64, i1 } %14, 0
  %17 = select i1 %15, i64 -1, i64 %16
  %call13 = call i8* @_Znam(i64 %17) #18
  %18 = bitcast i8* %call13 to float**
  call void @_ZNSt10unique_ptrIA_PfSt14default_deleteIS1_EE5resetEPS0_(%"class.std::unique_ptr"* %m_ppfChannels, float** %18) #3
  store i32 0, i32* %niChannel, align 4
  br label %for.cond

for.cond:                                         ; preds = %for.inc, %if.end
  %19 = load i32, i32* %niChannel, align 4
  %20 = bitcast %class.CBFormat* %this1 to %class.CAmbisonicBase*
  %m_nChannelCount14 = getelementptr inbounds %class.CAmbisonicBase, %class.CAmbisonicBase* %20, i32 0, i32 4
  %21 = load i32, i32* %m_nChannelCount14, align 8
  %cmp = icmp ult i32 %19, %21
  br i1 %cmp, label %for.body, label %for.end

for.body:                                         ; preds = %for.cond
  %m_pfData15 = getelementptr inbounds %class.CBFormat, %class.CBFormat* %this1, i32 0, i32 3
  %22 = load i32, i32* %niChannel, align 4
  %m_nSamples16 = getelementptr inbounds %class.CBFormat, %class.CBFormat* %this1, i32 0, i32 1
  %23 = load i32, i32* %m_nSamples16, align 8
  %mul17 = mul i32 %22, %23
  %conv18 = zext i32 %mul17 to i64
  %call19 = call dereferenceable(4) float* @_ZNSt6vectorIfSaIfEEixEm(%"class.std::vector.0"* %m_pfData15, i64 %conv18) #3
  %m_ppfChannels20 = getelementptr inbounds %class.CBFormat, %class.CBFormat* %this1, i32 0, i32 4
  %24 = load i32, i32* %niChannel, align 4
  %conv21 = zext i32 %24 to i64
  %call22 = call dereferenceable(8) float** @_ZNKSt10unique_ptrIA_PfSt14default_deleteIS1_EEixEm(%"class.std::unique_ptr"* %m_ppfChannels20, i64 %conv21)
  store float* %call19, float** %call22, align 8
  br label %for.inc

for.inc:                                          ; preds = %for.body
  %25 = load i32, i32* %niChannel, align 4
  %inc = add i32 %25, 1
  store i32 %inc, i32* %niChannel, align 4
  br label %for.cond

for.end:                                          ; preds = %for.cond
  store i1 true, i1* %retval, align 1
  br label %return

return:                                           ; preds = %for.end, %if.then
  %26 = load i1, i1* %retval, align 1
  ret i1 %26
}

; Function Attrs: noinline optnone uwtable
define linkonce_odr dso_local void @_ZNSt6vectorIfSaIfEE6resizeEm(%"class.std::vector.0"* %this, i64 %__new_size) #4 comdat align 2 {
entry:
  %this.addr = alloca %"class.std::vector.0"*, align 8
  %__new_size.addr = alloca i64, align 8
  store %"class.std::vector.0"* %this, %"class.std::vector.0"** %this.addr, align 8
  store i64 %__new_size, i64* %__new_size.addr, align 8
  %this1 = load %"class.std::vector.0"*, %"class.std::vector.0"** %this.addr, align 8
  %0 = load i64, i64* %__new_size.addr, align 8
  %call = call i64 @_ZNKSt6vectorIfSaIfEE4sizeEv(%"class.std::vector.0"* %this1) #3
  %cmp = icmp ugt i64 %0, %call
  br i1 %cmp, label %if.then, label %if.else

if.then:                                          ; preds = %entry
  %1 = load i64, i64* %__new_size.addr, align 8
  %call2 = call i64 @_ZNKSt6vectorIfSaIfEE4sizeEv(%"class.std::vector.0"* %this1) #3
  %sub = sub i64 %1, %call2
  call void @_ZNSt6vectorIfSaIfEE17_M_default_appendEm(%"class.std::vector.0"* %this1, i64 %sub)
  br label %if.end6

if.else:                                          ; preds = %entry
  %2 = load i64, i64* %__new_size.addr, align 8
  %call3 = call i64 @_ZNKSt6vectorIfSaIfEE4sizeEv(%"class.std::vector.0"* %this1) #3
  %cmp4 = icmp ult i64 %2, %call3
  br i1 %cmp4, label %if.then5, label %if.end

if.then5:                                         ; preds = %if.else
  %3 = bitcast %"class.std::vector.0"* %this1 to %"struct.std::_Vector_base.1"*
  %_M_impl = getelementptr inbounds %"struct.std::_Vector_base.1", %"struct.std::_Vector_base.1"* %3, i32 0, i32 0
  %_M_start = getelementptr inbounds %"struct.std::_Vector_base<float, std::allocator<float> >::_Vector_impl", %"struct.std::_Vector_base<float, std::allocator<float> >::_Vector_impl"* %_M_impl, i32 0, i32 0
  %4 = load float*, float** %_M_start, align 8
  %5 = load i64, i64* %__new_size.addr, align 8
  %add.ptr = getelementptr inbounds float, float* %4, i64 %5
  call void @_ZNSt6vectorIfSaIfEE15_M_erase_at_endEPf(%"class.std::vector.0"* %this1, float* %add.ptr) #3
  br label %if.end

if.end:                                           ; preds = %if.then5, %if.else
  br label %if.end6

if.end6:                                          ; preds = %if.end, %if.then
  ret void
}

; Function Attrs: noinline nounwind optnone uwtable
define linkonce_odr dso_local float* @_ZNSt6vectorIfSaIfEE4dataEv(%"class.std::vector.0"* %this) #5 comdat align 2 personality i8* bitcast (i32 (...)* @__gxx_personality_v0 to i8*) {
entry:
  %this.addr = alloca %"class.std::vector.0"*, align 8
  store %"class.std::vector.0"* %this, %"class.std::vector.0"** %this.addr, align 8
  %this1 = load %"class.std::vector.0"*, %"class.std::vector.0"** %this.addr, align 8
  %0 = bitcast %"class.std::vector.0"* %this1 to %"struct.std::_Vector_base.1"*
  %_M_impl = getelementptr inbounds %"struct.std::_Vector_base.1", %"struct.std::_Vector_base.1"* %0, i32 0, i32 0
  %_M_start = getelementptr inbounds %"struct.std::_Vector_base<float, std::allocator<float> >::_Vector_impl", %"struct.std::_Vector_base<float, std::allocator<float> >::_Vector_impl"* %_M_impl, i32 0, i32 0
  %1 = load float*, float** %_M_start, align 8
  %call = invoke float* @_ZNKSt6vectorIfSaIfEE11_M_data_ptrIfEEPT_S4_(%"class.std::vector.0"* %this1, float* %1)
          to label %invoke.cont unwind label %terminate.lpad

invoke.cont:                                      ; preds = %entry
  ret float* %call

terminate.lpad:                                   ; preds = %entry
  %2 = landingpad { i8*, i32 }
          catch i8* null
  %3 = extractvalue { i8*, i32 } %2, 0
  call void @__clang_call_terminate(i8* %3) #17
  unreachable
}

; Function Attrs: argmemonly nounwind
declare void @llvm.memset.p0i8.i64(i8* nocapture writeonly, i8, i64, i1 immarg) #7

; Function Attrs: noinline nounwind optnone uwtable
define linkonce_odr dso_local void @_ZNSt10unique_ptrIA_PfSt14default_deleteIS1_EE5resetEPS0_(%"class.std::unique_ptr"* %this, float** %__p) #5 comdat align 2 personality i8* bitcast (i32 (...)* @__gxx_personality_v0 to i8*) {
entry:
  %this.addr = alloca %"class.std::unique_ptr"*, align 8
  %__p.addr = alloca float**, align 8
  store %"class.std::unique_ptr"* %this, %"class.std::unique_ptr"** %this.addr, align 8
  store float** %__p, float*** %__p.addr, align 8
  %this1 = load %"class.std::unique_ptr"*, %"class.std::unique_ptr"** %this.addr, align 8
  %_M_t = getelementptr inbounds %"class.std::unique_ptr", %"class.std::unique_ptr"* %this1, i32 0, i32 0
  %call = call dereferenceable(8) float*** @_ZSt3getILm0EJPPfSt14default_deleteIA_S0_EEERNSt13tuple_elementIXT_ESt5tupleIJDpT0_EEE4typeERS9_(%"class.std::tuple"* dereferenceable(8) %_M_t) #3
  call void @_ZSt4swapIPPfEvRT_S3_(float*** dereferenceable(8) %call, float*** dereferenceable(8) %__p.addr) #3
  %0 = load float**, float*** %__p.addr, align 8
  %cmp = icmp ne float** %0, null
  br i1 %cmp, label %if.then, label %if.end

if.then:                                          ; preds = %entry
  %call2 = call dereferenceable(1) %"struct.std::default_delete"* @_ZNSt10unique_ptrIA_PfSt14default_deleteIS1_EE11get_deleterEv(%"class.std::unique_ptr"* %this1) #3
  %1 = load float**, float*** %__p.addr, align 8
  invoke void @_ZNKSt14default_deleteIA_PfEclEPS0_(%"struct.std::default_delete"* %call2, float** %1)
          to label %invoke.cont unwind label %terminate.lpad

invoke.cont:                                      ; preds = %if.then
  br label %if.end

if.end:                                           ; preds = %invoke.cont, %entry
  ret void

terminate.lpad:                                   ; preds = %if.then
  %2 = landingpad { i8*, i32 }
          catch i8* null
  %3 = extractvalue { i8*, i32 } %2, 0
  call void @__clang_call_terminate(i8* %3) #17
  unreachable
}

; Function Attrs: nounwind readnone speculatable
declare { i64, i1 } @llvm.umul.with.overflow.i64(i64, i64) #8

; Function Attrs: nobuiltin
declare dso_local noalias i8* @_Znam(i64) #9

; Function Attrs: noinline nounwind optnone uwtable
define linkonce_odr dso_local dereferenceable(8) float** @_ZNKSt10unique_ptrIA_PfSt14default_deleteIS1_EEixEm(%"class.std::unique_ptr"* %this, i64 %__i) #5 comdat align 2 {
entry:
  %this.addr = alloca %"class.std::unique_ptr"*, align 8
  %__i.addr = alloca i64, align 8
  store %"class.std::unique_ptr"* %this, %"class.std::unique_ptr"** %this.addr, align 8
  store i64 %__i, i64* %__i.addr, align 8
  %this1 = load %"class.std::unique_ptr"*, %"class.std::unique_ptr"** %this.addr, align 8
  %call = call float** @_ZNKSt10unique_ptrIA_PfSt14default_deleteIS1_EE3getEv(%"class.std::unique_ptr"* %this1) #3
  %0 = load i64, i64* %__i.addr, align 8
  %arrayidx = getelementptr inbounds float*, float** %call, i64 %0
  ret float** %arrayidx
}

; Function Attrs: noinline nounwind optnone uwtable
define dso_local void @_ZN8CBFormat5ResetEv(%class.CBFormat* %this) unnamed_addr #5 align 2 {
entry:
  %this.addr = alloca %class.CBFormat*, align 8
  store %class.CBFormat* %this, %class.CBFormat** %this.addr, align 8
  %this1 = load %class.CBFormat*, %class.CBFormat** %this.addr, align 8
  %m_pfData = getelementptr inbounds %class.CBFormat, %class.CBFormat* %this1, i32 0, i32 3
  %call = call float* @_ZNSt6vectorIfSaIfEE4dataEv(%"class.std::vector.0"* %m_pfData) #3
  %0 = bitcast float* %call to i8*
  %m_nDataLength = getelementptr inbounds %class.CBFormat, %class.CBFormat* %this1, i32 0, i32 2
  %1 = load i32, i32* %m_nDataLength, align 4
  %conv = zext i32 %1 to i64
  %mul = mul i64 %conv, 4
  call void @llvm.memset.p0i8.i64(i8* align 4 %0, i8 0, i64 %mul, i1 false)
  ret void
}

; Function Attrs: noinline nounwind optnone uwtable
define dso_local void @_ZN8CBFormat7RefreshEv(%class.CBFormat* %this) unnamed_addr #5 align 2 {
entry:
  %this.addr = alloca %class.CBFormat*, align 8
  store %class.CBFormat* %this, %class.CBFormat** %this.addr, align 8
  %this1 = load %class.CBFormat*, %class.CBFormat** %this.addr, align 8
  ret void
}

; Function Attrs: noinline optnone uwtable
define dso_local void @_ZN8CBFormat12InsertStreamEPfjj(%class.CBFormat* %this, float* %pfData, i32 %nChannel, i32 %nSamples) #4 align 2 {
entry:
  %this.addr = alloca %class.CBFormat*, align 8
  %pfData.addr = alloca float*, align 8
  %nChannel.addr = alloca i32, align 4
  %nSamples.addr = alloca i32, align 4
  store %class.CBFormat* %this, %class.CBFormat** %this.addr, align 8
  store float* %pfData, float** %pfData.addr, align 8
  store i32 %nChannel, i32* %nChannel.addr, align 4
  store i32 %nSamples, i32* %nSamples.addr, align 4
  %this1 = load %class.CBFormat*, %class.CBFormat** %this.addr, align 8
  %m_ppfChannels = getelementptr inbounds %class.CBFormat, %class.CBFormat* %this1, i32 0, i32 4
  %0 = load i32, i32* %nChannel.addr, align 4
  %conv = zext i32 %0 to i64
  %call = call dereferenceable(8) float** @_ZNKSt10unique_ptrIA_PfSt14default_deleteIS1_EEixEm(%"class.std::unique_ptr"* %m_ppfChannels, i64 %conv)
  %1 = load float*, float** %call, align 8
  %2 = bitcast float* %1 to i8*
  %3 = load float*, float** %pfData.addr, align 8
  %4 = bitcast float* %3 to i8*
  %5 = load i32, i32* %nSamples.addr, align 4
  %conv2 = zext i32 %5 to i64
  %mul = mul i64 %conv2, 4
  call void @llvm.memcpy.p0i8.p0i8.i64(i8* align 4 %2, i8* align 4 %4, i64 %mul, i1 false)
  ret void
}

; Function Attrs: noinline optnone uwtable
define dso_local void @_ZN8CBFormat13ExtractStreamEPfjj(%class.CBFormat* %this, float* %pfData, i32 %nChannel, i32 %nSamples) #4 align 2 {
entry:
  %this.addr = alloca %class.CBFormat*, align 8
  %pfData.addr = alloca float*, align 8
  %nChannel.addr = alloca i32, align 4
  %nSamples.addr = alloca i32, align 4
  store %class.CBFormat* %this, %class.CBFormat** %this.addr, align 8
  store float* %pfData, float** %pfData.addr, align 8
  store i32 %nChannel, i32* %nChannel.addr, align 4
  store i32 %nSamples, i32* %nSamples.addr, align 4
  %this1 = load %class.CBFormat*, %class.CBFormat** %this.addr, align 8
  %0 = load float*, float** %pfData.addr, align 8
  %1 = bitcast float* %0 to i8*
  %m_ppfChannels = getelementptr inbounds %class.CBFormat, %class.CBFormat* %this1, i32 0, i32 4
  %2 = load i32, i32* %nChannel.addr, align 4
  %conv = zext i32 %2 to i64
  %call = call dereferenceable(8) float** @_ZNKSt10unique_ptrIA_PfSt14default_deleteIS1_EEixEm(%"class.std::unique_ptr"* %m_ppfChannels, i64 %conv)
  %3 = load float*, float** %call, align 8
  %4 = bitcast float* %3 to i8*
  %5 = load i32, i32* %nSamples.addr, align 4
  %conv2 = zext i32 %5 to i64
  %mul = mul i64 %conv2, 4
  call void @llvm.memcpy.p0i8.p0i8.i64(i8* align 4 %1, i8* align 4 %4, i64 %mul, i1 false)
  ret void
}

; Function Attrs: noinline nounwind optnone uwtable
define dso_local void @_ZN8CBFormataSERKS_(%class.CBFormat* %this, %class.CBFormat* dereferenceable(64) %bf) #5 align 2 {
entry:
  %this.addr = alloca %class.CBFormat*, align 8
  %bf.addr = alloca %class.CBFormat*, align 8
  store %class.CBFormat* %this, %class.CBFormat** %this.addr, align 8
  store %class.CBFormat* %bf, %class.CBFormat** %bf.addr, align 8
  %this1 = load %class.CBFormat*, %class.CBFormat** %this.addr, align 8
  %m_pfData = getelementptr inbounds %class.CBFormat, %class.CBFormat* %this1, i32 0, i32 3
  %call = call float* @_ZNSt6vectorIfSaIfEE4dataEv(%"class.std::vector.0"* %m_pfData) #3
  %0 = bitcast float* %call to i8*
  %1 = load %class.CBFormat*, %class.CBFormat** %bf.addr, align 8
  %m_pfData2 = getelementptr inbounds %class.CBFormat, %class.CBFormat* %1, i32 0, i32 3
  %call3 = call float* @_ZNKSt6vectorIfSaIfEE4dataEv(%"class.std::vector.0"* %m_pfData2) #3
  %2 = bitcast float* %call3 to i8*
  %m_nDataLength = getelementptr inbounds %class.CBFormat, %class.CBFormat* %this1, i32 0, i32 2
  %3 = load i32, i32* %m_nDataLength, align 4
  %conv = zext i32 %3 to i64
  %mul = mul i64 %conv, 4
  call void @llvm.memcpy.p0i8.p0i8.i64(i8* align 4 %0, i8* align 4 %2, i64 %mul, i1 false)
  ret void
}

; Function Attrs: noinline nounwind optnone uwtable
define linkonce_odr dso_local float* @_ZNKSt6vectorIfSaIfEE4dataEv(%"class.std::vector.0"* %this) #5 comdat align 2 personality i8* bitcast (i32 (...)* @__gxx_personality_v0 to i8*) {
entry:
  %this.addr = alloca %"class.std::vector.0"*, align 8
  store %"class.std::vector.0"* %this, %"class.std::vector.0"** %this.addr, align 8
  %this1 = load %"class.std::vector.0"*, %"class.std::vector.0"** %this.addr, align 8
  %0 = bitcast %"class.std::vector.0"* %this1 to %"struct.std::_Vector_base.1"*
  %_M_impl = getelementptr inbounds %"struct.std::_Vector_base.1", %"struct.std::_Vector_base.1"* %0, i32 0, i32 0
  %_M_start = getelementptr inbounds %"struct.std::_Vector_base<float, std::allocator<float> >::_Vector_impl", %"struct.std::_Vector_base<float, std::allocator<float> >::_Vector_impl"* %_M_impl, i32 0, i32 0
  %1 = load float*, float** %_M_start, align 8
  %call = invoke float* @_ZNKSt6vectorIfSaIfEE11_M_data_ptrIfEEPT_S4_(%"class.std::vector.0"* %this1, float* %1)
          to label %invoke.cont unwind label %terminate.lpad

invoke.cont:                                      ; preds = %entry
  ret float* %call

terminate.lpad:                                   ; preds = %entry
  %2 = landingpad { i8*, i32 }
          catch i8* null
  %3 = extractvalue { i8*, i32 } %2, 0
  call void @__clang_call_terminate(i8* %3) #17
  unreachable
}

; Function Attrs: noinline nounwind optnone uwtable
define dso_local zeroext i1 @_ZN8CBFormateqERKS_(%class.CBFormat* %this, %class.CBFormat* dereferenceable(64) %bf) #5 align 2 {
entry:
  %retval = alloca i1, align 1
  %this.addr = alloca %class.CBFormat*, align 8
  %bf.addr = alloca %class.CBFormat*, align 8
  store %class.CBFormat* %this, %class.CBFormat** %this.addr, align 8
  store %class.CBFormat* %bf, %class.CBFormat** %bf.addr, align 8
  %this1 = load %class.CBFormat*, %class.CBFormat** %this.addr, align 8
  %0 = bitcast %class.CBFormat* %this1 to %class.CAmbisonicBase*
  %m_b3D = getelementptr inbounds %class.CAmbisonicBase, %class.CAmbisonicBase* %0, i32 0, i32 2
  %1 = load i8, i8* %m_b3D, align 4
  %tobool = trunc i8 %1 to i1
  %conv = zext i1 %tobool to i32
  %2 = load %class.CBFormat*, %class.CBFormat** %bf.addr, align 8
  %3 = bitcast %class.CBFormat* %2 to %class.CAmbisonicBase*
  %m_b3D2 = getelementptr inbounds %class.CAmbisonicBase, %class.CAmbisonicBase* %3, i32 0, i32 2
  %4 = load i8, i8* %m_b3D2, align 4
  %tobool3 = trunc i8 %4 to i1
  %conv4 = zext i1 %tobool3 to i32
  %cmp = icmp eq i32 %conv, %conv4
  br i1 %cmp, label %land.lhs.true, label %if.else

land.lhs.true:                                    ; preds = %entry
  %5 = bitcast %class.CBFormat* %this1 to %class.CAmbisonicBase*
  %m_nOrder = getelementptr inbounds %class.CAmbisonicBase, %class.CAmbisonicBase* %5, i32 0, i32 1
  %6 = load i32, i32* %m_nOrder, align 8
  %7 = load %class.CBFormat*, %class.CBFormat** %bf.addr, align 8
  %8 = bitcast %class.CBFormat* %7 to %class.CAmbisonicBase*
  %m_nOrder5 = getelementptr inbounds %class.CAmbisonicBase, %class.CAmbisonicBase* %8, i32 0, i32 1
  %9 = load i32, i32* %m_nOrder5, align 8
  %cmp6 = icmp eq i32 %6, %9
  br i1 %cmp6, label %land.lhs.true7, label %if.else

land.lhs.true7:                                   ; preds = %land.lhs.true
  %m_nDataLength = getelementptr inbounds %class.CBFormat, %class.CBFormat* %this1, i32 0, i32 2
  %10 = load i32, i32* %m_nDataLength, align 4
  %11 = load %class.CBFormat*, %class.CBFormat** %bf.addr, align 8
  %m_nDataLength8 = getelementptr inbounds %class.CBFormat, %class.CBFormat* %11, i32 0, i32 2
  %12 = load i32, i32* %m_nDataLength8, align 4
  %cmp9 = icmp eq i32 %10, %12
  br i1 %cmp9, label %if.then, label %if.else

if.then:                                          ; preds = %land.lhs.true7
  store i1 true, i1* %retval, align 1
  br label %return

if.else:                                          ; preds = %land.lhs.true7, %land.lhs.true, %entry
  store i1 false, i1* %retval, align 1
  br label %return

return:                                           ; preds = %if.else, %if.then
  %13 = load i1, i1* %retval, align 1
  ret i1 %13
}

; Function Attrs: noinline nounwind optnone uwtable
define dso_local zeroext i1 @_ZN8CBFormatneERKS_(%class.CBFormat* %this, %class.CBFormat* dereferenceable(64) %bf) #5 align 2 {
entry:
  %retval = alloca i1, align 1
  %this.addr = alloca %class.CBFormat*, align 8
  %bf.addr = alloca %class.CBFormat*, align 8
  store %class.CBFormat* %this, %class.CBFormat** %this.addr, align 8
  store %class.CBFormat* %bf, %class.CBFormat** %bf.addr, align 8
  %this1 = load %class.CBFormat*, %class.CBFormat** %this.addr, align 8
  %0 = bitcast %class.CBFormat* %this1 to %class.CAmbisonicBase*
  %m_b3D = getelementptr inbounds %class.CAmbisonicBase, %class.CAmbisonicBase* %0, i32 0, i32 2
  %1 = load i8, i8* %m_b3D, align 4
  %tobool = trunc i8 %1 to i1
  %conv = zext i1 %tobool to i32
  %2 = load %class.CBFormat*, %class.CBFormat** %bf.addr, align 8
  %3 = bitcast %class.CBFormat* %2 to %class.CAmbisonicBase*
  %m_b3D2 = getelementptr inbounds %class.CAmbisonicBase, %class.CAmbisonicBase* %3, i32 0, i32 2
  %4 = load i8, i8* %m_b3D2, align 4
  %tobool3 = trunc i8 %4 to i1
  %conv4 = zext i1 %tobool3 to i32
  %cmp = icmp ne i32 %conv, %conv4
  br i1 %cmp, label %if.then, label %lor.lhs.false

lor.lhs.false:                                    ; preds = %entry
  %5 = bitcast %class.CBFormat* %this1 to %class.CAmbisonicBase*
  %m_nOrder = getelementptr inbounds %class.CAmbisonicBase, %class.CAmbisonicBase* %5, i32 0, i32 1
  %6 = load i32, i32* %m_nOrder, align 8
  %7 = load %class.CBFormat*, %class.CBFormat** %bf.addr, align 8
  %8 = bitcast %class.CBFormat* %7 to %class.CAmbisonicBase*
  %m_nOrder5 = getelementptr inbounds %class.CAmbisonicBase, %class.CAmbisonicBase* %8, i32 0, i32 1
  %9 = load i32, i32* %m_nOrder5, align 8
  %cmp6 = icmp ne i32 %6, %9
  br i1 %cmp6, label %if.then, label %lor.lhs.false7

lor.lhs.false7:                                   ; preds = %lor.lhs.false
  %m_nDataLength = getelementptr inbounds %class.CBFormat, %class.CBFormat* %this1, i32 0, i32 2
  %10 = load i32, i32* %m_nDataLength, align 4
  %11 = load %class.CBFormat*, %class.CBFormat** %bf.addr, align 8
  %m_nDataLength8 = getelementptr inbounds %class.CBFormat, %class.CBFormat* %11, i32 0, i32 2
  %12 = load i32, i32* %m_nDataLength8, align 4
  %cmp9 = icmp ne i32 %10, %12
  br i1 %cmp9, label %if.then, label %if.else

if.then:                                          ; preds = %lor.lhs.false7, %lor.lhs.false, %entry
  store i1 true, i1* %retval, align 1
  br label %return

if.else:                                          ; preds = %lor.lhs.false7
  store i1 false, i1* %retval, align 1
  br label %return

return:                                           ; preds = %if.else, %if.then
  %13 = load i1, i1* %retval, align 1
  ret i1 %13
}

; Function Attrs: noinline optnone uwtable
define dso_local dereferenceable(64) %class.CBFormat* @_ZN8CBFormatpLERKS_(%class.CBFormat* %this, %class.CBFormat* dereferenceable(64) %bf) #4 align 2 {
entry:
  %this.addr = alloca %class.CBFormat*, align 8
  %bf.addr = alloca %class.CBFormat*, align 8
  %niChannel = alloca i32, align 4
  %niSample = alloca i32, align 4
  store %class.CBFormat* %this, %class.CBFormat** %this.addr, align 8
  store %class.CBFormat* %bf, %class.CBFormat** %bf.addr, align 8
  %this1 = load %class.CBFormat*, %class.CBFormat** %this.addr, align 8
  store i32 0, i32* %niChannel, align 4
  store i32 0, i32* %niSample, align 4
  store i32 0, i32* %niChannel, align 4
  br label %for.cond

for.cond:                                         ; preds = %for.inc10, %entry
  %0 = load i32, i32* %niChannel, align 4
  %1 = bitcast %class.CBFormat* %this1 to %class.CAmbisonicBase*
  %m_nChannelCount = getelementptr inbounds %class.CAmbisonicBase, %class.CAmbisonicBase* %1, i32 0, i32 4
  %2 = load i32, i32* %m_nChannelCount, align 8
  %cmp = icmp ult i32 %0, %2
  br i1 %cmp, label %for.body, label %for.end12

for.body:                                         ; preds = %for.cond
  store i32 0, i32* %niSample, align 4
  br label %for.cond2

for.cond2:                                        ; preds = %for.inc, %for.body
  %3 = load i32, i32* %niSample, align 4
  %m_nSamples = getelementptr inbounds %class.CBFormat, %class.CBFormat* %this1, i32 0, i32 1
  %4 = load i32, i32* %m_nSamples, align 8
  %cmp3 = icmp ult i32 %3, %4
  br i1 %cmp3, label %for.body4, label %for.end

for.body4:                                        ; preds = %for.cond2
  %5 = load %class.CBFormat*, %class.CBFormat** %bf.addr, align 8
  %m_ppfChannels = getelementptr inbounds %class.CBFormat, %class.CBFormat* %5, i32 0, i32 4
  %6 = load i32, i32* %niChannel, align 4
  %conv = zext i32 %6 to i64
  %call = call dereferenceable(8) float** @_ZNKSt10unique_ptrIA_PfSt14default_deleteIS1_EEixEm(%"class.std::unique_ptr"* %m_ppfChannels, i64 %conv)
  %7 = load float*, float** %call, align 8
  %8 = load i32, i32* %niSample, align 4
  %idxprom = zext i32 %8 to i64
  %arrayidx = getelementptr inbounds float, float* %7, i64 %idxprom
  %9 = load float, float* %arrayidx, align 4
  %m_ppfChannels5 = getelementptr inbounds %class.CBFormat, %class.CBFormat* %this1, i32 0, i32 4
  %10 = load i32, i32* %niChannel, align 4
  %conv6 = zext i32 %10 to i64
  %call7 = call dereferenceable(8) float** @_ZNKSt10unique_ptrIA_PfSt14default_deleteIS1_EEixEm(%"class.std::unique_ptr"* %m_ppfChannels5, i64 %conv6)
  %11 = load float*, float** %call7, align 8
  %12 = load i32, i32* %niSample, align 4
  %idxprom8 = zext i32 %12 to i64
  %arrayidx9 = getelementptr inbounds float, float* %11, i64 %idxprom8
  %13 = load float, float* %arrayidx9, align 4
  %add = fadd float %13, %9
  store float %add, float* %arrayidx9, align 4
  br label %for.inc

for.inc:                                          ; preds = %for.body4
  %14 = load i32, i32* %niSample, align 4
  %inc = add i32 %14, 1
  store i32 %inc, i32* %niSample, align 4
  br label %for.cond2

for.end:                                          ; preds = %for.cond2
  br label %for.inc10

for.inc10:                                        ; preds = %for.end
  %15 = load i32, i32* %niChannel, align 4
  %inc11 = add i32 %15, 1
  store i32 %inc11, i32* %niChannel, align 4
  br label %for.cond

for.end12:                                        ; preds = %for.cond
  ret %class.CBFormat* %this1
}

; Function Attrs: noinline optnone uwtable
define dso_local dereferenceable(64) %class.CBFormat* @_ZN8CBFormatmIERKS_(%class.CBFormat* %this, %class.CBFormat* dereferenceable(64) %bf) #4 align 2 {
entry:
  %this.addr = alloca %class.CBFormat*, align 8
  %bf.addr = alloca %class.CBFormat*, align 8
  %niChannel = alloca i32, align 4
  %niSample = alloca i32, align 4
  store %class.CBFormat* %this, %class.CBFormat** %this.addr, align 8
  store %class.CBFormat* %bf, %class.CBFormat** %bf.addr, align 8
  %this1 = load %class.CBFormat*, %class.CBFormat** %this.addr, align 8
  store i32 0, i32* %niChannel, align 4
  store i32 0, i32* %niSample, align 4
  store i32 0, i32* %niChannel, align 4
  br label %for.cond

for.cond:                                         ; preds = %for.inc10, %entry
  %0 = load i32, i32* %niChannel, align 4
  %1 = bitcast %class.CBFormat* %this1 to %class.CAmbisonicBase*
  %m_nChannelCount = getelementptr inbounds %class.CAmbisonicBase, %class.CAmbisonicBase* %1, i32 0, i32 4
  %2 = load i32, i32* %m_nChannelCount, align 8
  %cmp = icmp ult i32 %0, %2
  br i1 %cmp, label %for.body, label %for.end12

for.body:                                         ; preds = %for.cond
  store i32 0, i32* %niSample, align 4
  br label %for.cond2

for.cond2:                                        ; preds = %for.inc, %for.body
  %3 = load i32, i32* %niSample, align 4
  %m_nSamples = getelementptr inbounds %class.CBFormat, %class.CBFormat* %this1, i32 0, i32 1
  %4 = load i32, i32* %m_nSamples, align 8
  %cmp3 = icmp ult i32 %3, %4
  br i1 %cmp3, label %for.body4, label %for.end

for.body4:                                        ; preds = %for.cond2
  %5 = load %class.CBFormat*, %class.CBFormat** %bf.addr, align 8
  %m_ppfChannels = getelementptr inbounds %class.CBFormat, %class.CBFormat* %5, i32 0, i32 4
  %6 = load i32, i32* %niChannel, align 4
  %conv = zext i32 %6 to i64
  %call = call dereferenceable(8) float** @_ZNKSt10unique_ptrIA_PfSt14default_deleteIS1_EEixEm(%"class.std::unique_ptr"* %m_ppfChannels, i64 %conv)
  %7 = load float*, float** %call, align 8
  %8 = load i32, i32* %niSample, align 4
  %idxprom = zext i32 %8 to i64
  %arrayidx = getelementptr inbounds float, float* %7, i64 %idxprom
  %9 = load float, float* %arrayidx, align 4
  %m_ppfChannels5 = getelementptr inbounds %class.CBFormat, %class.CBFormat* %this1, i32 0, i32 4
  %10 = load i32, i32* %niChannel, align 4
  %conv6 = zext i32 %10 to i64
  %call7 = call dereferenceable(8) float** @_ZNKSt10unique_ptrIA_PfSt14default_deleteIS1_EEixEm(%"class.std::unique_ptr"* %m_ppfChannels5, i64 %conv6)
  %11 = load float*, float** %call7, align 8
  %12 = load i32, i32* %niSample, align 4
  %idxprom8 = zext i32 %12 to i64
  %arrayidx9 = getelementptr inbounds float, float* %11, i64 %idxprom8
  %13 = load float, float* %arrayidx9, align 4
  %sub = fsub float %13, %9
  store float %sub, float* %arrayidx9, align 4
  br label %for.inc

for.inc:                                          ; preds = %for.body4
  %14 = load i32, i32* %niSample, align 4
  %inc = add i32 %14, 1
  store i32 %inc, i32* %niSample, align 4
  br label %for.cond2

for.end:                                          ; preds = %for.cond2
  br label %for.inc10

for.inc10:                                        ; preds = %for.end
  %15 = load i32, i32* %niChannel, align 4
  %inc11 = add i32 %15, 1
  store i32 %inc11, i32* %niChannel, align 4
  br label %for.cond

for.end12:                                        ; preds = %for.cond
  ret %class.CBFormat* %this1
}

; Function Attrs: noinline optnone uwtable
define dso_local dereferenceable(64) %class.CBFormat* @_ZN8CBFormatmLERKS_(%class.CBFormat* %this, %class.CBFormat* dereferenceable(64) %bf) #4 align 2 {
entry:
  %this.addr = alloca %class.CBFormat*, align 8
  %bf.addr = alloca %class.CBFormat*, align 8
  %niChannel = alloca i32, align 4
  %niSample = alloca i32, align 4
  store %class.CBFormat* %this, %class.CBFormat** %this.addr, align 8
  store %class.CBFormat* %bf, %class.CBFormat** %bf.addr, align 8
  %this1 = load %class.CBFormat*, %class.CBFormat** %this.addr, align 8
  store i32 0, i32* %niChannel, align 4
  store i32 0, i32* %niSample, align 4
  store i32 0, i32* %niChannel, align 4
  br label %for.cond

for.cond:                                         ; preds = %for.inc10, %entry
  %0 = load i32, i32* %niChannel, align 4
  %1 = bitcast %class.CBFormat* %this1 to %class.CAmbisonicBase*
  %m_nChannelCount = getelementptr inbounds %class.CAmbisonicBase, %class.CAmbisonicBase* %1, i32 0, i32 4
  %2 = load i32, i32* %m_nChannelCount, align 8
  %cmp = icmp ult i32 %0, %2
  br i1 %cmp, label %for.body, label %for.end12

for.body:                                         ; preds = %for.cond
  store i32 0, i32* %niSample, align 4
  br label %for.cond2

for.cond2:                                        ; preds = %for.inc, %for.body
  %3 = load i32, i32* %niSample, align 4
  %m_nSamples = getelementptr inbounds %class.CBFormat, %class.CBFormat* %this1, i32 0, i32 1
  %4 = load i32, i32* %m_nSamples, align 8
  %cmp3 = icmp ult i32 %3, %4
  br i1 %cmp3, label %for.body4, label %for.end

for.body4:                                        ; preds = %for.cond2
  %5 = load %class.CBFormat*, %class.CBFormat** %bf.addr, align 8
  %m_ppfChannels = getelementptr inbounds %class.CBFormat, %class.CBFormat* %5, i32 0, i32 4
  %6 = load i32, i32* %niChannel, align 4
  %conv = zext i32 %6 to i64
  %call = call dereferenceable(8) float** @_ZNKSt10unique_ptrIA_PfSt14default_deleteIS1_EEixEm(%"class.std::unique_ptr"* %m_ppfChannels, i64 %conv)
  %7 = load float*, float** %call, align 8
  %8 = load i32, i32* %niSample, align 4
  %idxprom = zext i32 %8 to i64
  %arrayidx = getelementptr inbounds float, float* %7, i64 %idxprom
  %9 = load float, float* %arrayidx, align 4
  %m_ppfChannels5 = getelementptr inbounds %class.CBFormat, %class.CBFormat* %this1, i32 0, i32 4
  %10 = load i32, i32* %niChannel, align 4
  %conv6 = zext i32 %10 to i64
  %call7 = call dereferenceable(8) float** @_ZNKSt10unique_ptrIA_PfSt14default_deleteIS1_EEixEm(%"class.std::unique_ptr"* %m_ppfChannels5, i64 %conv6)
  %11 = load float*, float** %call7, align 8
  %12 = load i32, i32* %niSample, align 4
  %idxprom8 = zext i32 %12 to i64
  %arrayidx9 = getelementptr inbounds float, float* %11, i64 %idxprom8
  %13 = load float, float* %arrayidx9, align 4
  %mul = fmul float %13, %9
  store float %mul, float* %arrayidx9, align 4
  br label %for.inc

for.inc:                                          ; preds = %for.body4
  %14 = load i32, i32* %niSample, align 4
  %inc = add i32 %14, 1
  store i32 %inc, i32* %niSample, align 4
  br label %for.cond2

for.end:                                          ; preds = %for.cond2
  br label %for.inc10

for.inc10:                                        ; preds = %for.end
  %15 = load i32, i32* %niChannel, align 4
  %inc11 = add i32 %15, 1
  store i32 %inc11, i32* %niChannel, align 4
  br label %for.cond

for.end12:                                        ; preds = %for.cond
  ret %class.CBFormat* %this1
}

; Function Attrs: noinline optnone uwtable
define dso_local dereferenceable(64) %class.CBFormat* @_ZN8CBFormatdVERKS_(%class.CBFormat* %this, %class.CBFormat* dereferenceable(64) %bf) #4 align 2 {
entry:
  %this.addr = alloca %class.CBFormat*, align 8
  %bf.addr = alloca %class.CBFormat*, align 8
  %niChannel = alloca i32, align 4
  %niSample = alloca i32, align 4
  store %class.CBFormat* %this, %class.CBFormat** %this.addr, align 8
  store %class.CBFormat* %bf, %class.CBFormat** %bf.addr, align 8
  %this1 = load %class.CBFormat*, %class.CBFormat** %this.addr, align 8
  store i32 0, i32* %niChannel, align 4
  store i32 0, i32* %niSample, align 4
  store i32 0, i32* %niChannel, align 4
  br label %for.cond

for.cond:                                         ; preds = %for.inc10, %entry
  %0 = load i32, i32* %niChannel, align 4
  %1 = bitcast %class.CBFormat* %this1 to %class.CAmbisonicBase*
  %m_nChannelCount = getelementptr inbounds %class.CAmbisonicBase, %class.CAmbisonicBase* %1, i32 0, i32 4
  %2 = load i32, i32* %m_nChannelCount, align 8
  %cmp = icmp ult i32 %0, %2
  br i1 %cmp, label %for.body, label %for.end12

for.body:                                         ; preds = %for.cond
  store i32 0, i32* %niSample, align 4
  br label %for.cond2

for.cond2:                                        ; preds = %for.inc, %for.body
  %3 = load i32, i32* %niSample, align 4
  %m_nSamples = getelementptr inbounds %class.CBFormat, %class.CBFormat* %this1, i32 0, i32 1
  %4 = load i32, i32* %m_nSamples, align 8
  %cmp3 = icmp ult i32 %3, %4
  br i1 %cmp3, label %for.body4, label %for.end

for.body4:                                        ; preds = %for.cond2
  %5 = load %class.CBFormat*, %class.CBFormat** %bf.addr, align 8
  %m_ppfChannels = getelementptr inbounds %class.CBFormat, %class.CBFormat* %5, i32 0, i32 4
  %6 = load i32, i32* %niChannel, align 4
  %conv = zext i32 %6 to i64
  %call = call dereferenceable(8) float** @_ZNKSt10unique_ptrIA_PfSt14default_deleteIS1_EEixEm(%"class.std::unique_ptr"* %m_ppfChannels, i64 %conv)
  %7 = load float*, float** %call, align 8
  %8 = load i32, i32* %niSample, align 4
  %idxprom = zext i32 %8 to i64
  %arrayidx = getelementptr inbounds float, float* %7, i64 %idxprom
  %9 = load float, float* %arrayidx, align 4
  %m_ppfChannels5 = getelementptr inbounds %class.CBFormat, %class.CBFormat* %this1, i32 0, i32 4
  %10 = load i32, i32* %niChannel, align 4
  %conv6 = zext i32 %10 to i64
  %call7 = call dereferenceable(8) float** @_ZNKSt10unique_ptrIA_PfSt14default_deleteIS1_EEixEm(%"class.std::unique_ptr"* %m_ppfChannels5, i64 %conv6)
  %11 = load float*, float** %call7, align 8
  %12 = load i32, i32* %niSample, align 4
  %idxprom8 = zext i32 %12 to i64
  %arrayidx9 = getelementptr inbounds float, float* %11, i64 %idxprom8
  %13 = load float, float* %arrayidx9, align 4
  %div = fdiv float %13, %9
  store float %div, float* %arrayidx9, align 4
  br label %for.inc

for.inc:                                          ; preds = %for.body4
  %14 = load i32, i32* %niSample, align 4
  %inc = add i32 %14, 1
  store i32 %inc, i32* %niSample, align 4
  br label %for.cond2

for.end:                                          ; preds = %for.cond2
  br label %for.inc10

for.inc10:                                        ; preds = %for.end
  %15 = load i32, i32* %niChannel, align 4
  %inc11 = add i32 %15, 1
  store i32 %inc11, i32* %niChannel, align 4
  br label %for.cond

for.end12:                                        ; preds = %for.cond
  ret %class.CBFormat* %this1
}

; Function Attrs: noinline optnone uwtable
define dso_local dereferenceable(64) %class.CBFormat* @_ZN8CBFormatpLERKf(%class.CBFormat* %this, float* dereferenceable(4) %fValue) #4 align 2 {
entry:
  %this.addr = alloca %class.CBFormat*, align 8
  %fValue.addr = alloca float*, align 8
  %niChannel = alloca i32, align 4
  %niSample = alloca i32, align 4
  store %class.CBFormat* %this, %class.CBFormat** %this.addr, align 8
  store float* %fValue, float** %fValue.addr, align 8
  %this1 = load %class.CBFormat*, %class.CBFormat** %this.addr, align 8
  store i32 0, i32* %niChannel, align 4
  store i32 0, i32* %niSample, align 4
  store i32 0, i32* %niChannel, align 4
  br label %for.cond

for.cond:                                         ; preds = %for.inc5, %entry
  %0 = load i32, i32* %niChannel, align 4
  %1 = bitcast %class.CBFormat* %this1 to %class.CAmbisonicBase*
  %m_nChannelCount = getelementptr inbounds %class.CAmbisonicBase, %class.CAmbisonicBase* %1, i32 0, i32 4
  %2 = load i32, i32* %m_nChannelCount, align 8
  %cmp = icmp ult i32 %0, %2
  br i1 %cmp, label %for.body, label %for.end7

for.body:                                         ; preds = %for.cond
  store i32 0, i32* %niSample, align 4
  br label %for.cond2

for.cond2:                                        ; preds = %for.inc, %for.body
  %3 = load i32, i32* %niSample, align 4
  %m_nSamples = getelementptr inbounds %class.CBFormat, %class.CBFormat* %this1, i32 0, i32 1
  %4 = load i32, i32* %m_nSamples, align 8
  %cmp3 = icmp ult i32 %3, %4
  br i1 %cmp3, label %for.body4, label %for.end

for.body4:                                        ; preds = %for.cond2
  %5 = load float*, float** %fValue.addr, align 8
  %6 = load float, float* %5, align 4
  %m_ppfChannels = getelementptr inbounds %class.CBFormat, %class.CBFormat* %this1, i32 0, i32 4
  %7 = load i32, i32* %niChannel, align 4
  %conv = zext i32 %7 to i64
  %call = call dereferenceable(8) float** @_ZNKSt10unique_ptrIA_PfSt14default_deleteIS1_EEixEm(%"class.std::unique_ptr"* %m_ppfChannels, i64 %conv)
  %8 = load float*, float** %call, align 8
  %9 = load i32, i32* %niSample, align 4
  %idxprom = zext i32 %9 to i64
  %arrayidx = getelementptr inbounds float, float* %8, i64 %idxprom
  %10 = load float, float* %arrayidx, align 4
  %add = fadd float %10, %6
  store float %add, float* %arrayidx, align 4
  br label %for.inc

for.inc:                                          ; preds = %for.body4
  %11 = load i32, i32* %niSample, align 4
  %inc = add i32 %11, 1
  store i32 %inc, i32* %niSample, align 4
  br label %for.cond2

for.end:                                          ; preds = %for.cond2
  br label %for.inc5

for.inc5:                                         ; preds = %for.end
  %12 = load i32, i32* %niChannel, align 4
  %inc6 = add i32 %12, 1
  store i32 %inc6, i32* %niChannel, align 4
  br label %for.cond

for.end7:                                         ; preds = %for.cond
  ret %class.CBFormat* %this1
}

; Function Attrs: noinline optnone uwtable
define dso_local dereferenceable(64) %class.CBFormat* @_ZN8CBFormatmIERKf(%class.CBFormat* %this, float* dereferenceable(4) %fValue) #4 align 2 {
entry:
  %this.addr = alloca %class.CBFormat*, align 8
  %fValue.addr = alloca float*, align 8
  %niChannel = alloca i32, align 4
  %niSample = alloca i32, align 4
  store %class.CBFormat* %this, %class.CBFormat** %this.addr, align 8
  store float* %fValue, float** %fValue.addr, align 8
  %this1 = load %class.CBFormat*, %class.CBFormat** %this.addr, align 8
  store i32 0, i32* %niChannel, align 4
  store i32 0, i32* %niSample, align 4
  store i32 0, i32* %niChannel, align 4
  br label %for.cond

for.cond:                                         ; preds = %for.inc5, %entry
  %0 = load i32, i32* %niChannel, align 4
  %1 = bitcast %class.CBFormat* %this1 to %class.CAmbisonicBase*
  %m_nChannelCount = getelementptr inbounds %class.CAmbisonicBase, %class.CAmbisonicBase* %1, i32 0, i32 4
  %2 = load i32, i32* %m_nChannelCount, align 8
  %cmp = icmp ult i32 %0, %2
  br i1 %cmp, label %for.body, label %for.end7

for.body:                                         ; preds = %for.cond
  store i32 0, i32* %niSample, align 4
  br label %for.cond2

for.cond2:                                        ; preds = %for.inc, %for.body
  %3 = load i32, i32* %niSample, align 4
  %m_nSamples = getelementptr inbounds %class.CBFormat, %class.CBFormat* %this1, i32 0, i32 1
  %4 = load i32, i32* %m_nSamples, align 8
  %cmp3 = icmp ult i32 %3, %4
  br i1 %cmp3, label %for.body4, label %for.end

for.body4:                                        ; preds = %for.cond2
  %5 = load float*, float** %fValue.addr, align 8
  %6 = load float, float* %5, align 4
  %m_ppfChannels = getelementptr inbounds %class.CBFormat, %class.CBFormat* %this1, i32 0, i32 4
  %7 = load i32, i32* %niChannel, align 4
  %conv = zext i32 %7 to i64
  %call = call dereferenceable(8) float** @_ZNKSt10unique_ptrIA_PfSt14default_deleteIS1_EEixEm(%"class.std::unique_ptr"* %m_ppfChannels, i64 %conv)
  %8 = load float*, float** %call, align 8
  %9 = load i32, i32* %niSample, align 4
  %idxprom = zext i32 %9 to i64
  %arrayidx = getelementptr inbounds float, float* %8, i64 %idxprom
  %10 = load float, float* %arrayidx, align 4
  %sub = fsub float %10, %6
  store float %sub, float* %arrayidx, align 4
  br label %for.inc

for.inc:                                          ; preds = %for.body4
  %11 = load i32, i32* %niSample, align 4
  %inc = add i32 %11, 1
  store i32 %inc, i32* %niSample, align 4
  br label %for.cond2

for.end:                                          ; preds = %for.cond2
  br label %for.inc5

for.inc5:                                         ; preds = %for.end
  %12 = load i32, i32* %niChannel, align 4
  %inc6 = add i32 %12, 1
  store i32 %inc6, i32* %niChannel, align 4
  br label %for.cond

for.end7:                                         ; preds = %for.cond
  ret %class.CBFormat* %this1
}

; Function Attrs: noinline optnone uwtable
define dso_local dereferenceable(64) %class.CBFormat* @_ZN8CBFormatmLERKf(%class.CBFormat* %this, float* dereferenceable(4) %fValue) #4 align 2 {
entry:
  %this.addr = alloca %class.CBFormat*, align 8
  %fValue.addr = alloca float*, align 8
  %niChannel = alloca i32, align 4
  %niSample = alloca i32, align 4
  store %class.CBFormat* %this, %class.CBFormat** %this.addr, align 8
  store float* %fValue, float** %fValue.addr, align 8
  %this1 = load %class.CBFormat*, %class.CBFormat** %this.addr, align 8
  store i32 0, i32* %niChannel, align 4
  store i32 0, i32* %niSample, align 4
  store i32 0, i32* %niChannel, align 4
  br label %for.cond

for.cond:                                         ; preds = %for.inc5, %entry
  %0 = load i32, i32* %niChannel, align 4
  %1 = bitcast %class.CBFormat* %this1 to %class.CAmbisonicBase*
  %m_nChannelCount = getelementptr inbounds %class.CAmbisonicBase, %class.CAmbisonicBase* %1, i32 0, i32 4
  %2 = load i32, i32* %m_nChannelCount, align 8
  %cmp = icmp ult i32 %0, %2
  br i1 %cmp, label %for.body, label %for.end7

for.body:                                         ; preds = %for.cond
  store i32 0, i32* %niSample, align 4
  br label %for.cond2

for.cond2:                                        ; preds = %for.inc, %for.body
  %3 = load i32, i32* %niSample, align 4
  %m_nSamples = getelementptr inbounds %class.CBFormat, %class.CBFormat* %this1, i32 0, i32 1
  %4 = load i32, i32* %m_nSamples, align 8
  %cmp3 = icmp ult i32 %3, %4
  br i1 %cmp3, label %for.body4, label %for.end

for.body4:                                        ; preds = %for.cond2
  %5 = load float*, float** %fValue.addr, align 8
  %6 = load float, float* %5, align 4
  %m_ppfChannels = getelementptr inbounds %class.CBFormat, %class.CBFormat* %this1, i32 0, i32 4
  %7 = load i32, i32* %niChannel, align 4
  %conv = zext i32 %7 to i64
  %call = call dereferenceable(8) float** @_ZNKSt10unique_ptrIA_PfSt14default_deleteIS1_EEixEm(%"class.std::unique_ptr"* %m_ppfChannels, i64 %conv)
  %8 = load float*, float** %call, align 8
  %9 = load i32, i32* %niSample, align 4
  %idxprom = zext i32 %9 to i64
  %arrayidx = getelementptr inbounds float, float* %8, i64 %idxprom
  %10 = load float, float* %arrayidx, align 4
  %mul = fmul float %10, %6
  store float %mul, float* %arrayidx, align 4
  br label %for.inc

for.inc:                                          ; preds = %for.body4
  %11 = load i32, i32* %niSample, align 4
  %inc = add i32 %11, 1
  store i32 %inc, i32* %niSample, align 4
  br label %for.cond2

for.end:                                          ; preds = %for.cond2
  br label %for.inc5

for.inc5:                                         ; preds = %for.end
  %12 = load i32, i32* %niChannel, align 4
  %inc6 = add i32 %12, 1
  store i32 %inc6, i32* %niChannel, align 4
  br label %for.cond

for.end7:                                         ; preds = %for.cond
  ret %class.CBFormat* %this1
}

; Function Attrs: noinline optnone uwtable
define dso_local dereferenceable(64) %class.CBFormat* @_ZN8CBFormatdVERKf(%class.CBFormat* %this, float* dereferenceable(4) %fValue) #4 align 2 {
entry:
  %this.addr = alloca %class.CBFormat*, align 8
  %fValue.addr = alloca float*, align 8
  %niChannel = alloca i32, align 4
  %niSample = alloca i32, align 4
  store %class.CBFormat* %this, %class.CBFormat** %this.addr, align 8
  store float* %fValue, float** %fValue.addr, align 8
  %this1 = load %class.CBFormat*, %class.CBFormat** %this.addr, align 8
  store i32 0, i32* %niChannel, align 4
  store i32 0, i32* %niSample, align 4
  store i32 0, i32* %niChannel, align 4
  br label %for.cond

for.cond:                                         ; preds = %for.inc5, %entry
  %0 = load i32, i32* %niChannel, align 4
  %1 = bitcast %class.CBFormat* %this1 to %class.CAmbisonicBase*
  %m_nChannelCount = getelementptr inbounds %class.CAmbisonicBase, %class.CAmbisonicBase* %1, i32 0, i32 4
  %2 = load i32, i32* %m_nChannelCount, align 8
  %cmp = icmp ult i32 %0, %2
  br i1 %cmp, label %for.body, label %for.end7

for.body:                                         ; preds = %for.cond
  store i32 0, i32* %niSample, align 4
  br label %for.cond2

for.cond2:                                        ; preds = %for.inc, %for.body
  %3 = load i32, i32* %niSample, align 4
  %m_nSamples = getelementptr inbounds %class.CBFormat, %class.CBFormat* %this1, i32 0, i32 1
  %4 = load i32, i32* %m_nSamples, align 8
  %cmp3 = icmp ult i32 %3, %4
  br i1 %cmp3, label %for.body4, label %for.end

for.body4:                                        ; preds = %for.cond2
  %5 = load float*, float** %fValue.addr, align 8
  %6 = load float, float* %5, align 4
  %m_ppfChannels = getelementptr inbounds %class.CBFormat, %class.CBFormat* %this1, i32 0, i32 4
  %7 = load i32, i32* %niChannel, align 4
  %conv = zext i32 %7 to i64
  %call = call dereferenceable(8) float** @_ZNKSt10unique_ptrIA_PfSt14default_deleteIS1_EEixEm(%"class.std::unique_ptr"* %m_ppfChannels, i64 %conv)
  %8 = load float*, float** %call, align 8
  %9 = load i32, i32* %niSample, align 4
  %idxprom = zext i32 %9 to i64
  %arrayidx = getelementptr inbounds float, float* %8, i64 %idxprom
  %10 = load float, float* %arrayidx, align 4
  %div = fdiv float %10, %6
  store float %div, float* %arrayidx, align 4
  br label %for.inc

for.inc:                                          ; preds = %for.body4
  %11 = load i32, i32* %niSample, align 4
  %inc = add i32 %11, 1
  store i32 %inc, i32* %niSample, align 4
  br label %for.cond2

for.end:                                          ; preds = %for.cond2
  br label %for.inc5

for.inc5:                                         ; preds = %for.end
  %12 = load i32, i32* %niChannel, align 4
  %inc6 = add i32 %12, 1
  store i32 %inc6, i32* %niChannel, align 4
  br label %for.cond

for.end7:                                         ; preds = %for.cond
  ret %class.CBFormat* %this1
}

; Function Attrs: noinline nounwind optnone uwtable
define dso_local void @_ZN17CAmbisonicEncoderC2Ev(%class.CAmbisonicEncoder* %this) unnamed_addr #5 align 2 {
entry:
  %this.addr = alloca %class.CAmbisonicEncoder*, align 8
  store %class.CAmbisonicEncoder* %this, %class.CAmbisonicEncoder** %this.addr, align 8
  %this1 = load %class.CAmbisonicEncoder*, %class.CAmbisonicEncoder** %this.addr, align 8
  %0 = bitcast %class.CAmbisonicEncoder* %this1 to %class.CAmbisonicSource*
  call void @_ZN16CAmbisonicSourceC2Ev(%class.CAmbisonicSource* %0)
  %1 = bitcast %class.CAmbisonicEncoder* %this1 to i32 (...)***
  store i32 (...)** bitcast (i8** getelementptr inbounds ({ [16 x i8*] }, { [16 x i8*] }* @_ZTV17CAmbisonicEncoder, i32 0, inrange i32 0, i32 2) to i32 (...)**), i32 (...)*** %1, align 8
  ret void
}

; Function Attrs: noinline nounwind optnone uwtable
define dso_local void @_ZN17CAmbisonicEncoderD2Ev(%class.CAmbisonicEncoder* %this) unnamed_addr #5 align 2 {
entry:
  %this.addr = alloca %class.CAmbisonicEncoder*, align 8
  store %class.CAmbisonicEncoder* %this, %class.CAmbisonicEncoder** %this.addr, align 8
  %this1 = load %class.CAmbisonicEncoder*, %class.CAmbisonicEncoder** %this.addr, align 8
  %0 = bitcast %class.CAmbisonicEncoder* %this1 to %class.CAmbisonicSource*
  call void @_ZN16CAmbisonicSourceD2Ev(%class.CAmbisonicSource* %0) #3
  ret void
}

; Function Attrs: noinline nounwind optnone uwtable
define dso_local void @_ZN17CAmbisonicEncoderD0Ev(%class.CAmbisonicEncoder* %this) unnamed_addr #5 align 2 {
entry:
  %this.addr = alloca %class.CAmbisonicEncoder*, align 8
  store %class.CAmbisonicEncoder* %this, %class.CAmbisonicEncoder** %this.addr, align 8
  %this1 = load %class.CAmbisonicEncoder*, %class.CAmbisonicEncoder** %this.addr, align 8
  call void @_ZN17CAmbisonicEncoderD1Ev(%class.CAmbisonicEncoder* %this1) #3
  %0 = bitcast %class.CAmbisonicEncoder* %this1 to i8*
  call void @_ZdlPv(i8* %0) #19
  ret void
}

; Function Attrs: nobuiltin nounwind
declare dso_local void @_ZdlPv(i8*) #10

; Function Attrs: noinline optnone uwtable
define dso_local zeroext i1 @_ZN17CAmbisonicEncoder9ConfigureEjbj(%class.CAmbisonicEncoder* %this, i32 %nOrder, i1 zeroext %b3D, i32 %nMisc) unnamed_addr #4 align 2 {
entry:
  %retval = alloca i1, align 1
  %this.addr = alloca %class.CAmbisonicEncoder*, align 8
  %nOrder.addr = alloca i32, align 4
  %b3D.addr = alloca i8, align 1
  %nMisc.addr = alloca i32, align 4
  %success = alloca i8, align 1
  store %class.CAmbisonicEncoder* %this, %class.CAmbisonicEncoder** %this.addr, align 8
  store i32 %nOrder, i32* %nOrder.addr, align 4
  %frombool = zext i1 %b3D to i8
  store i8 %frombool, i8* %b3D.addr, align 1
  store i32 %nMisc, i32* %nMisc.addr, align 4
  %this1 = load %class.CAmbisonicEncoder*, %class.CAmbisonicEncoder** %this.addr, align 8
  %0 = bitcast %class.CAmbisonicEncoder* %this1 to %class.CAmbisonicSource*
  %1 = load i32, i32* %nOrder.addr, align 4
  %2 = load i8, i8* %b3D.addr, align 1
  %tobool = trunc i8 %2 to i1
  %3 = load i32, i32* %nMisc.addr, align 4
  %call = call zeroext i1 @_ZN16CAmbisonicSource9ConfigureEjbj(%class.CAmbisonicSource* %0, i32 %1, i1 zeroext %tobool, i32 %3)
  %frombool2 = zext i1 %call to i8
  store i8 %frombool2, i8* %success, align 1
  %4 = load i8, i8* %success, align 1
  %tobool3 = trunc i8 %4 to i1
  br i1 %tobool3, label %if.end, label %if.then

if.then:                                          ; preds = %entry
  store i1 false, i1* %retval, align 1
  br label %return

if.end:                                           ; preds = %entry
  store i1 true, i1* %retval, align 1
  br label %return

return:                                           ; preds = %if.end, %if.then
  %5 = load i1, i1* %retval, align 1
  ret i1 %5
}

; Function Attrs: noinline nounwind optnone uwtable
define dso_local void @_ZN17CAmbisonicEncoder7RefreshEv(%class.CAmbisonicEncoder* %this) unnamed_addr #5 align 2 {
entry:
  %this.addr = alloca %class.CAmbisonicEncoder*, align 8
  store %class.CAmbisonicEncoder* %this, %class.CAmbisonicEncoder** %this.addr, align 8
  %this1 = load %class.CAmbisonicEncoder*, %class.CAmbisonicEncoder** %this.addr, align 8
  %0 = bitcast %class.CAmbisonicEncoder* %this1 to %class.CAmbisonicSource*
  call void @_ZN16CAmbisonicSource7RefreshEv(%class.CAmbisonicSource* %0)
  ret void
}

; Function Attrs: noinline optnone uwtable
define dso_local void @_ZN17CAmbisonicEncoder7ProcessEPfjP8CBFormat(%class.CAmbisonicEncoder* %this, float* %pfSrc, i32 %nSamples, %class.CBFormat* %pfDst) #4 align 2 {
entry:
  %this.addr = alloca %class.CAmbisonicEncoder*, align 8
  %pfSrc.addr = alloca float*, align 8
  %nSamples.addr = alloca i32, align 4
  %pfDst.addr = alloca %class.CBFormat*, align 8
  %niChannel = alloca i32, align 4
  %niSample = alloca i32, align 4
  store %class.CAmbisonicEncoder* %this, %class.CAmbisonicEncoder** %this.addr, align 8
  store float* %pfSrc, float** %pfSrc.addr, align 8
  store i32 %nSamples, i32* %nSamples.addr, align 4
  store %class.CBFormat* %pfDst, %class.CBFormat** %pfDst.addr, align 8
  %this1 = load %class.CAmbisonicEncoder*, %class.CAmbisonicEncoder** %this.addr, align 8
  store i32 0, i32* %niChannel, align 4
  store i32 0, i32* %niSample, align 4
  store i32 0, i32* %niChannel, align 4
  br label %for.cond

for.cond:                                         ; preds = %for.inc9, %entry
  %0 = load i32, i32* %niChannel, align 4
  %1 = bitcast %class.CAmbisonicEncoder* %this1 to %class.CAmbisonicBase*
  %m_nChannelCount = getelementptr inbounds %class.CAmbisonicBase, %class.CAmbisonicBase* %1, i32 0, i32 4
  %2 = load i32, i32* %m_nChannelCount, align 8
  %cmp = icmp ult i32 %0, %2
  br i1 %cmp, label %for.body, label %for.end11

for.body:                                         ; preds = %for.cond
  store i32 0, i32* %niSample, align 4
  br label %for.cond2

for.cond2:                                        ; preds = %for.inc, %for.body
  %3 = load i32, i32* %niSample, align 4
  %4 = load i32, i32* %nSamples.addr, align 4
  %cmp3 = icmp ult i32 %3, %4
  br i1 %cmp3, label %for.body4, label %for.end

for.body4:                                        ; preds = %for.cond2
  %5 = load float*, float** %pfSrc.addr, align 8
  %6 = load i32, i32* %niSample, align 4
  %idxprom = zext i32 %6 to i64
  %arrayidx = getelementptr inbounds float, float* %5, i64 %idxprom
  %7 = load float, float* %arrayidx, align 4
  %8 = bitcast %class.CAmbisonicEncoder* %this1 to %class.CAmbisonicSource*
  %m_pfCoeff = getelementptr inbounds %class.CAmbisonicSource, %class.CAmbisonicSource* %8, i32 0, i32 1
  %9 = load i32, i32* %niChannel, align 4
  %conv = zext i32 %9 to i64
  %call = call dereferenceable(4) float* @_ZNSt6vectorIfSaIfEEixEm(%"class.std::vector.0"* %m_pfCoeff, i64 %conv) #3
  %10 = load float, float* %call, align 4
  %mul = fmul float %7, %10
  %11 = load %class.CBFormat*, %class.CBFormat** %pfDst.addr, align 8
  %m_ppfChannels = getelementptr inbounds %class.CBFormat, %class.CBFormat* %11, i32 0, i32 4
  %12 = load i32, i32* %niChannel, align 4
  %conv5 = zext i32 %12 to i64
  %call6 = call dereferenceable(8) float** @_ZNKSt10unique_ptrIA_PfSt14default_deleteIS1_EEixEm(%"class.std::unique_ptr"* %m_ppfChannels, i64 %conv5)
  %13 = load float*, float** %call6, align 8
  %14 = load i32, i32* %niSample, align 4
  %idxprom7 = zext i32 %14 to i64
  %arrayidx8 = getelementptr inbounds float, float* %13, i64 %idxprom7
  store float %mul, float* %arrayidx8, align 4
  br label %for.inc

for.inc:                                          ; preds = %for.body4
  %15 = load i32, i32* %niSample, align 4
  %inc = add i32 %15, 1
  store i32 %inc, i32* %niSample, align 4
  br label %for.cond2

for.end:                                          ; preds = %for.cond2
  br label %for.inc9

for.inc9:                                         ; preds = %for.end
  %16 = load i32, i32* %niChannel, align 4
  %inc10 = add i32 %16, 1
  store i32 %inc10, i32* %niChannel, align 4
  br label %for.cond

for.end11:                                        ; preds = %for.cond
  ret void
}

; Function Attrs: noinline optnone uwtable
define dso_local void @_ZN21CAmbisonicEncoderDistC2Ev(%class.CAmbisonicEncoderDist* %this) unnamed_addr #4 align 2 personality i8* bitcast (i32 (...)* @__gxx_personality_v0 to i8*) {
entry:
  %this.addr = alloca %class.CAmbisonicEncoderDist*, align 8
  %exn.slot = alloca i8*
  %ehselector.slot = alloca i32
  store %class.CAmbisonicEncoderDist* %this, %class.CAmbisonicEncoderDist** %this.addr, align 8
  %this1 = load %class.CAmbisonicEncoderDist*, %class.CAmbisonicEncoderDist** %this.addr, align 8
  %0 = bitcast %class.CAmbisonicEncoderDist* %this1 to %class.CAmbisonicEncoder*
  call void @_ZN17CAmbisonicEncoderC2Ev(%class.CAmbisonicEncoder* %0)
  %1 = bitcast %class.CAmbisonicEncoderDist* %this1 to i32 (...)***
  store i32 (...)** bitcast (i8** getelementptr inbounds ({ [16 x i8*] }, { [16 x i8*] }* @_ZTV21CAmbisonicEncoderDist, i32 0, inrange i32 0, i32 2) to i32 (...)**), i32 (...)*** %1, align 8
  %m_nSampleRate = getelementptr inbounds %class.CAmbisonicEncoderDist, %class.CAmbisonicEncoderDist* %this1, i32 0, i32 1
  store i32 0, i32* %m_nSampleRate, align 8
  %m_fDelay = getelementptr inbounds %class.CAmbisonicEncoderDist, %class.CAmbisonicEncoderDist* %this1, i32 0, i32 2
  store float 0.000000e+00, float* %m_fDelay, align 4
  %m_nDelay = getelementptr inbounds %class.CAmbisonicEncoderDist, %class.CAmbisonicEncoderDist* %this1, i32 0, i32 3
  store i32 0, i32* %m_nDelay, align 8
  %m_nDelayBufferLength = getelementptr inbounds %class.CAmbisonicEncoderDist, %class.CAmbisonicEncoderDist* %this1, i32 0, i32 4
  store i32 0, i32* %m_nDelayBufferLength, align 4
  %m_pfDelayBuffer = getelementptr inbounds %class.CAmbisonicEncoderDist, %class.CAmbisonicEncoderDist* %this1, i32 0, i32 5
  store float* null, float** %m_pfDelayBuffer, align 8
  %m_nIn = getelementptr inbounds %class.CAmbisonicEncoderDist, %class.CAmbisonicEncoderDist* %this1, i32 0, i32 6
  store i32 0, i32* %m_nIn, align 8
  %m_nOutA = getelementptr inbounds %class.CAmbisonicEncoderDist, %class.CAmbisonicEncoderDist* %this1, i32 0, i32 7
  store i32 0, i32* %m_nOutA, align 4
  %m_nOutB = getelementptr inbounds %class.CAmbisonicEncoderDist, %class.CAmbisonicEncoderDist* %this1, i32 0, i32 8
  store i32 0, i32* %m_nOutB, align 8
  %m_fRoomRadius = getelementptr inbounds %class.CAmbisonicEncoderDist, %class.CAmbisonicEncoderDist* %this1, i32 0, i32 9
  store float 5.000000e+00, float* %m_fRoomRadius, align 4
  %m_fInteriorGain = getelementptr inbounds %class.CAmbisonicEncoderDist, %class.CAmbisonicEncoderDist* %this1, i32 0, i32 10
  store float 0.000000e+00, float* %m_fInteriorGain, align 8
  %m_fExteriorGain = getelementptr inbounds %class.CAmbisonicEncoderDist, %class.CAmbisonicEncoderDist* %this1, i32 0, i32 11
  store float 0.000000e+00, float* %m_fExteriorGain, align 4
  %2 = bitcast %class.CAmbisonicEncoderDist* %this1 to i1 (%class.CAmbisonicEncoderDist*, i32, i1, i32)***
  %vtable = load i1 (%class.CAmbisonicEncoderDist*, i32, i1, i32)**, i1 (%class.CAmbisonicEncoderDist*, i32, i1, i32)*** %2, align 8
  %vfn = getelementptr inbounds i1 (%class.CAmbisonicEncoderDist*, i32, i1, i32)*, i1 (%class.CAmbisonicEncoderDist*, i32, i1, i32)** %vtable, i64 2
  %3 = load i1 (%class.CAmbisonicEncoderDist*, i32, i1, i32)*, i1 (%class.CAmbisonicEncoderDist*, i32, i1, i32)** %vfn, align 8
  %call = invoke zeroext i1 %3(%class.CAmbisonicEncoderDist* %this1, i32 1, i1 zeroext true, i32 44100)
          to label %invoke.cont unwind label %lpad

invoke.cont:                                      ; preds = %entry
  ret void

lpad:                                             ; preds = %entry
  %4 = landingpad { i8*, i32 }
          cleanup
  %5 = extractvalue { i8*, i32 } %4, 0
  store i8* %5, i8** %exn.slot, align 8
  %6 = extractvalue { i8*, i32 } %4, 1
  store i32 %6, i32* %ehselector.slot, align 4
  %7 = bitcast %class.CAmbisonicEncoderDist* %this1 to %class.CAmbisonicEncoder*
  call void @_ZN17CAmbisonicEncoderD2Ev(%class.CAmbisonicEncoder* %7) #3
  br label %eh.resume

eh.resume:                                        ; preds = %lpad
  %exn = load i8*, i8** %exn.slot, align 8
  %sel = load i32, i32* %ehselector.slot, align 4
  %lpad.val = insertvalue { i8*, i32 } undef, i8* %exn, 0
  %lpad.val2 = insertvalue { i8*, i32 } %lpad.val, i32 %sel, 1
  resume { i8*, i32 } %lpad.val2
}

; Function Attrs: noinline nounwind optnone uwtable
define dso_local void @_ZN21CAmbisonicEncoderDistD2Ev(%class.CAmbisonicEncoderDist* %this) unnamed_addr #5 align 2 {
entry:
  %this.addr = alloca %class.CAmbisonicEncoderDist*, align 8
  store %class.CAmbisonicEncoderDist* %this, %class.CAmbisonicEncoderDist** %this.addr, align 8
  %this1 = load %class.CAmbisonicEncoderDist*, %class.CAmbisonicEncoderDist** %this.addr, align 8
  %0 = bitcast %class.CAmbisonicEncoderDist* %this1 to i32 (...)***
  store i32 (...)** bitcast (i8** getelementptr inbounds ({ [16 x i8*] }, { [16 x i8*] }* @_ZTV21CAmbisonicEncoderDist, i32 0, inrange i32 0, i32 2) to i32 (...)**), i32 (...)*** %0, align 8
  %m_pfDelayBuffer = getelementptr inbounds %class.CAmbisonicEncoderDist, %class.CAmbisonicEncoderDist* %this1, i32 0, i32 5
  %1 = load float*, float** %m_pfDelayBuffer, align 8
  %tobool = icmp ne float* %1, null
  br i1 %tobool, label %if.then, label %if.end

if.then:                                          ; preds = %entry
  %m_pfDelayBuffer2 = getelementptr inbounds %class.CAmbisonicEncoderDist, %class.CAmbisonicEncoderDist* %this1, i32 0, i32 5
  %2 = load float*, float** %m_pfDelayBuffer2, align 8
  %isnull = icmp eq float* %2, null
  br i1 %isnull, label %delete.end, label %delete.notnull

delete.notnull:                                   ; preds = %if.then
  %3 = bitcast float* %2 to i8*
  call void @_ZdaPv(i8* %3) #19
  br label %delete.end

delete.end:                                       ; preds = %delete.notnull, %if.then
  br label %if.end

if.end:                                           ; preds = %delete.end, %entry
  %4 = bitcast %class.CAmbisonicEncoderDist* %this1 to %class.CAmbisonicEncoder*
  call void @_ZN17CAmbisonicEncoderD2Ev(%class.CAmbisonicEncoder* %4) #3
  ret void
}

; Function Attrs: nobuiltin nounwind
declare dso_local void @_ZdaPv(i8*) #10

; Function Attrs: noinline nounwind optnone uwtable
define dso_local void @_ZN21CAmbisonicEncoderDistD0Ev(%class.CAmbisonicEncoderDist* %this) unnamed_addr #5 align 2 {
entry:
  %this.addr = alloca %class.CAmbisonicEncoderDist*, align 8
  store %class.CAmbisonicEncoderDist* %this, %class.CAmbisonicEncoderDist** %this.addr, align 8
  %this1 = load %class.CAmbisonicEncoderDist*, %class.CAmbisonicEncoderDist** %this.addr, align 8
  call void @_ZN21CAmbisonicEncoderDistD1Ev(%class.CAmbisonicEncoderDist* %this1) #3
  %0 = bitcast %class.CAmbisonicEncoderDist* %this1 to i8*
  call void @_ZdlPv(i8* %0) #19
  ret void
}

; Function Attrs: noinline optnone uwtable
define dso_local zeroext i1 @_ZN21CAmbisonicEncoderDist9ConfigureEjbj(%class.CAmbisonicEncoderDist* %this, i32 %nOrder, i1 zeroext %b3D, i32 %nSampleRate) unnamed_addr #4 align 2 {
entry:
  %retval = alloca i1, align 1
  %this.addr = alloca %class.CAmbisonicEncoderDist*, align 8
  %nOrder.addr = alloca i32, align 4
  %b3D.addr = alloca i8, align 1
  %nSampleRate.addr = alloca i32, align 4
  %success = alloca i8, align 1
  store %class.CAmbisonicEncoderDist* %this, %class.CAmbisonicEncoderDist** %this.addr, align 8
  store i32 %nOrder, i32* %nOrder.addr, align 4
  %frombool = zext i1 %b3D to i8
  store i8 %frombool, i8* %b3D.addr, align 1
  store i32 %nSampleRate, i32* %nSampleRate.addr, align 4
  %this1 = load %class.CAmbisonicEncoderDist*, %class.CAmbisonicEncoderDist** %this.addr, align 8
  %0 = bitcast %class.CAmbisonicEncoderDist* %this1 to %class.CAmbisonicEncoder*
  %1 = load i32, i32* %nOrder.addr, align 4
  %2 = load i8, i8* %b3D.addr, align 1
  %tobool = trunc i8 %2 to i1
  %call = call zeroext i1 @_ZN17CAmbisonicEncoder9ConfigureEjbj(%class.CAmbisonicEncoder* %0, i32 %1, i1 zeroext %tobool, i32 0)
  %frombool2 = zext i1 %call to i8
  store i8 %frombool2, i8* %success, align 1
  %3 = load i8, i8* %success, align 1
  %tobool3 = trunc i8 %3 to i1
  br i1 %tobool3, label %if.end, label %if.then

if.then:                                          ; preds = %entry
  store i1 false, i1* %retval, align 1
  br label %return

if.end:                                           ; preds = %entry
  %4 = load i32, i32* %nSampleRate.addr, align 4
  %m_nSampleRate = getelementptr inbounds %class.CAmbisonicEncoderDist, %class.CAmbisonicEncoderDist* %this1, i32 0, i32 1
  store i32 %4, i32* %m_nSampleRate, align 8
  %m_nSampleRate4 = getelementptr inbounds %class.CAmbisonicEncoderDist, %class.CAmbisonicEncoderDist* %this1, i32 0, i32 1
  %5 = load i32, i32* %m_nSampleRate4, align 8
  %conv = uitofp i32 %5 to float
  %mul = fmul float 0x3FDBE82FA0000000, %conv
  %add = fadd float %mul, 5.000000e-01
  %conv5 = fptoui float %add to i32
  %m_nDelayBufferLength = getelementptr inbounds %class.CAmbisonicEncoderDist, %class.CAmbisonicEncoderDist* %this1, i32 0, i32 4
  store i32 %conv5, i32* %m_nDelayBufferLength, align 4
  %m_pfDelayBuffer = getelementptr inbounds %class.CAmbisonicEncoderDist, %class.CAmbisonicEncoderDist* %this1, i32 0, i32 5
  %6 = load float*, float** %m_pfDelayBuffer, align 8
  %tobool6 = icmp ne float* %6, null
  br i1 %tobool6, label %if.then7, label %if.end9

if.then7:                                         ; preds = %if.end
  %m_pfDelayBuffer8 = getelementptr inbounds %class.CAmbisonicEncoderDist, %class.CAmbisonicEncoderDist* %this1, i32 0, i32 5
  %7 = load float*, float** %m_pfDelayBuffer8, align 8
  %isnull = icmp eq float* %7, null
  br i1 %isnull, label %delete.end, label %delete.notnull

delete.notnull:                                   ; preds = %if.then7
  %8 = bitcast float* %7 to i8*
  call void @_ZdaPv(i8* %8) #19
  br label %delete.end

delete.end:                                       ; preds = %delete.notnull, %if.then7
  br label %if.end9

if.end9:                                          ; preds = %delete.end, %if.end
  %m_nDelayBufferLength10 = getelementptr inbounds %class.CAmbisonicEncoderDist, %class.CAmbisonicEncoderDist* %this1, i32 0, i32 4
  %9 = load i32, i32* %m_nDelayBufferLength10, align 4
  %conv11 = zext i32 %9 to i64
  %10 = call { i64, i1 } @llvm.umul.with.overflow.i64(i64 %conv11, i64 4)
  %11 = extractvalue { i64, i1 } %10, 1
  %12 = extractvalue { i64, i1 } %10, 0
  %13 = select i1 %11, i64 -1, i64 %12
  %call12 = call i8* @_Znam(i64 %13) #18
  %14 = bitcast i8* %call12 to float*
  %m_pfDelayBuffer13 = getelementptr inbounds %class.CAmbisonicEncoderDist, %class.CAmbisonicEncoderDist* %this1, i32 0, i32 5
  store float* %14, float** %m_pfDelayBuffer13, align 8
  %15 = bitcast %class.CAmbisonicEncoderDist* %this1 to void (%class.CAmbisonicEncoderDist*)***
  %vtable = load void (%class.CAmbisonicEncoderDist*)**, void (%class.CAmbisonicEncoderDist*)*** %15, align 8
  %vfn = getelementptr inbounds void (%class.CAmbisonicEncoderDist*)*, void (%class.CAmbisonicEncoderDist*)** %vtable, i64 3
  %16 = load void (%class.CAmbisonicEncoderDist*)*, void (%class.CAmbisonicEncoderDist*)** %vfn, align 8
  call void %16(%class.CAmbisonicEncoderDist* %this1)
  store i1 true, i1* %retval, align 1
  br label %return

return:                                           ; preds = %if.end9, %if.then
  %17 = load i1, i1* %retval, align 1
  ret i1 %17
}

; Function Attrs: noinline nounwind optnone uwtable
define dso_local void @_ZN21CAmbisonicEncoderDist5ResetEv(%class.CAmbisonicEncoderDist* %this) unnamed_addr #5 align 2 {
entry:
  %this.addr = alloca %class.CAmbisonicEncoderDist*, align 8
  store %class.CAmbisonicEncoderDist* %this, %class.CAmbisonicEncoderDist** %this.addr, align 8
  %this1 = load %class.CAmbisonicEncoderDist*, %class.CAmbisonicEncoderDist** %this.addr, align 8
  %m_pfDelayBuffer = getelementptr inbounds %class.CAmbisonicEncoderDist, %class.CAmbisonicEncoderDist* %this1, i32 0, i32 5
  %0 = load float*, float** %m_pfDelayBuffer, align 8
  %1 = bitcast float* %0 to i8*
  %m_nDelayBufferLength = getelementptr inbounds %class.CAmbisonicEncoderDist, %class.CAmbisonicEncoderDist* %this1, i32 0, i32 4
  %2 = load i32, i32* %m_nDelayBufferLength, align 4
  %conv = zext i32 %2 to i64
  %mul = mul i64 %conv, 4
  call void @llvm.memset.p0i8.i64(i8* align 4 %1, i8 0, i64 %mul, i1 false)
  %3 = bitcast %class.CAmbisonicEncoderDist* %this1 to %class.CAmbisonicSource*
  %m_polPosition = getelementptr inbounds %class.CAmbisonicSource, %class.CAmbisonicSource* %3, i32 0, i32 3
  %fDistance = getelementptr inbounds %struct.PolarPoint, %struct.PolarPoint* %m_polPosition, i32 0, i32 2
  %4 = load float, float* %fDistance, align 8
  %div = fdiv float %4, 3.440000e+02
  %m_nSampleRate = getelementptr inbounds %class.CAmbisonicEncoderDist, %class.CAmbisonicEncoderDist* %this1, i32 0, i32 1
  %5 = load i32, i32* %m_nSampleRate, align 8
  %conv2 = uitofp i32 %5 to float
  %mul3 = fmul float %div, %conv2
  %add = fadd float %mul3, 5.000000e-01
  %m_fDelay = getelementptr inbounds %class.CAmbisonicEncoderDist, %class.CAmbisonicEncoderDist* %this1, i32 0, i32 2
  store float %add, float* %m_fDelay, align 4
  %m_fDelay4 = getelementptr inbounds %class.CAmbisonicEncoderDist, %class.CAmbisonicEncoderDist* %this1, i32 0, i32 2
  %6 = load float, float* %m_fDelay4, align 4
  %conv5 = fptosi float %6 to i32
  %m_nDelay = getelementptr inbounds %class.CAmbisonicEncoderDist, %class.CAmbisonicEncoderDist* %this1, i32 0, i32 3
  store i32 %conv5, i32* %m_nDelay, align 8
  %m_nDelay6 = getelementptr inbounds %class.CAmbisonicEncoderDist, %class.CAmbisonicEncoderDist* %this1, i32 0, i32 3
  %7 = load i32, i32* %m_nDelay6, align 8
  %conv7 = sitofp i32 %7 to float
  %m_fDelay8 = getelementptr inbounds %class.CAmbisonicEncoderDist, %class.CAmbisonicEncoderDist* %this1, i32 0, i32 2
  %8 = load float, float* %m_fDelay8, align 4
  %sub = fsub float %8, %conv7
  store float %sub, float* %m_fDelay8, align 4
  %m_nIn = getelementptr inbounds %class.CAmbisonicEncoderDist, %class.CAmbisonicEncoderDist* %this1, i32 0, i32 6
  store i32 0, i32* %m_nIn, align 8
  %m_nIn9 = getelementptr inbounds %class.CAmbisonicEncoderDist, %class.CAmbisonicEncoderDist* %this1, i32 0, i32 6
  %9 = load i32, i32* %m_nIn9, align 8
  %m_nDelay10 = getelementptr inbounds %class.CAmbisonicEncoderDist, %class.CAmbisonicEncoderDist* %this1, i32 0, i32 3
  %10 = load i32, i32* %m_nDelay10, align 8
  %sub11 = sub nsw i32 %9, %10
  %m_nDelayBufferLength12 = getelementptr inbounds %class.CAmbisonicEncoderDist, %class.CAmbisonicEncoderDist* %this1, i32 0, i32 4
  %11 = load i32, i32* %m_nDelayBufferLength12, align 4
  %add13 = add i32 %sub11, %11
  %m_nDelayBufferLength14 = getelementptr inbounds %class.CAmbisonicEncoderDist, %class.CAmbisonicEncoderDist* %this1, i32 0, i32 4
  %12 = load i32, i32* %m_nDelayBufferLength14, align 4
  %rem = urem i32 %add13, %12
  %m_nOutA = getelementptr inbounds %class.CAmbisonicEncoderDist, %class.CAmbisonicEncoderDist* %this1, i32 0, i32 7
  store i32 %rem, i32* %m_nOutA, align 4
  %m_nOutA15 = getelementptr inbounds %class.CAmbisonicEncoderDist, %class.CAmbisonicEncoderDist* %this1, i32 0, i32 7
  %13 = load i32, i32* %m_nOutA15, align 4
  %add16 = add nsw i32 %13, 1
  %m_nDelayBufferLength17 = getelementptr inbounds %class.CAmbisonicEncoderDist, %class.CAmbisonicEncoderDist* %this1, i32 0, i32 4
  %14 = load i32, i32* %m_nDelayBufferLength17, align 4
  %rem18 = urem i32 %add16, %14
  %m_nOutB = getelementptr inbounds %class.CAmbisonicEncoderDist, %class.CAmbisonicEncoderDist* %this1, i32 0, i32 8
  store i32 %rem18, i32* %m_nOutB, align 8
  ret void
}

; Function Attrs: noinline nounwind optnone uwtable
define dso_local void @_ZN21CAmbisonicEncoderDist7RefreshEv(%class.CAmbisonicEncoderDist* %this) unnamed_addr #5 align 2 {
entry:
  %this.addr = alloca %class.CAmbisonicEncoderDist*, align 8
  store %class.CAmbisonicEncoderDist* %this, %class.CAmbisonicEncoderDist** %this.addr, align 8
  %this1 = load %class.CAmbisonicEncoderDist*, %class.CAmbisonicEncoderDist** %this.addr, align 8
  %0 = bitcast %class.CAmbisonicEncoderDist* %this1 to %class.CAmbisonicEncoder*
  call void @_ZN17CAmbisonicEncoder7RefreshEv(%class.CAmbisonicEncoder* %0)
  %1 = bitcast %class.CAmbisonicEncoderDist* %this1 to %class.CAmbisonicSource*
  %m_polPosition = getelementptr inbounds %class.CAmbisonicSource, %class.CAmbisonicSource* %1, i32 0, i32 3
  %fDistance = getelementptr inbounds %struct.PolarPoint, %struct.PolarPoint* %m_polPosition, i32 0, i32 2
  %2 = load float, float* %fDistance, align 8
  %conv = fpext float %2 to double
  %3 = call double @llvm.fabs.f64(double %conv)
  %div = fdiv double %3, 3.440000e+02
  %m_nSampleRate = getelementptr inbounds %class.CAmbisonicEncoderDist, %class.CAmbisonicEncoderDist* %this1, i32 0, i32 1
  %4 = load i32, i32* %m_nSampleRate, align 8
  %conv2 = uitofp i32 %4 to double
  %mul = fmul double %div, %conv2
  %conv3 = fptrunc double %mul to float
  %m_fDelay = getelementptr inbounds %class.CAmbisonicEncoderDist, %class.CAmbisonicEncoderDist* %this1, i32 0, i32 2
  store float %conv3, float* %m_fDelay, align 4
  %m_fDelay4 = getelementptr inbounds %class.CAmbisonicEncoderDist, %class.CAmbisonicEncoderDist* %this1, i32 0, i32 2
  %5 = load float, float* %m_fDelay4, align 4
  %conv5 = fptosi float %5 to i32
  %m_nDelay = getelementptr inbounds %class.CAmbisonicEncoderDist, %class.CAmbisonicEncoderDist* %this1, i32 0, i32 3
  store i32 %conv5, i32* %m_nDelay, align 8
  %m_nDelay6 = getelementptr inbounds %class.CAmbisonicEncoderDist, %class.CAmbisonicEncoderDist* %this1, i32 0, i32 3
  %6 = load i32, i32* %m_nDelay6, align 8
  %conv7 = sitofp i32 %6 to float
  %m_fDelay8 = getelementptr inbounds %class.CAmbisonicEncoderDist, %class.CAmbisonicEncoderDist* %this1, i32 0, i32 2
  %7 = load float, float* %m_fDelay8, align 4
  %sub = fsub float %7, %conv7
  store float %sub, float* %m_fDelay8, align 4
  %m_nIn = getelementptr inbounds %class.CAmbisonicEncoderDist, %class.CAmbisonicEncoderDist* %this1, i32 0, i32 6
  %8 = load i32, i32* %m_nIn, align 8
  %m_nDelay9 = getelementptr inbounds %class.CAmbisonicEncoderDist, %class.CAmbisonicEncoderDist* %this1, i32 0, i32 3
  %9 = load i32, i32* %m_nDelay9, align 8
  %sub10 = sub nsw i32 %8, %9
  %m_nDelayBufferLength = getelementptr inbounds %class.CAmbisonicEncoderDist, %class.CAmbisonicEncoderDist* %this1, i32 0, i32 4
  %10 = load i32, i32* %m_nDelayBufferLength, align 4
  %add = add i32 %sub10, %10
  %m_nDelayBufferLength11 = getelementptr inbounds %class.CAmbisonicEncoderDist, %class.CAmbisonicEncoderDist* %this1, i32 0, i32 4
  %11 = load i32, i32* %m_nDelayBufferLength11, align 4
  %rem = urem i32 %add, %11
  %m_nOutA = getelementptr inbounds %class.CAmbisonicEncoderDist, %class.CAmbisonicEncoderDist* %this1, i32 0, i32 7
  store i32 %rem, i32* %m_nOutA, align 4
  %m_nOutA12 = getelementptr inbounds %class.CAmbisonicEncoderDist, %class.CAmbisonicEncoderDist* %this1, i32 0, i32 7
  %12 = load i32, i32* %m_nOutA12, align 4
  %add13 = add nsw i32 %12, 1
  %m_nDelayBufferLength14 = getelementptr inbounds %class.CAmbisonicEncoderDist, %class.CAmbisonicEncoderDist* %this1, i32 0, i32 4
  %13 = load i32, i32* %m_nDelayBufferLength14, align 4
  %rem15 = urem i32 %add13, %13
  %m_nOutB = getelementptr inbounds %class.CAmbisonicEncoderDist, %class.CAmbisonicEncoderDist* %this1, i32 0, i32 8
  store i32 %rem15, i32* %m_nOutB, align 8
  %14 = bitcast %class.CAmbisonicEncoderDist* %this1 to %class.CAmbisonicSource*
  %m_polPosition16 = getelementptr inbounds %class.CAmbisonicSource, %class.CAmbisonicSource* %14, i32 0, i32 3
  %fDistance17 = getelementptr inbounds %struct.PolarPoint, %struct.PolarPoint* %m_polPosition16, i32 0, i32 2
  %15 = load float, float* %fDistance17, align 8
  %conv18 = fpext float %15 to double
  %16 = call double @llvm.fabs.f64(double %conv18)
  %m_fRoomRadius = getelementptr inbounds %class.CAmbisonicEncoderDist, %class.CAmbisonicEncoderDist* %this1, i32 0, i32 9
  %17 = load float, float* %m_fRoomRadius, align 4
  %conv19 = fpext float %17 to double
  %cmp = fcmp oge double %16, %conv19
  br i1 %cmp, label %if.then, label %if.else

if.then:                                          ; preds = %entry
  %m_fRoomRadius20 = getelementptr inbounds %class.CAmbisonicEncoderDist, %class.CAmbisonicEncoderDist* %this1, i32 0, i32 9
  %18 = load float, float* %m_fRoomRadius20, align 4
  %conv21 = fpext float %18 to double
  %19 = bitcast %class.CAmbisonicEncoderDist* %this1 to %class.CAmbisonicSource*
  %m_polPosition22 = getelementptr inbounds %class.CAmbisonicSource, %class.CAmbisonicSource* %19, i32 0, i32 3
  %fDistance23 = getelementptr inbounds %struct.PolarPoint, %struct.PolarPoint* %m_polPosition22, i32 0, i32 2
  %20 = load float, float* %fDistance23, align 8
  %conv24 = fpext float %20 to double
  %21 = call double @llvm.fabs.f64(double %conv24)
  %div25 = fdiv double %conv21, %21
  %div26 = fdiv double %div25, 2.000000e+00
  %conv27 = fptrunc double %div26 to float
  %m_fInteriorGain = getelementptr inbounds %class.CAmbisonicEncoderDist, %class.CAmbisonicEncoderDist* %this1, i32 0, i32 10
  store float %conv27, float* %m_fInteriorGain, align 8
  %m_fInteriorGain28 = getelementptr inbounds %class.CAmbisonicEncoderDist, %class.CAmbisonicEncoderDist* %this1, i32 0, i32 10
  %22 = load float, float* %m_fInteriorGain28, align 8
  %m_fExteriorGain = getelementptr inbounds %class.CAmbisonicEncoderDist, %class.CAmbisonicEncoderDist* %this1, i32 0, i32 11
  store float %22, float* %m_fExteriorGain, align 4
  br label %if.end

if.else:                                          ; preds = %entry
  %23 = bitcast %class.CAmbisonicEncoderDist* %this1 to %class.CAmbisonicSource*
  %m_polPosition29 = getelementptr inbounds %class.CAmbisonicSource, %class.CAmbisonicSource* %23, i32 0, i32 3
  %fDistance30 = getelementptr inbounds %struct.PolarPoint, %struct.PolarPoint* %m_polPosition29, i32 0, i32 2
  %24 = load float, float* %fDistance30, align 8
  %conv31 = fpext float %24 to double
  %25 = call double @llvm.fabs.f64(double %conv31)
  %m_fRoomRadius32 = getelementptr inbounds %class.CAmbisonicEncoderDist, %class.CAmbisonicEncoderDist* %this1, i32 0, i32 9
  %26 = load float, float* %m_fRoomRadius32, align 4
  %conv33 = fpext float %26 to double
  %div34 = fdiv double %25, %conv33
  %sub35 = fsub double 2.000000e+00, %div34
  %div36 = fdiv double %sub35, 2.000000e+00
  %conv37 = fptrunc double %div36 to float
  %m_fInteriorGain38 = getelementptr inbounds %class.CAmbisonicEncoderDist, %class.CAmbisonicEncoderDist* %this1, i32 0, i32 10
  store float %conv37, float* %m_fInteriorGain38, align 8
  %27 = bitcast %class.CAmbisonicEncoderDist* %this1 to %class.CAmbisonicSource*
  %m_polPosition39 = getelementptr inbounds %class.CAmbisonicSource, %class.CAmbisonicSource* %27, i32 0, i32 3
  %fDistance40 = getelementptr inbounds %struct.PolarPoint, %struct.PolarPoint* %m_polPosition39, i32 0, i32 2
  %28 = load float, float* %fDistance40, align 8
  %conv41 = fpext float %28 to double
  %29 = call double @llvm.fabs.f64(double %conv41)
  %m_fRoomRadius42 = getelementptr inbounds %class.CAmbisonicEncoderDist, %class.CAmbisonicEncoderDist* %this1, i32 0, i32 9
  %30 = load float, float* %m_fRoomRadius42, align 4
  %conv43 = fpext float %30 to double
  %div44 = fdiv double %29, %conv43
  %div45 = fdiv double %div44, 2.000000e+00
  %conv46 = fptrunc double %div45 to float
  %m_fExteriorGain47 = getelementptr inbounds %class.CAmbisonicEncoderDist, %class.CAmbisonicEncoderDist* %this1, i32 0, i32 11
  store float %conv46, float* %m_fExteriorGain47, align 4
  br label %if.end

if.end:                                           ; preds = %if.else, %if.then
  ret void
}

; Function Attrs: nounwind readnone speculatable
declare double @llvm.fabs.f64(double) #8

; Function Attrs: noinline optnone uwtable
define dso_local void @_ZN21CAmbisonicEncoderDist7ProcessEPfjP8CBFormat(%class.CAmbisonicEncoderDist* %this, float* %pfSrc, i32 %nSamples, %class.CBFormat* %pfDst) #4 align 2 {
entry:
  %this.addr = alloca %class.CAmbisonicEncoderDist*, align 8
  %pfSrc.addr = alloca float*, align 8
  %nSamples.addr = alloca i32, align 4
  %pfDst.addr = alloca %class.CBFormat*, align 8
  %niChannel = alloca i32, align 4
  %niSample = alloca i32, align 4
  %fSrcSample = alloca float, align 4
  store %class.CAmbisonicEncoderDist* %this, %class.CAmbisonicEncoderDist** %this.addr, align 8
  store float* %pfSrc, float** %pfSrc.addr, align 8
  store i32 %nSamples, i32* %nSamples.addr, align 4
  store %class.CBFormat* %pfDst, %class.CBFormat** %pfDst.addr, align 8
  %this1 = load %class.CAmbisonicEncoderDist*, %class.CAmbisonicEncoderDist** %this.addr, align 8
  store i32 0, i32* %niChannel, align 4
  store i32 0, i32* %niSample, align 4
  store float 0.000000e+00, float* %fSrcSample, align 4
  store i32 0, i32* %niSample, align 4
  br label %for.cond

for.cond:                                         ; preds = %for.inc42, %entry
